# symbols: 386
0000000000004540 P _Znam
0000000000004550 P __errno_location
0000000000004560 P printf
0000000000004570 P _ZNSt7__cxx1112basic_stringIcSt11char_traitsIcESaIcEE6appendEPKcm
0000000000004580 P mkfifo
0000000000004590 P glfwGetTime
00000000000045a0 P zmq_strerror
00000000000045b0 P glfwSetErrorCallback
00000000000045c0 P _ZSt9terminatev
00000000000045d0 P zmq_msg_init_size
00000000000045e0 P write
00000000000045f0 P _ZSt17__throw_bad_allocv
0000000000004600 P __cxa_begin_catch
0000000000004610 P _ZNKSt7__cxx1112basic_stringIcSt11char_traitsIcESaIcEE5c_strEv
0000000000004620 P _ZNSt6thread6_StateD2Ev
0000000000004630 P unlink
0000000000004640 P __cxa_allocate_exception
0000000000004650 P _ZSt20__throw_length_errorPKc
0000000000004660 P glfwMakeContextCurrent
0000000000004670 P _ZNSt7__cxx1112basic_stringIcSt11char_traitsIcESaIcEEC1EOS4_
0000000000004680 P _ZNSt7__cxx1112basic_stringIcSt11char_traitsIcESaIcEED1Ev
0000000000004690 P __assert_fail
00000000000046a0 P zmq_msg_send
00000000000046b0 P zmq_bind
00000000000046c0 P _ZNKSt7__cxx1112basic_stringIcSt11char_traitsIcESaIcEE4sizeEv
00000000000046d0 P gladLoadGLLoader
00000000000046e0 P __cxa_free_exception
00000000000046f0 P open
0000000000004700 P zmq_msg_recv
0000000000004710 P zmq_msg_data
0000000000004720 P memcpy
0000000000004730 P glfwWindowHint
0000000000004740 P __cxa_atexit
0000000000004750 P _ZNSt6thread15_M_start_threadESt10unique_ptrINS_6_StateESt14default_deleteIS1_EEPFvvE
0000000000004760 P strcpy
0000000000004770 P _ZdlPv
0000000000004780 P glfwPollEvents
0000000000004790 P _ZStlsISt11char_traitsIcEERSt13basic_ostreamIcT_ES5_PKc
00000000000047a0 P _Znwm
00000000000047b0 P __monstartup
00000000000047c0 P glfwTerminate
00000000000047d0 P _ZNSolsEPFRSoS_E
00000000000047e0 P _ZNSaIcED1Ev
00000000000047f0 P __stack_chk_fail
0000000000004800 P _ZNSt7__cxx1112basic_stringIcSt11char_traitsIcESaIcEEC1EPKcmRKS3_
0000000000004810 P glfwInit
0000000000004820 P exit
0000000000004830 P _ZNSt7__cxx1112basic_stringIcSt11char_traitsIcESaIcEEaSEOS4_
0000000000004840 P _ZNKSt7__cxx1112basic_stringIcSt11char_traitsIcESaIcEE4dataEv
0000000000004850 P zmq_errno
0000000000004860 P malloc
0000000000004870 P glfwSwapBuffers
0000000000004880 P _ZNSt7__cxx1112basic_stringIcSt11char_traitsIcESaIcEEC1EPKcRKS3_
0000000000004890 P _ZNSt7__cxx1112basic_stringIcSt11char_traitsIcESaIcEEC1Ev
00000000000048a0 P strcmp
00000000000048b0 P fprintf
00000000000048c0 P __cxa_rethrow
00000000000048d0 P zmq_close
00000000000048e0 P zmq_msg_close
00000000000048f0 P glfwSetFramebufferSizeCallback
0000000000004900 P _ZNSt8ios_base4InitC1Ev
0000000000004910 P puts
0000000000004920 P glfwCreateWindow
0000000000004930 P _ZNSt7__cxx1112basic_stringIcSt11char_traitsIcESaIcEE7reserveEm
0000000000004940 P zmq_ctx_destroy
0000000000004950 P memmove
0000000000004960 P __cxa_end_catch
0000000000004970 P access
0000000000004980 P zmq_ctx_new
0000000000004990 P _ZNSt6thread4joinEv
00000000000049a0 P __cxa_throw
00000000000049b0 P _Unwind_Resume
00000000000049c0 P _ZNSaIcEC1Ev
00000000000049d0 P zmq_socket
00000000000049e0 P zmq_msg_init
00000000000049f0 P _ZNSt9exceptionD2Ev
0000000000004a00 P _ZNSt7__cxx1112basic_stringIcSt11char_traitsIcESaIcEE6appendEPKc
0000000000004a10 P zmq_msg_size
0000000000004a20 P _ZNSt7__cxx1112basic_stringIcSt11char_traitsIcESaIcEE6appendERKS4_
0000000000004a30 P close
0000000000004a40 ? __dynsym_end
0000000000004a40 T _start
0000000000004a70 T __gmon_start__
0000000000004ac0 T _dl_relocate_static_pie
0000000000004b89 T main
0000000000004d11 t _Z41__static_initialization_and_destruction_0ii
0000000000004d64 t _GLOBAL__sub_I_main
0000000000004d84 w _ZNSt9exceptionC2Ev
0000000000004dac w _ZN3zmq7error_tC1Ev
0000000000004e10 w _ZNK3zmq7error_t4whatEv
0000000000004e36 w _ZN3zmq9context_tC2Ev
0000000000004eb6 w _ZN3zmq9context_tD1Ev
0000000000004edc w _ZN3zmq9context_t5closeEv
0000000000004f5a w _ZN3zmq6detail11socket_baseC2EPv
0000000000004f82 w _ZN3zmq8socket_tC2Ev
0000000000004fb8 w _ZN3zmq8socket_tD1Ev
0000000000004fde w _ZN3zmq8socket_t5closeEv
0000000000005048 w _ZNSt6thread2idC1Ev
000000000000506c w _ZNSt6threadD1Ev
000000000000509a w _ZNKSt6thread8joinableEv
00000000000050f7 w _ZSteqNSt6thread2idES0_
0000000000005122 w _ZN6ServerC2EPcS0_b
00000000000053e2 w _ZN6ServerD1Ev
0000000000005486 w _ZNSt6threadC1IM6ServerFvvEJPS1_EvEEOT_DpOT0_
000000000000556d w _ZSt7forwardIM6ServerFvvEEOT_RNSt16remove_referenceIS3_E4typeE
0000000000005589 w _ZSt7forwardIP6ServerEOT_RNSt16remove_referenceIS2_E4typeE
00000000000055a6 w _ZNSt5tupleIJM6ServerFvvEPS0_EEC2EOS4_
00000000000055d6 w _ZNSt5tupleIJM6ServerFvvEPS0_EEC2IS2_S3_Lb1EEEOT_OT0_
000000000000562e w _ZNSt11_Tuple_implILm0EJM6ServerFvvEPS0_EEC2IS2_JS3_EvEEOT_DpOT0_
0000000000005690 w _ZNSt11_Tuple_implILm1EJP6ServerEEC1IS1_EEOT_
00000000000056ce w _ZNSt10_Head_baseILm1EP6ServerLb0EEC1IS1_EEOT_
0000000000005701 w _ZNSt6thread14__make_invokerIM6ServerFvvEJPS1_EEENS_8_InvokerISt5tupleIJNSt5decayIT_E4typeEDpNS7_IT0_E4typeEEEEEOS8_DpOSB_
000000000000575c w _ZNSt6thread13_S_make_stateINS_8_InvokerISt5tupleIJM6ServerFvvEPS3_EEEEEESt10unique_ptrINS_6_StateESt14default_deleteISA_EEOT_
00000000000057bc w _ZNSt10unique_ptrINSt6thread6_StateESt14default_deleteIS1_EED1Ev
000000000000582c w _ZNSt11_Tuple_implILm0EJM6ServerFvvEPS0_EEC1EOS4_
000000000000589a w _ZNSt10_Head_baseILm0EM6ServerFvvELb0EEC2IS2_EEOT_
00000000000058d5 w _ZSt7forwardINSt6thread8_InvokerISt5tupleIJM6ServerFvvEPS3_EEEEEOT_RNSt16remove_referenceIS9_E4typeE
00000000000058f2 w _ZNSt6thread6_StateC2Ev
000000000000591a w _ZNSt6thread8_InvokerISt5tupleIJM6ServerFvvEPS2_EEEC2EOS7_
000000000000594a w _ZNSt6thread11_State_implINS_8_InvokerISt5tupleIJM6ServerFvvEPS3_EEEEEC2EOS8_
00000000000059a6 w _ZNSt10unique_ptrINSt6thread6_StateESt14default_deleteIS1_EEC2IS3_vEEPS1_
00000000000059d6 w _ZNSt15__uniq_ptr_implINSt6thread6_StateESt14default_deleteIS1_EE6_M_ptrEv
00000000000059fa w _ZNSt10unique_ptrINSt6thread6_StateESt14default_deleteIS1_EE11get_deleterEv
0000000000005a1e w _ZSt4moveIRPNSt6thread6_StateEEONSt16remove_referenceIT_E4typeEOS5_
0000000000005a3a w _ZNKSt14default_deleteINSt6thread6_StateEEclEPS1_
0000000000005a6f w _ZNSt11_Tuple_implILm0EJM6ServerFvvEPS0_EE7_M_tailERS4_
0000000000005a8b w _ZSt4moveIRSt11_Tuple_implILm1EJP6ServerEEEONSt16remove_referenceIT_E4typeEOS6_
0000000000005aa7 w _ZNSt11_Tuple_implILm0EJM6ServerFvvEPS0_EE7_M_headERS4_
0000000000005ad0 w _ZNSt11_Tuple_implILm1EJP6ServerEEC2EOS2_
0000000000005b16 w _ZNSt15__uniq_ptr_implINSt6thread6_StateESt14default_deleteIS1_EEC1EPS1_
0000000000005b52 w _ZSt3getILm0EJPNSt6thread6_StateESt14default_deleteIS1_EEERNSt13tuple_elementIXT_ESt5tupleIJDpT0_EEE4typeERS9_
0000000000005b76 w _ZNSt15__uniq_ptr_implINSt6thread6_StateESt14default_deleteIS1_EE10_M_deleterEv
0000000000005b9a w _ZNSt10_Head_baseILm0EM6ServerFvvELb0EE7_M_headERS3_
0000000000005bb6 w _ZNSt11_Tuple_implILm1EJP6ServerEE7_M_headERS2_
0000000000005bda w _ZNSt5tupleIJPNSt6thread6_StateESt14default_deleteIS1_EEEC2IS2_S4_Lb1EEEv
0000000000005bff w _ZSt12__get_helperILm0EPNSt6thread6_StateEJSt14default_deleteIS1_EEERT0_RSt11_Tuple_implIXT_EJS5_DpT1_EE
0000000000005c23 w _ZSt3getILm1EJPNSt6thread6_StateESt14default_deleteIS1_EEERNSt13tuple_elementIXT_ESt5tupleIJDpT0_EEE4typeERS9_
0000000000005c47 w _ZNSt10_Head_baseILm1EP6ServerLb0EE7_M_headERS2_
0000000000005c64 w _ZNSt11_Tuple_implILm0EJPNSt6thread6_StateESt14default_deleteIS1_EEEC2Ev
0000000000005c95 w _ZNSt11_Tuple_implILm0EJPNSt6thread6_StateESt14default_deleteIS1_EEE7_M_headERS5_
0000000000005cb9 w _ZSt12__get_helperILm1ESt14default_deleteINSt6thread6_StateEEJEERT0_RSt11_Tuple_implIXT_EJS4_DpT1_EE
0000000000005cde w _ZNSt11_Tuple_implILm1EJSt14default_deleteINSt6thread6_StateEEEEC2Ev
0000000000005d04 w _ZNSt10_Head_baseILm0EPNSt6thread6_StateELb0EEC2Ev
0000000000005d28 w _ZNSt10_Head_baseILm0EPNSt6thread6_StateELb0EE7_M_headERS3_
0000000000005d44 w _ZNSt11_Tuple_implILm1EJSt14default_deleteINSt6thread6_StateEEEE7_M_headERS4_
0000000000005d68 w _ZNSt10_Head_baseILm1ESt14default_deleteINSt6thread6_StateEELb1EEC2Ev
0000000000005d81 w _ZNSt10_Head_baseILm1ESt14default_deleteINSt6thread6_StateEELb1EE7_M_headERS4_
0000000000005d9e w _ZNSt6thread11_State_implINS_8_InvokerISt5tupleIJM6ServerFvvEPS3_EEEEED1Ev
0000000000005dd2 w _ZNSt6thread11_State_implINS_8_InvokerISt5tupleIJM6ServerFvvEPS3_EEEEED0Ev
0000000000005e02 w _ZN3zmq7error_tD2Ev
0000000000005e36 w _ZN3zmq7error_tD0Ev
0000000000005e66 w _ZNSt6thread11_State_implINS_8_InvokerISt5tupleIJM6ServerFvvEPS3_EEEEE6_M_runEv
0000000000005e90 w _ZNSt6thread8_InvokerISt5tupleIJM6ServerFvvEPS2_EEEclEv
0000000000005ed8 w _ZNSt6thread8_InvokerISt5tupleIJM6ServerFvvEPS2_EEE9_M_invokeIJLm0ELm1EEEEvSt12_Index_tupleIJXspT_EEE
0000000000005f2d w _ZSt4moveIRSt5tupleIJM6ServerFvvEPS1_EEEONSt16remove_referenceIT_E4typeEOS8_
0000000000005f49 w _ZSt3getILm0EJM6ServerFvvEPS0_EEONSt13tuple_elementIXT_ESt5tupleIJDpT0_EEE4typeEOS8_
0000000000005f75 w _ZSt3getILm1EJM6ServerFvvEPS0_EEONSt13tuple_elementIXT_ESt5tupleIJDpT0_EEE4typeEOS8_
0000000000005fa1 w _ZSt8__invokeIM6ServerFvvEJPS0_EENSt15__invoke_resultIT_JDpT0_EE4typeEOS5_DpOS6_
000000000000600d w _ZSt3getILm0EJM6ServerFvvEPS0_EERNSt13tuple_elementIXT_ESt5tupleIJDpT0_EEE4typeERS8_
0000000000006031 w _ZSt7forwardIOM6ServerFvvEEOT_RNSt16remove_referenceIS4_E4typeE
000000000000604d w _ZSt3getILm1EJM6ServerFvvEPS0_EERNSt13tuple_elementIXT_ESt5tupleIJDpT0_EEE4typeERS8_
0000000000006071 w _ZSt7forwardIOP6ServerEOT_RNSt16remove_referenceIS3_E4typeE
000000000000608d w _ZSt13__invoke_implIvM6ServerFvvEPS0_JEET_St21__invoke_memfun_derefOT0_OT1_DpOT2_
0000000000006100 w _ZSt12__get_helperILm0EM6ServerFvvEJPS0_EERT0_RSt11_Tuple_implIXT_EJS4_DpT1_EE
0000000000006124 w _ZSt12__get_helperILm1EP6ServerJEERT0_RSt11_Tuple_implIXT_EJS2_DpT1_EE
0000000000006148 t _ZL13errorCallbackiPKc
0000000000006183 T _Z15MessageCallbackjjjjiPKcPKv
0000000000006206 T _ZN6Server11server_bindEv
00000000000063fb t _ZL23framebufferSizeCallbackP10GLFWwindowii
000000000000644a T _ZN6Server7init_glEv
00000000000065b6 T _ZN6Server3runEv
000000000000c04a t _Z41__static_initialization_and_destruction_0ii
000000000000c09d t _GLOBAL__sub_I__ZN6Server17framebufferHeightE
000000000000c0bc w _ZnwmPv
000000000000c0dc w _ZNSt11char_traitsIcE6lengthEPKc
000000000000c116 w _ZN3zmq9message_tC1Ev
000000000000c164 w _ZN3zmq9message_tD2Ev
000000000000c1b2 w _ZN3zmq9message_t7rebuildEm
000000000000c294 w _ZN3zmq9message_t4dataEv
000000000000c2b8 w _ZNK3zmq9message_t4dataEv
000000000000c2dc w _ZNK3zmq9message_t4sizeEv
000000000000c300 w _ZNK3zmq9message_t5emptyEv
000000000000c32a w _ZNK3zmq9message_t9to_stringB5cxx11Ev
000000000000c3e0 w _ZN3zmq9message_t6handleEv
000000000000c3fc w _ZN3zmq9context_tcvPvEv
000000000000c41c w _ZN3zmq6detail11socket_base4bindERKNSt7__cxx1112basic_stringIcSt11char_traitsIcESaIcEEE
000000000000c458 w _ZN3zmq6detail11socket_base4bindEPKc
000000000000c4e4 w _ZN3zmq6detail16trivial_optionalImEC1Ev
000000000000c510 w _ZN3zmq6detail11socket_base4sendERNS_9message_tENS_10send_flagsE
000000000000c622 w _ZN3zmq6detail11socket_base4recvERNS_9message_tENS_10recv_flagsE
000000000000c76a w _ZN3zmq8socket_tC2ERNS_9context_tEi
000000000000c824 w _ZN3zmq8socket_tC2ERNS_9context_tENS_11socket_typeE
000000000000c85a w _ZN3zmq8socket_taSEOS0_
000000000000c89a w _ZNSt12_Vector_baseIPKcSaIS1_EE12_Vector_implD2Ev
000000000000c8c0 w _ZNSt12_Vector_baseIPKcSaIS1_EEC1Ev
000000000000c8e6 w _ZNSt6vectorIPKcSaIS1_EEC2Ev
000000000000c90b w _ZSt4moveIRPvEONSt16remove_referenceIT_E4typeEOS3_
000000000000c927 w _ZSt4swapIPvENSt9enable_ifIXsrSt6__and_IJSt6__not_ISt15__is_tuple_likeIT_EESt21is_move_constructibleIS5_ESt18is_move_assignableIS5_EEE5valueEvE4typeERS5_SF_
000000000000c9a6 w _ZSt3minImERKT_S2_S2_
000000000000c9e0 w _ZN3zmq6detail16trivial_optionalImEC1Em
000000000000ca10 w _ZStplIcSt11char_traitsIcESaIcEENSt7__cxx1112basic_stringIT_T0_T1_EEPKS5_RKS8_
000000000000cae5 w _ZStplIcSt11char_traitsIcESaIcEENSt7__cxx1112basic_stringIT_T0_T1_EEOS8_PKS5_
000000000000cb36 w _ZStplIcSt11char_traitsIcESaIcEENSt7__cxx1112basic_stringIT_T0_T1_EEOS8_RKS8_
000000000000cb88 w _ZNSt12_Vector_baseIPKcSaIS1_EE12_Vector_implC2Ev
000000000000cbba w _ZNSaIPKcED2Ev
000000000000cbe0 w _ZNSt12_Vector_baseIPKcSaIS1_EED2Ev
000000000000cc38 w _ZNSt6vectorIPKcSaIS1_EED1Ev
000000000000cc86 w _ZNSt6vectorIPKcSaIS1_EE9push_backEOS1_
000000000000ccc2 w _ZNSt6vectorIPKcSaIS1_EEixEm
000000000000ccf0 w _ZSt4moveIRNSt7__cxx1112basic_stringIcSt11char_traitsIcESaIcEEEEONSt16remove_referenceIT_E4typeEOS8_
000000000000cd0c w _ZNSaIPKcEC1Ev
000000000000cd32 w _ZNSt12_Vector_baseIPKcSaIS1_EE17_Vector_impl_dataC1Ev
000000000000cd6e w _ZN9__gnu_cxx13new_allocatorIPKcED2Ev
000000000000cd88 w _ZNSt12_Vector_baseIPKcSaIS1_EE13_M_deallocateEPS1_m
000000000000cdc8 w _ZNSt12_Vector_baseIPKcSaIS1_EE19_M_get_Tp_allocatorEv
000000000000cde4 w _ZSt8_DestroyIPPKcS1_EvT_S3_RSaIT0_E
000000000000ce18 w _ZSt4moveIRPKcEONSt16remove_referenceIT_E4typeEOS4_
000000000000ce34 w _ZNSt6vectorIPKcSaIS1_EE12emplace_backIJS1_EEEvDpOT_
000000000000ced8 w _ZN9__gnu_cxx13new_allocatorIPKcEC1Ev
000000000000cef1 w _ZNSt16allocator_traitsISaIPKcEE10deallocateERS2_PS1_m
000000000000cf29 w _ZSt8_DestroyIPPKcEvT_S3_
000000000000cf59 w _ZSt7forwardIPKcEOT_RNSt16remove_referenceIS2_E4typeE
000000000000cf75 w _ZNSt16allocator_traitsISaIPKcEE9constructIS1_JS1_EEEvRS2_PT_DpOT0_
000000000000cfb8 w _ZNSt6vectorIPKcSaIS1_EE3endEv
000000000000d00e w _ZNSt6vectorIPKcSaIS1_EE15_S_use_relocateEv
000000000000d04a w _ZNSt6vectorIPKcSaIS1_EE19_S_nothrow_relocateESt17integral_constantIbLb1EE
000000000000d060 w _ZNSt6vectorIPKcSaIS1_EE17_M_realloc_insertIJS1_EEEvN9__gnu_cxx17__normal_iteratorIPS1_S3_EEDpOT_
000000000000d35e w _ZN9__gnu_cxx13new_allocatorIPKcE10deallocateEPS2_m
000000000000d38b w _ZNSt12_Destroy_auxILb1EE9__destroyIPPKcEEvT_S5_
000000000000d3a8 w _ZN9__gnu_cxx13new_allocatorIPKcE9constructIS2_JS2_EEEvPT_DpOT0_
000000000000d3f2 w _ZN9__gnu_cxx17__normal_iteratorIPPKcSt6vectorIS2_SaIS2_EEEC2ERKS3_
000000000000d41e w _ZNKSt6vectorIPKcSaIS1_EE12_M_check_lenEmS1_
000000000000d514 w _ZNSt6vectorIPKcSaIS1_EE5beginEv
000000000000d566 w _ZN9__gnu_cxxmiIPPKcSt6vectorIS2_SaIS2_EEEENS_17__normal_iteratorIT_T0_E15difference_typeERKSA_SD_
000000000000d5b0 w _ZNSt12_Vector_baseIPKcSaIS1_EE11_M_allocateEm
000000000000d5ed w _ZNSt6vectorIPKcSaIS1_EE11_S_relocateEPS1_S4_S4_RS2_
000000000000d64c w _ZNK9__gnu_cxx17__normal_iteratorIPPKcSt6vectorIS2_SaIS2_EEE4baseEv
000000000000d668 w _ZSt34__uninitialized_move_if_noexcept_aIPPKcS2_SaIS1_EET0_T_S5_S4_RT1_
000000000000d6c6 w _ZNSt16allocator_traitsISaIPKcEE7destroyIS1_EEvRS2_PT_
000000000000d6f6 w _ZNKSt6vectorIPKcSaIS1_EE8max_sizeEv
000000000000d722 w _ZNKSt6vectorIPKcSaIS1_EE4sizeEv
000000000000d753 w _ZSt3maxImERKT_S2_S2_
000000000000d78c w _ZNSt16allocator_traitsISaIPKcEE8allocateERS2_m
000000000000d7c0 w _ZNSt6vectorIPKcSaIS1_EE14_S_do_relocateEPS1_S4_S4_RS2_St17integral_constantIbLb1EE
000000000000d7fc w _ZSt32__make_move_if_noexcept_iteratorIPKcSt13move_iteratorIPS1_EET0_PT_
000000000000d84e w _ZSt22__uninitialized_copy_aISt13move_iteratorIPPKcES3_S2_ET0_T_S6_S5_RSaIT1_E
000000000000d88a w _ZN9__gnu_cxx13new_allocatorIPKcE7destroyIS2_EEvPT_
000000000000d8a7 w _ZNSt6vectorIPKcSaIS1_EE11_S_max_sizeERKS2_
000000000000d916 w _ZNKSt12_Vector_baseIPKcSaIS1_EE19_M_get_Tp_allocatorEv
000000000000d932 w _ZN9__gnu_cxx13new_allocatorIPKcE8allocateEmPKv
000000000000d97e w _ZSt12__relocate_aIPPKcS2_SaIS1_EET0_T_S5_S4_RT1_
000000000000d9ec w _ZNSt13move_iteratorIPPKcEC2ES2_
000000000000da14 w _ZSt18uninitialized_copyISt13move_iteratorIPPKcES3_ET0_T_S6_S5_
000000000000da4f w _ZNSt16allocator_traitsISaIPKcEE8max_sizeERKS2_
000000000000da74 w _ZNK9__gnu_cxx13new_allocatorIPKcE8max_sizeEv
000000000000da96 w _ZSt12__niter_baseIPPKcET_S3_
000000000000dab2 w _ZSt14__relocate_a_1IPKcS1_ENSt9enable_ifIXsrSt24__is_bitwise_relocatableIT_vE5valueEPS4_E4typeES6_S6_S6_RSaIT0_E
000000000000db1f w _ZNSt20__uninitialized_copyILb1EE13__uninit_copyISt13move_iteratorIPPKcES5_EET0_T_S8_S7_
000000000000db56 w _ZSt4copyISt13move_iteratorIPPKcES3_ET0_T_S6_S5_
000000000000dbac w _ZSt12__miter_baseIPPKcEDTcl12__miter_basecldtfp_4baseEEESt13move_iteratorIT_E
000000000000dbd8 w _ZSt14__copy_move_a2ILb1EPPKcS2_ET1_T0_S4_S3_
000000000000dc4c w _ZNKSt13move_iteratorIPPKcE4baseEv
000000000000dc6b w _ZSt12__miter_baseIPPKcET_S3_
000000000000dc87 w _ZSt13__copy_move_aILb1EPPKcS2_ET1_T0_S4_S3_
000000000000dcc2 w _ZSt12__niter_wrapIPPKcET_RKS3_S3_
000000000000dce2 w _ZNSt11__copy_moveILb1ELb1ESt26random_access_iterator_tagE8__copy_mIPKcEEPT_PKS5_S8_S6_
000000000000dd50 T __libc_csu_init
000000000000ddc0 T __libc_csu_fini
000000000000ddd0 t atexit
000000000000dde2 ? __func_end
000000000000e000 D _IO_stdin_used
000000000000e004 d _ZStL19piecewise_construct
000000000000e005 d _ZStL13allocator_arg
000000000000e006 d _ZStL6ignore
000000000000e008 d _ZN9__gnu_cxxL21__default_lock_policyE
000000000000e046 d _ZN3zmqL11from_handleE
000000000000e0a0 v _ZTSNSt6thread11_State_implINS_8_InvokerISt5tupleIJM6ServerFvvEPS3_EEEEEE
000000000000e0e8 v _ZTSN3zmq7error_tE
000000000000e0f8 d _ZStL19piecewise_construct
000000000000e0f9 d _ZStL13allocator_arg
000000000000e0fa d _ZStL6ignore
000000000000e0fc d _ZN9__gnu_cxxL21__default_lock_policyE
000000000000e1da d _ZN3zmqL11from_handleE
00000000000119e0 v _ZTVNSt6thread11_State_implINS_8_InvokerISt5tupleIJM6ServerFvvEPS3_EEEEEE
0000000000011a08 v _ZTVN3zmq7error_tE
0000000000011a40 v _ZTVNSt6thread6_StateE@@GLIBCXX_3.4.22
0000000000011a68 v _ZTVSt9exception@@GLIBCXX_3.4
0000000000011a90 v _ZTINSt6thread11_State_implINS_8_InvokerISt5tupleIJM6ServerFvvEPS3_EEEEEE
0000000000011aa8 v _ZTIN3zmq7error_tE
0000000000012010 v DW.ref.__gxx_personality_v0
0000000000012040 D glad_glClearColor
0000000000012048 D glad_glBlendEquation
0000000000012050 D glad_glViewport
0000000000012058 D glad_glColorMask
0000000000012060 D glad_glGenFramebuffers
0000000000012068 D glad_glGenTextures
0000000000012070 D glad_glGetShaderInfoLog
0000000000012078 D glad_glScissor
0000000000012080 D glad_glTexSubImage3D
0000000000012088 D glad_glDepthMask
0000000000012090 D glad_glBufferData
0000000000012098 D glad_glDrawArrays
00000000000120a0 D glad_glGenerateMipmap
00000000000120a8 D glad_glTexStorage2D
00000000000120b0 D glad_glCreateShader
00000000000120b8 D glad_glBindVertexArray
00000000000120c0 D glad_glVertexAttribPointer
00000000000120c8 D glad_glClear
00000000000120d0 D glad_glClearBufferfv
00000000000120d8 D glad_glVertex3f
00000000000120e0 D glad_glGetUniformBlockIndex
00000000000120e8 D glad_glBindTexture
00000000000120f0 D glad_glGetString
00000000000120f8 D glad_glBindAttribLocation
0000000000012100 D glad_glTexParameteri
0000000000012108 D glad_glTexImage3D
0000000000012110 D glad_glReadPixels
0000000000012118 D glad_glLinkProgram
0000000000012120 D glad_glDeleteFramebuffers
0000000000012128 D glad_glCompileShader
0000000000012130 D glad_glAttachShader
0000000000012138 D glad_glGenBuffers
0000000000012140 D glad_glBegin
0000000000012148 D glad_glUniformMatrix4fv
0000000000012150 D glad_glActiveTexture
0000000000012158 D glad_glBlendFunc
0000000000012160 D glad_glClearDepth
0000000000012168 D glad_glUniform4fv
0000000000012170 D glad_glUniformBlockBinding
0000000000012178 D glad_glRenderbufferStorageMultisample
0000000000012180 D glad_glShaderSource
0000000000012188 D glad_glCheckFramebufferStatus
0000000000012190 D glad_glVertexAttrib4f
0000000000012198 D glad_glReadBuffer
00000000000121a0 D glad_glBindFramebuffer
00000000000121a8 D glad_glUseProgram
00000000000121b0 D glad_glGenRenderbuffers
00000000000121b8 D glad_glColor3f
00000000000121c0 D glad_glGetShaderiv
00000000000121c8 D glad_glTexImage2D
00000000000121d0 D glad_glCreateProgram
00000000000121d8 D glad_glDebugMessageCallback
00000000000121e0 D glad_glGetFloatv
00000000000121e8 D glad_glBufferSubData
00000000000121f0 D glad_glGetError
00000000000121f8 D glad_glDisable
0000000000012200 D glad_glVertexAttrib4fv
0000000000012208 D glad_glGetAttribLocation
0000000000012210 D glad_glBlendFuncSeparate
0000000000012218 D glad_glTexParameterf
0000000000012220 D glad_glUniform1i
0000000000012228 D glad_glFrontFace
0000000000012230 D glad_glBindBuffer
0000000000012238 D glad_glGenVertexArrays
0000000000012240 D _ZSt4cout@@GLIBCXX_3.4
0000000000012350 D glad_glFramebufferTextureLayer
0000000000012358 D glad_glEnableVertexAttribArray
0000000000012360 D stderr
0000000000012368 D glad_glFlush
0000000000012370 D glad_glEnable
0000000000012378 D glad_glGetIntegerv
0000000000012380 D glad_glBindBufferBase
0000000000012388 D glad_glUniform1f
0000000000012390 D glad_glDepthFunc
0000000000012398 D glad_glDeleteRenderbuffers
00000000000123a0 D glad_glPixelStorei
00000000000123a8 D glad_glDisableVertexAttribArray
00000000000123b0 D glad_glGetUniformLocation
00000000000123b8 D glad_glDrawElements
00000000000123c0 D glad_glRenderbufferStorage
00000000000123c8 D glad_glDeleteTextures
00000000000123d0 D glad_glCompressedTexImage2D
00000000000123d8 D glad_glGetStringi
00000000000123e0 D glad_glFramebufferRenderbuffer
00000000000123e8 D glad_glEnd
00000000000123f0 D glad_glBindRenderbuffer
00000000000123f8 D glad_glGetProgramiv
0000000000012400 D glad_glFramebufferTexture2D
0000000000012408 D glad_glBlitFramebuffer
0000000000012410 D glad_glTexSubImage2D
0000000000012420 D _ZSt4cerr@@GLIBCXX_3.4
0000000000012530 d called.5043
0000000000012534 d completed.8060
0000000000012535 d _ZStL8__ioinit
0000000000012538 D _ZN6Server17framebufferHeightE
000000000001253c D _ZN6Server16framebufferWidthE
0000000000012540 D shader_compiled
0000000000012544 d _ZStL8__ioinit
0000000000012545 ? __sym_end
