# symbols: 30260
0000000000618030 P __cxa_finalize
0000000000618040 P _ZNKSt7__cxx1112basic_stringIcSt11char_traitsIcESaIcEE17find_first_not_ofEcm
0000000000618050 P strlen
0000000000618060 P free
0000000000618070 P _ZNSt7__cxx1112basic_stringIcSt11char_traitsIcESaIcEE9_M_createERmm
0000000000618080 P memcpy
0000000000618090 P __stack_chk_fail
00000000006180a0 P _ZSt19__throw_logic_errorPKc
00000000006180b0 P _ZdlPvm
00000000006180c0 P malloc
00000000006180d0 P _ZSt9terminatev
00000000006180e0 P memmove
00000000006180f0 P realloc
0000000000618100 P memcmp
0000000000618110 P __snprintf_chk
0000000000618120 P _Znwm
0000000000618130 P islower
0000000000618140 P memchr
0000000000618150 P isxdigit
0000000000618160 P _ZdaPv
0000000000618170 P _Znam
0000000000618180 P memset
0000000000618190 P strcpy
00000000006181a0 P __printf_chk
00000000006181b0 P isalnum
00000000006181c0 P _ZdlPv
00000000006181d0 P _ZSt20__throw_length_errorPKc
00000000006181e0 P strchr
00000000006181f0 P _ZNSt7__cxx1112basic_stringIcSt11char_traitsIcESaIcEE9_M_assignERKS4_
0000000000618200 P _ZSt17__throw_bad_allocv
0000000000618210 P isspace
0000000000618220 P _ZNSt3_V215system_categoryEv
0000000000618230 P _ZdaPvm
0000000000618240 P __cxa_guard_acquire
0000000000618250 P __cxa_guard_release
0000000000618260 P __popcountdi2
0000000000618270 P round
0000000000618280 P sqrt
0000000000618290 P _ZSt29_Rb_tree_insert_and_rebalancebPSt18_Rb_tree_node_baseS0_RS_
00000000006182a0 P _ZSt18_Rb_tree_decrementPSt18_Rb_tree_node_base
00000000006182b0 P _ZNSt7__cxx1112basic_stringIcSt11char_traitsIcESaIcEE10_M_replaceEmmPKcm
00000000006182c0 P _ZNSt7__cxx1112basic_stringIcSt11char_traitsIcESaIcEE9_M_appendEPKcm
00000000006182d0 P _ZNKSt7__cxx1112basic_stringIcSt11char_traitsIcESaIcEE7compareEPKc
00000000006182e0 P strcmp
00000000006182f0 P tolower
0000000000618300 P _ZNSt6chrono3_V212system_clock3nowEv
0000000000618310 P _ZNSt3_V216generic_categoryEv
0000000000618320 P _ZSt18_Rb_tree_incrementPKSt18_Rb_tree_node_base
0000000000618330 P localtime_r
0000000000618340 P strftime
0000000000618350 P pthread_mutex_unlock
0000000000618360 P getpid
0000000000618370 P pthread_mutex_lock
0000000000618380 P _ZSt20__throw_system_errori
0000000000618390 P _ZSt25__throw_bad_function_callv
00000000006183a0 P strtod
00000000006183b0 P _ZSt18_Rb_tree_incrementPSt18_Rb_tree_node_base
00000000006183c0 P qsort
00000000006183d0 P exit
00000000006183e0 P __cxa_atexit
00000000006183f0 P __cxa_pure_virtual
0000000000618400 P compressBound
0000000000618410 P compress2
0000000000618420 P uncompress
0000000000618430 P crc32
0000000000618440 P _ZNSt7__cxx1112basic_stringIwSt11char_traitsIwESaIwEE6resizeEmw
0000000000618450 P _ZNSt7__cxx1112basic_stringIcSt11char_traitsIcESaIcEE6resizeEmc
0000000000618460 P _ZNSt7__cxx1112basic_stringIcSt11char_traitsIcESaIcEE8_M_eraseEmm
0000000000618470 P _ZNSt7__cxx1112basic_stringIcSt11char_traitsIcESaIcEE9_M_mutateEmmPKcm
0000000000618480 P sigemptyset
0000000000618490 P sigaction
00000000006184a0 P sigaddset
00000000006184b0 P sigprocmask
00000000006184c0 P raise
00000000006184d0 P __longjmp_chk
00000000006184e0 P _setjmp
00000000006184f0 P _ZNSt3_V214error_categoryD2Ev
0000000000618500 P _ZNSt7__cxx1112basic_stringIcSt11char_traitsIcESaIcEE7reserveEm
0000000000618510 P _ZNKSt3_V214error_category10_M_messageB5cxx11Ei
0000000000618520 P _ZNKSt3_V214error_category23default_error_conditionEi
0000000000618530 P _ZNKSt3_V214error_category10equivalentEiRKSt15error_condition
0000000000618540 P _ZNKSt3_V214error_category10equivalentERKSt10error_codei
0000000000618550 P write
0000000000618560 P abort
0000000000618570 P _ZSt15set_new_handlerPFvvE
0000000000618580 P isalpha
0000000000618590 P _ZSt24__throw_out_of_range_fmtPKcz
00000000006185a0 P _ZNSt7__cxx1112basic_stringIcSt11char_traitsIcESaIcEE12_M_constructEmc
00000000006185b0 P _ZNSt8__detail15_List_node_base7_M_hookEPS0_
00000000006185c0 P _ZNSt7__cxx1112basic_stringIcSt11char_traitsIcESaIcEE9push_backEc
00000000006185d0 P _ZNSt7__cxx1112basic_stringIcSt11char_traitsIcESaIcEE6appendEPKc
00000000006185e0 P calloc
00000000006185f0 P _ZNSt7__cxx1112basic_stringIcSt11char_traitsIcESaIcEE14_M_replace_auxEmmmc
0000000000618600 P _ZNSt7__cxx1112basic_stringIcSt11char_traitsIcESaIcEE6appendEPKcm
0000000000618610 P modf
0000000000618620 P strtoll
0000000000618630 P gethostname
0000000000618640 P getsid
0000000000618650 P __errno_location
0000000000618660 P nanosleep
0000000000618670 P __tls_get_addr
0000000000618680 P pthread_once
0000000000618690 P _ZnwmRKSt9nothrow_t
00000000006186a0 P _ZNSt13__future_base12_Result_baseD2Ev
00000000006186b0 P _ZNSt6thread6_StateD2Ev
00000000006186c0 P _ZNSt6thread15_M_start_threadESt10unique_ptrINS_6_StateESt14default_deleteIS1_EEPFvvE
00000000006186d0 P _ZSt20__throw_future_errori
00000000006186e0 P _ZNSt18condition_variable4waitERSt11unique_lockISt5mutexE
00000000006186f0 P _ZNSt28__atomic_futex_unsigned_base19_M_futex_notify_allEPj
0000000000618700 P _ZNSt18condition_variable10notify_allEv
0000000000618710 P _ZNSt28__atomic_futex_unsigned_base19_M_futex_wait_untilEPjjbNSt6chrono8durationIlSt5ratioILl1ELl1EEEENS2_IlS3_ILl1ELl1000000000EEEE
0000000000618720 P _ZNSt18condition_variable10notify_oneEv
0000000000618730 P _ZNSt18condition_variableC1Ev
0000000000618740 P _ZNSt18condition_variableD1Ev
0000000000618750 P _ZNSt13__future_base12_Result_baseC2Ev
0000000000618760 P pthread_self
0000000000618770 P _ZNSt6thread4joinEv
0000000000618780 P _ZNSt6thread6detachEv
0000000000618790 P _ZSt15future_categoryv
00000000006187a0 P _ZNSt11logic_errorC2ERKNSt7__cxx1112basic_stringIcSt11char_traitsIcESaIcEEE
00000000006187b0 P _ZNSt15__exception_ptr13exception_ptrC1Ev
00000000006187c0 P _ZNSt15__exception_ptr13exception_ptr4swapERS0_
00000000006187d0 P _ZNSt15__exception_ptr13exception_ptrD1Ev
00000000006187e0 P _ZNSt12future_errorD1Ev
00000000006187f0 P __vsnprintf_chk
0000000000618800 P open
0000000000618810 P read
0000000000618820 P close
0000000000618830 P _ZNKSt7__cxx1112basic_stringIcSt11char_traitsIcESaIcEE16find_last_not_ofEcm
0000000000618840 P __memcpy_chk
0000000000618850 P _ZNKSt7__cxx1112basic_stringIcSt11char_traitsIcESaIcEE4findEcm
0000000000618860 P _ZNKSt8__detail20_Prime_rehash_policy11_M_next_bktEm
0000000000618870 P _ZNSt13__future_base13_State_baseV211_Make_ready6_M_setEv
0000000000618880 P _ZNSt6chrono3_V212steady_clock3nowEv
0000000000618890 P _ZNSt7__cxx1112basic_stringIcSt11char_traitsIcESaIcEE4swapERS4_
00000000006188a0 P _ZNKSt8__detail20_Prime_rehash_policy14_M_need_rehashEmmm
00000000006188b0 P _ZNSt7__cxx1112basic_stringIcSt11char_traitsIcESaIcEEaSEOS4_
00000000006188c0 P strtof
00000000006188d0 P _ZNSo5writeEPKcl
00000000006188e0 P _ZNSo5tellpEv
00000000006188f0 P __fxstat
0000000000618900 P isatty
0000000000618910 P lseek
0000000000618920 P lseek64
0000000000618930 P strncmp
0000000000618940 P __ctype_b_loc
0000000000618950 P __ctype_toupper_loc
0000000000618960 P __ctype_tolower_loc
0000000000618970 P dlclose
0000000000618980 P dlopen
0000000000618990 P dlerror
00000000006189a0 P dlsym
00000000006189b0 P strerror_r
00000000006189c0 P _ZNKSt7__cxx1112basic_stringIcSt11char_traitsIcESaIcEE4findEPKcmm
00000000006189d0 P uname
00000000006189e0 P syscall
00000000006189f0 P munmap
0000000000618a00 P mprotect
0000000000618a10 P mmap
0000000000618a20 P readlink
0000000000618a30 P __realpath_chk
0000000000618a40 P access
0000000000618a50 P statfs
0000000000618a60 P chdir
0000000000618a70 P mkdir
0000000000618a80 P symlink
0000000000618a90 P link
0000000000618aa0 P __lxstat
0000000000618ab0 P remove
0000000000618ac0 P fstatfs
0000000000618ad0 P rename
0000000000618ae0 P posix_fallocate
0000000000618af0 P ftruncate
0000000000618b00 P __xstat
0000000000618b10 P realpath
0000000000618b20 P getcwd
0000000000618b30 P strtok_r
0000000000618b40 P getenv
0000000000618b50 P strdup
0000000000618b60 P umask
0000000000618b70 P chmod
0000000000618b80 P fchmod
0000000000618b90 P futimens
0000000000618ba0 P closedir
0000000000618bb0 P readdir
0000000000618bc0 P opendir
0000000000618bd0 P pread
0000000000618be0 P getuid
0000000000618bf0 P getpwuid
0000000000618c00 P getpwnam
0000000000618c10 P getpagesize
0000000000618c20 P mallinfo
0000000000618c30 P getrusage
0000000000618c40 P setrlimit
0000000000618c50 P dup2
0000000000618c60 P sigfillset
0000000000618c70 P pthread_sigmask
0000000000618c80 P strtol
0000000000618c90 P setupterm
0000000000618ca0 P tigetnum
0000000000618cb0 P set_curterm
0000000000618cc0 P del_curterm
0000000000618cd0 P rand
0000000000618ce0 P srand
0000000000618cf0 P posix_spawn_file_actions_addopen
0000000000618d00 P waitpid
0000000000618d10 P alarm
0000000000618d20 P strsignal
0000000000618d30 P kill
0000000000618d40 P wait
0000000000618d50 P sysconf
0000000000618d60 P posix_spawn
0000000000618d70 P posix_spawn_file_actions_init
0000000000618d80 P fork
0000000000618d90 P posix_spawn_file_actions_destroy
0000000000618da0 P getrlimit
0000000000618db0 P execve
0000000000618dc0 P _exit
0000000000618dd0 P posix_spawn_file_actions_adddup2
0000000000618de0 P execv
0000000000618df0 P _Unwind_GetIP
0000000000618e00 P sigaltstack
0000000000618e10 P unlink
0000000000618e20 P dl_iterate_phdr
0000000000618e30 P log10
0000000000618e40 P backtrace
0000000000618e50 P backtrace_symbols_fd
0000000000618e60 P _Unwind_Backtrace
0000000000618e70 P pthread_key_delete
0000000000618e80 P pthread_key_create
0000000000618e90 P pthread_setspecific
0000000000618ea0 P pthread_getspecific
0000000000618eb0 P _ZNSt6thread20hardware_concurrencyEv
0000000000618ec0 P sched_getaffinity
0000000000618ed0 P __sched_cpucount
0000000000618ee0 P pthread_setname_np
0000000000618ef0 P pthread_getname_np
0000000000618f00 P pthread_setschedparam
0000000000618f10 P pthread_attr_init
0000000000618f20 P pthread_create
0000000000618f30 P pthread_join
0000000000618f40 P pthread_attr_destroy
0000000000618f50 P pthread_attr_setstacksize
0000000000618f60 P _ZSt28_Rb_tree_rebalance_for_erasePSt18_Rb_tree_node_baseRS_
0000000000618f70 P _ZSt11_Hash_bytesPKvmm
0000000000618f80 P _ZNSt8__detail15_List_node_base9_M_unhookEv
0000000000618f90 P pthread_rwlock_wrlock
0000000000618fa0 P pthread_rwlock_unlock
0000000000618fb0 P pthread_rwlock_rdlock
0000000000618fc0 P _ZNSt8__detail15_List_node_base11_M_transferEPS0_S1_
0000000000618fd0 P _ZSt18_Rb_tree_decrementPKSt18_Rb_tree_node_base
0000000000618fe0 P toupper
0000000000618ff0 P _ZNKSt7__cxx1112basic_stringIcSt11char_traitsIcESaIcEE5rfindEcm
0000000000619000 P isblank
0000000000619010 P _ZNKSt7__cxx1112basic_stringIcSt11char_traitsIcESaIcEE7compareERKS4_
0000000000619020 P _ZNSt8ios_baseC2Ev
0000000000619030 P _ZNSt9basic_iosIcSt11char_traitsIcEE4initEPSt15basic_streambufIcS1_E
0000000000619040 P _ZNSt6localeC1Ev
0000000000619050 P _ZSt16__ostream_insertIcSt11char_traitsIcEERSt13basic_ostreamIT_T0_ES6_PKS3_l
0000000000619060 P _ZNSt6localeD1Ev
0000000000619070 P _ZNSt8ios_baseD2Ev
0000000000619080 P _ZNSt9basic_iosIcSt11char_traitsIcEE5clearESt12_Ios_Iostate
0000000000619090 P _ZNSolsEi
00000000006190a0 P _ZNSo9_M_insertIdEERSoT_
00000000006190b0 P log2
00000000006190c0 P log2f
00000000006190d0 P _ZNSo9_M_insertImEERSoT_
00000000006190e0 P _ZNKSt5ctypeIcE13_M_widen_initEv
00000000006190f0 P _ZSt16__throw_bad_castv
0000000000619100 P strtoull
0000000000619110 P _ZSt24__throw_invalid_argumentPKc
0000000000619120 P _ZSt20__throw_out_of_rangePKc
0000000000619130 P feclearexcept
0000000000619140 P fetestexcept
0000000000619150 P pow
0000000000619160 P time
0000000000619170 P strncpy
0000000000619180 P strnlen
0000000000619190 P fmod
00000000006191a0 P fmodf
00000000006191b0 P __isoc99_sscanf
00000000006191c0 P __isoc99_scanf
00000000006191d0 P __sprintf_chk
00000000006191e0 P fputs
00000000006191f0 P __register_frame
0000000000619200 P __deregister_frame
0000000000619210 P _ZNSt15__exception_ptreqERKNS_13exception_ptrES2_
0000000000619220 P _ZNSt15__exception_ptr13exception_ptrC1ERKS0_
0000000000619230 P _ZSt17rethrow_exceptionNSt15__exception_ptr13exception_ptrE
0000000000619240 P _ZNKSt7__cxx1112basic_stringIcSt11char_traitsIcESaIcEE7compareEmmPKc
0000000000619250 P acos
0000000000619260 P sincos
0000000000619270 P sin
0000000000619280 P log
0000000000619290 P tan
00000000006192a0 P tanh
00000000006192b0 P asin
00000000006192c0 P sinh
00000000006192d0 P cos
00000000006192e0 P exp
00000000006192f0 P cosh
0000000000619300 P atan
0000000000619310 P _ZNSt8__detail15_List_node_base4swapERS0_S1_
0000000000619320 P _ZNSt7__cxx1112basic_stringIcSt11char_traitsIcESaIcEE7replaceEmmPKcm
0000000000619330 P el_get
0000000000619340 P el_line
0000000000619350 P fwrite
0000000000619360 P el_push
0000000000619370 P el_insertstr
0000000000619380 P history
0000000000619390 P history_end
00000000006193a0 P el_end
00000000006193b0 P history_init
00000000006193c0 P el_init
00000000006193d0 P el_set
00000000006193e0 P el_gets
00000000006193f0 P _ZNKSt7__cxx1112basic_stringIcSt11char_traitsIcESaIcEE13find_first_ofEPKcmm
0000000000619400 P __xstat64
0000000000619410 P __fxstat64
0000000000619420 P __lxstat64
0000000000619430 P __xmknod
0000000000619440 ? __dynsym_end
000000000061ae58 T _ZN4llvm11ConstantInt19destroyConstantImplEv
000000000061ae5c T _ZN4llvm10ConstantFP19destroyConstantImplEv
000000000061ae60 T _ZN4llvm17ConstantTokenNone19destroyConstantImplEv
000000000061b178 T _ZN4llvm11GlobalValue19destroyConstantImplEv
000000000061b17c T _ZN4llvm11GlobalValue23handleOperandChangeImplEPNS_5ValueES2_
000000000061b260 T _ZNK4llvm11Instruction9cloneImplEv
000000000061b3ea T _ZN4llvm13PMDataManager15getOnTheFlyPassEPNS_4PassEPKvRNS_8FunctionE
000000000062052a T _ZNK4llvm19TargetFrameLowering19getInitialCFAOffsetERKNS_15MachineFunctionE
000000000062052e T _ZNK4llvm19TargetFrameLowering21getInitialCFARegisterERKNS_15MachineFunctionE
0000000000620554 T _ZNK4llvm15TargetInstrInfo10insertNoopERNS_17MachineBasicBlockENS_26MachineInstrBundleIteratorINS_12MachineInstrELb0EEE
000000000062055c T _ZNK4llvm15TargetInstrInfo7getNoopERNS_6MCInstE
0000000000620604 T _ZNK4llvm28TargetLoweringObjectFileWasm20getStaticDtorSectionEjPKNS_8MCSymbolE
0000000000621f74 T _ZN4llvm19SelectionDAGBuilder8visitPHIERKNS_7PHINodeE
0000000000621f78 T _ZN4llvm19SelectionDAGBuilder11visitResumeERKNS_10ResumeInstE
0000000000621f86 T _ZNK4llvm14TargetLowering14LowerOperationENS_7SDValueERNS_12SelectionDAGE
000000000062234c T _ZNK4llvm14TargetLowering27EmitInstrWithCustomInserterERNS_12MachineInstrEPNS_17MachineBasicBlockE
0000000000622810 T _ZN4llvm10AsmPrinter28EmitMachineConstantPoolValueEPNS_24MachineConstantPoolValueE
000000000062fcc4 T _ZN4llvm13MCELFStreamer13EmitThumbFuncEPNS_8MCSymbolE
000000000062fcc8 T _ZN4llvm13MCELFStreamer14EmitSymbolDescEPNS_8MCSymbolEj
000000000062fccc T _ZN4llvm13MCELFStreamer12EmitZerofillEPNS_9MCSectionEPNS_8MCSymbolEmjNS_5SMLocE
000000000062fcd0 T _ZN4llvm13MCELFStreamer14EmitTBSSSymbolEPNS_9MCSectionEPNS_8MCSymbolEmj
000000000062fd78 T _ZNK4llvm13MCInstPrinter12printRegNameERNS_11raw_ostreamEj
000000000062fdf0 T _ZN4llvm16MCObjectStreamer19EmitBundleAlignModeEj
000000000062fdf4 T _ZN4llvm16MCObjectStreamer14EmitBundleLockEb
000000000062fdf8 T _ZN4llvm16MCObjectStreamer16EmitBundleUnlockEv
000000000062fe96 T _ZN4llvm10MCStreamer18BeginCOFFSymbolDefEPKNS_8MCSymbolE
000000000062fe9a T _ZN4llvm10MCStreamer16EndCOFFSymbolDefEv
000000000062fe9e T _ZN4llvm10MCStreamer26EmitCOFFSymbolStorageClassEi
000000000062fea2 T _ZN4llvm10MCStreamer26EmitXCOFFLocalCommonSymbolEPNS_8MCSymbolEmS2_j
000000000062fec8 T _ZN4llvm14MCWasmStreamer16EmitCommonSymbolEPNS_8MCSymbolEmj
000000000062fecc T _ZN4llvm14MCWasmStreamer13EmitThumbFuncEPNS_8MCSymbolE
000000000062fed0 T _ZN4llvm14MCWasmStreamer14EmitSymbolDescEPNS_8MCSymbolEj
000000000062fed4 T _ZN4llvm14MCWasmStreamer12EmitZerofillEPNS_9MCSectionEPNS_8MCSymbolEmjNS_5SMLocE
000000000062fed8 T _ZN4llvm14MCWasmStreamer14EmitTBSSSymbolEPNS_9MCSectionEPNS_8MCSymbolEmj
000000000062ff0c T _ZN4llvm17MCWinCOFFStreamer13EmitThumbFuncEPNS_8MCSymbolE
000000000062ff10 T _ZN4llvm17MCWinCOFFStreamer14EmitSymbolDescEPNS_8MCSymbolEj
000000000062ff14 T _ZN4llvm17MCWinCOFFStreamer12EmitZerofillEPNS_9MCSectionEPNS_8MCSymbolEmjNS_5SMLocE
000000000062ff18 T _ZN4llvm17MCWinCOFFStreamer14EmitTBSSSymbolEPNS_9MCSectionEPNS_8MCSymbolEmj
000000000062ff1c T _ZN4llvm17MCWinCOFFStreamer9EmitIdentENS_9StringRefE
000000000062ff20 T _ZN4llvm17MCWinCOFFStreamer20EmitWinEHHandlerDataENS_5SMLocE
000000000063049c T _ZNK4llvm6object14WasmObjectFile18getSymbolAlignmentENS0_11DataRefImplE
00000000006304a0 T _ZNK4llvm6object14WasmObjectFile23getCommonSymbolSizeImplENS0_11DataRefImplE
00000000006304fc T _ZNK4llvm6object15XCOFFObjectFile23getCommonSymbolSizeImplENS0_11DataRefImplE
0000000000630500 T _ZNK4llvm6object15XCOFFObjectFile13getSymbolTypeENS0_11DataRefImplE
0000000000630504 T _ZNK4llvm6object15XCOFFObjectFile19isSectionCompressedENS0_11DataRefImplE
0000000000630508 T _ZNK4llvm6object15XCOFFObjectFile15section_rel_endENS0_11DataRefImplE
000000000063050c T _ZNK4llvm6object15XCOFFObjectFile18moveRelocationNextERNS0_11DataRefImplE
0000000000630510 T _ZNK4llvm6object15XCOFFObjectFile19getRelocationSymbolENS0_11DataRefImplE
0000000000630514 T _ZNK4llvm6object15XCOFFObjectFile21getRelocationTypeNameENS0_11DataRefImplERNS_15SmallVectorImplIcEE
0000000000630518 T _ZNK4llvm6object15XCOFFObjectFile14getSymbolFlagsENS0_11DataRefImplE
000000000063051c T _ZNK4llvm6object15XCOFFObjectFile19isRelocatableObjectEv
0000000000630876 T _ZN4llvm8codeview25AppendingTypeTableBuilder11getTypeNameENS0_9TypeIndexE
00000000006308f0 T _ZN4llvm8codeview22GlobalTypeTableBuilder11getTypeNameENS0_9TypeIndexE
0000000000630908 T _ZN4llvm8codeview23MergingTypeTableBuilder11getTypeNameENS0_9TypeIndexE
0000000000630a10 T _ZN4llvm15ExecutionEngine13addObjectFileESt10unique_ptrINS_6object10ObjectFileESt14default_deleteIS3_EE
0000000000630a14 T _ZN4llvm15ExecutionEngine13addObjectFileENS_6object12OwningBinaryINS1_10ObjectFileEEE
0000000000630a18 T _ZN4llvm15ExecutionEngine10addArchiveENS_6object12OwningBinaryINS1_7ArchiveEEE
00000000006311ac T _ZN4llvm3orc18NullLegacyResolver24findSymbolInLogicalDylibERKNSt7__cxx1112basic_stringIcSt11char_traitsIcESaIcEEE
000000000069b600 T _ZN4llvm8demangleERKNSt7__cxx1112basic_stringIcSt11char_traitsIcESaIcEEE
00000000006a4c00 T _ZN4llvm16itanium_demangle19parse_discriminatorEPKcS2_
00000000006a4cc0 T _ZN4llvm23ItaniumPartialDemanglerC1Ev
00000000006a4e40 T _ZN4llvm23ItaniumPartialDemanglerD1Ev
00000000006a4f30 T _ZN4llvm23ItaniumPartialDemanglerC1EOS0_
00000000006a4f50 T _ZN4llvm23ItaniumPartialDemangleraSEOS0_
00000000006a4f80 T _ZNK4llvm23ItaniumPartialDemangler14finishDemangleEPcPm
00000000006a50b0 T _ZNK4llvm23ItaniumPartialDemangler12isCtorOrDtorEv
00000000006a5110 T _ZNK4llvm23ItaniumPartialDemangler10isFunctionEv
00000000006a5120 T _ZNK4llvm23ItaniumPartialDemangler19getFunctionBaseNameEPcPm
00000000006a52c0 T _ZNK4llvm23ItaniumPartialDemangler26getFunctionDeclContextNameEPcPm
00000000006a54f0 T _ZNK4llvm23ItaniumPartialDemangler15getFunctionNameEPcPm
00000000006a5640 T _ZNK4llvm23ItaniumPartialDemangler21getFunctionParametersEPcPm
00000000006a5970 T _ZNK4llvm23ItaniumPartialDemangler21getFunctionReturnTypeEPcPm
00000000006a5ae0 T _ZNK4llvm23ItaniumPartialDemangler21hasFunctionQualifiersEv
00000000006a5b10 T _ZNK4llvm23ItaniumPartialDemangler13isSpecialNameEv
00000000006a5b30 T _ZNK4llvm23ItaniumPartialDemangler6isDataEv
00000000006a5f20 w _ZSt9__find_ifIPPN4llvm16itanium_demangle4NodeEN9__gnu_cxx5__ops12_Iter_negateIZNS1_13ParameterPackC4ENS1_9NodeArrayEEUlS3_E_EEET_SC_SC_T0_St26random_access_iterator_tag
00000000006a5ff0 w _ZSt9__find_ifIPPN4llvm16itanium_demangle4NodeEN9__gnu_cxx5__ops12_Iter_negateIZNS1_13ParameterPackC4ENS1_9NodeArrayEEUlS3_E0_EEET_SC_SC_T0_St26random_access_iterator_tag
00000000006a60c0 w _ZSt9__find_ifIPPN4llvm16itanium_demangle4NodeEN9__gnu_cxx5__ops12_Iter_negateIZNS1_13ParameterPackC4ENS1_9NodeArrayEEUlS3_E1_EEET_SC_SC_T0_St26random_access_iterator_tag
00000000006ad9b0 T _ZN4llvm15itaniumDemangleEPKcPcPmPi
00000000006adde0 T _ZN4llvm23ItaniumPartialDemangler15partialDemangleEPKc
00000000006af3a0 T _ZN4llvm11ms_demangle9Demangler10copyStringENS_16itanium_demangle10StringViewE
00000000006af460 T _ZN4llvm11ms_demangle9Demangler26demangleStructorIdentifierERNS_16itanium_demangle10StringViewEb
00000000006af520 T _ZN4llvm11ms_demangle9Demangler36demangleConversionOperatorIdentifierERNS_16itanium_demangle10StringViewE
00000000006af5f0 T _ZN4llvm11ms_demangle9Demangler30translateIntrinsicFunctionCodeEcNS0_27FunctionIdentifierCodeGroupE
00000000006af660 T _ZN4llvm11ms_demangle9Demangler15demangleMD5NameERNS_16itanium_demangle10StringViewE
00000000006af8b0 T _ZN4llvm11ms_demangle9Demangler14demangleNumberERNS_16itanium_demangle10StringViewE
00000000006af980 T _ZN4llvm11ms_demangle9Demangler16demangleUnsignedERNS_16itanium_demangle10StringViewE
00000000006af9a0 T _ZN4llvm11ms_demangle9Demangler14demangleSignedERNS_16itanium_demangle10StringViewE
00000000006af9d0 T _ZN4llvm11ms_demangle9Demangler14memorizeStringENS_16itanium_demangle10StringViewE
00000000006afe10 T _ZN4llvm11ms_demangle9Demangler19demangleBackRefNameERNS_16itanium_demangle10StringViewE
00000000006afe60 T _ZN4llvm11ms_demangle9Demangler18memorizeIdentifierEPNS0_14IdentifierNodeE
00000000006aff80 T _ZN4llvm11ms_demangle9Demangler19demangleCharLiteralERNS_16itanium_demangle10StringViewE
00000000006b0100 T _ZN4llvm11ms_demangle9Demangler20demangleWcharLiteralERNS_16itanium_demangle10StringViewE
00000000006b0160 T _ZN4llvm11ms_demangle9Demangler21demangleStringLiteralERNS_16itanium_demangle10StringViewE
00000000006b0ae0 T _ZN4llvm11ms_demangle9Demangler20demangleSimpleStringERNS_16itanium_demangle10StringViewEb
00000000006b0b60 T _ZN4llvm11ms_demangle9Demangler33demangleLiteralOperatorIdentifierERNS_16itanium_demangle10StringViewE
00000000006b0c70 T _ZN4llvm11ms_demangle9Demangler30demangleFunctionIdentifierCodeERNS_16itanium_demangle10StringViewENS0_27FunctionIdentifierCodeGroupE
00000000006b0e90 T _ZN4llvm11ms_demangle9Demangler30demangleFunctionIdentifierCodeERNS_16itanium_demangle10StringViewE
00000000006b0f20 T _ZN4llvm11ms_demangle9Demangler18demangleSimpleNameERNS_16itanium_demangle10StringViewEb
00000000006b1010 T _ZN4llvm11ms_demangle9Demangler30demangleAnonymousNamespaceNameERNS_16itanium_demangle10StringViewE
00000000006b11a0 T _ZN4llvm11ms_demangle9Demangler21demangleFunctionClassERNS_16itanium_demangle10StringViewE
00000000006b1430 T _ZN4llvm11ms_demangle9Demangler25demangleCallingConventionERNS_16itanium_demangle10StringViewE
00000000006b1480 T _ZN4llvm11ms_demangle9Demangler28demangleVariableStorageClassERNS_16itanium_demangle10StringViewE
00000000006b14a0 T _ZN4llvm11ms_demangle9Demangler18demangleQualifiersERNS_16itanium_demangle10StringViewE
00000000006b1550 T _ZN4llvm11ms_demangle9Demangler26demangleThrowSpecificationERNS_16itanium_demangle10StringViewE
00000000006b15b0 T _ZN4llvm11ms_demangle9Demangler21demanglePrimitiveTypeERNS_16itanium_demangle10StringViewE
00000000006b2400 T _ZN4llvm11ms_demangle9Demangler28demanglePointerExtQualifiersERNS_16itanium_demangle10StringViewE
00000000006b24b0 T _ZN4llvm11ms_demangle9Demangler18dumpBackReferencesEv
00000000006b2740 T _ZN4llvm11ms_demangle9Demangler29demangleTemplateParameterListERNS_16itanium_demangle10StringViewE
00000000006b2f60 T _ZN4llvm11ms_demangle9Demangler33demangleTemplateInstantiationNameERNS_16itanium_demangle10StringViewENS0_19NameBackrefBehaviorE
00000000006b33b0 T _ZN4llvm11ms_demangle9Demangler27demangleUnqualifiedTypeNameERNS_16itanium_demangle10StringViewEb
00000000006b3400 T _ZN4llvm11ms_demangle9Demangler18demangleCustomTypeERNS_16itanium_demangle10StringViewE
00000000006b3530 T _ZN4llvm11ms_demangle9Demangler29demangleUnqualifiedSymbolNameERNS_16itanium_demangle10StringViewENS0_19NameBackrefBehaviorE
00000000006b35a0 T _ZN4llvm11ms_demangle9Demangler32demangleFullyQualifiedSymbolNameERNS_16itanium_demangle10StringViewE
00000000006b3620 T _ZN4llvm11ms_demangle9Demangler18demangleDeclaratorERNS_16itanium_demangle10StringViewE
00000000006b3690 T _ZN4llvm11ms_demangle9Demangler20demangleInitFiniStubERNS_16itanium_demangle10StringViewEb
00000000006b3850 T _ZN4llvm11ms_demangle9Demangler24demangleSpecialIntrinsicERNS_16itanium_demangle10StringViewE
00000000006b3da0 T _ZN4llvm11ms_demangle9Demangler5parseERNS_16itanium_demangle10StringViewE
00000000006b3e40 T _ZN4llvm11ms_demangle9Demangler30demangleLocallyScopedNamePieceERNS_16itanium_demangle10StringViewE
00000000006b4320 T _ZN4llvm11ms_demangle9Demangler22demangleNameScopePieceERNS_16itanium_demangle10StringViewE
00000000006b44a0 T _ZN4llvm11ms_demangle9Demangler22demangleNameScopeChainERNS_16itanium_demangle10StringViewEPNS0_14IdentifierNodeE
00000000006b4750 T _ZN4llvm11ms_demangle9Demangler24demangleLocalStaticGuardERNS_16itanium_demangle10StringViewEb
00000000006b4970 T _ZN4llvm11ms_demangle9Demangler23demangleUntypedVariableERNS0_14ArenaAllocatorERNS_16itanium_demangle10StringViewES5_
00000000006b4b50 T _ZN4llvm11ms_demangle9Demangler35demangleRttiBaseClassDescriptorNodeERNS0_14ArenaAllocatorERNS_16itanium_demangle10StringViewE
00000000006b4d60 T _ZN4llvm11ms_demangle9Demangler22demangleVcallThunkNodeERNS_16itanium_demangle10StringViewE
00000000006b50c0 T _ZN4llvm11ms_demangle9Demangler30demangleFullyQualifiedTypeNameERNS_16itanium_demangle10StringViewE
00000000006b5110 T _ZN4llvm11ms_demangle9Demangler30demangleSpecialTableSymbolNodeERNS_16itanium_demangle10StringViewENS0_20SpecialIntrinsicKindE
00000000006b53d0 T _ZN4llvm11ms_demangle9Demangler17demangleClassTypeERNS_16itanium_demangle10StringViewE
00000000006b5840 T _ZN4llvm11ms_demangle9Demangler18parseTagUniqueNameERNS_16itanium_demangle10StringViewE
00000000006b58b0 T _ZN4llvm11ms_demangle9Demangler25demangleMemberPointerTypeERNS_16itanium_demangle10StringViewE
00000000006b5a40 T _ZN4llvm11ms_demangle9Demangler12demangleTypeERNS_16itanium_demangle10StringViewENS0_19QualifierMangleModeE
00000000006b5d40 T _ZN4llvm11ms_demangle9Demangler20demangleTypeinfoNameERNS_16itanium_demangle10StringViewE
00000000006b5f90 T _ZN4llvm11ms_demangle9Demangler24demangleVariableEncodingERNS_16itanium_demangle10StringViewENS0_12StorageClassE
00000000006b6100 T _ZN4llvm11ms_demangle9Demangler17demangleArrayTypeERNS_16itanium_demangle10StringViewE
00000000006b64d0 T _ZN4llvm11ms_demangle9Demangler29demangleFunctionParameterListERNS_16itanium_demangle10StringViewERb
00000000006b6860 T _ZN4llvm11ms_demangle9Demangler20demangleFunctionTypeERNS_16itanium_demangle10StringViewEb
00000000006b6a50 T _ZN4llvm11ms_demangle9Demangler24demangleFunctionEncodingERNS_16itanium_demangle10StringViewE
00000000006b6f40 T _ZN4llvm11ms_demangle9Demangler21demangleEncodedSymbolERNS_16itanium_demangle10StringViewEPNS0_17QualifiedNameNodeE
00000000006b6fe0 T _ZN4llvm11ms_demangle9Demangler19demanglePointerTypeERNS_16itanium_demangle10StringViewE
00000000006b7130 T _ZN4llvm17microsoftDemangleEPKcPcPmPiNS_15MSDemangleFlagsE
00000000006b7490 T _ZNK4llvm11ms_demangle14CustomTypeNode10outputPostERNS_16itanium_demangle12OutputStreamENS0_11OutputFlagsE
00000000006b74a0 T _ZNK4llvm11ms_demangle14CustomTypeNode9outputPreERNS_16itanium_demangle12OutputStreamENS0_11OutputFlagsE
00000000006b77d0 T _ZNK4llvm11ms_demangle18IntegerLiteralNode6outputERNS_16itanium_demangle12OutputStreamENS0_11OutputFlagsE
00000000006b79a0 T _ZNK4llvm11ms_demangle24VcallThunkIdentifierNode6outputERNS_16itanium_demangle12OutputStreamENS0_11OutputFlagsE
00000000006b7be0 T _ZNK4llvm11ms_demangle15PointerTypeNode10outputPostERNS_16itanium_demangle12OutputStreamENS0_11OutputFlagsE
00000000006b7c80 T _ZNK4llvm11ms_demangle30LocalStaticGuardIdentifierNode6outputERNS_16itanium_demangle12OutputStreamENS0_11OutputFlagsE
00000000006b7fa0 T _ZNK4llvm11ms_demangle27RttiBaseClassDescriptorNode6outputERNS_16itanium_demangle12OutputStreamENS0_11OutputFlagsE
00000000006b8790 T _ZNK4llvm11ms_demangle24EncodedStringLiteralNode6outputERNS_16itanium_demangle12OutputStreamENS0_11OutputFlagsE
00000000006b8e30 T _ZNK4llvm11ms_demangle30TemplateParameterReferenceNode6outputERNS_16itanium_demangle12OutputStreamENS0_11OutputFlagsE
00000000006b9980 T _ZNK4llvm11ms_demangle21FunctionSignatureNode9outputPreERNS_16itanium_demangle12OutputStreamENS0_11OutputFlagsE
00000000006b9d70 T _ZNK4llvm11ms_demangle18ThunkSignatureNode9outputPreERNS_16itanium_demangle12OutputStreamENS0_11OutputFlagsE
00000000006b9e00 T _ZNK4llvm11ms_demangle13ArrayTypeNode9outputPreERNS_16itanium_demangle12OutputStreamENS0_11OutputFlagsE
00000000006ba0b0 T _ZNK4llvm11ms_demangle17PrimitiveTypeNode9outputPreERNS_16itanium_demangle12OutputStreamENS0_11OutputFlagsE
00000000006bac20 T _ZNK4llvm11ms_demangle4Node8toStringB5cxx11ENS0_11OutputFlagsE
00000000006badd0 T _ZNK4llvm11ms_demangle13NodeArrayNode6outputERNS_16itanium_demangle12OutputStreamENS0_11OutputFlagsENS2_10StringViewE
00000000006baf00 T _ZNK4llvm11ms_demangle13NodeArrayNode6outputERNS_16itanium_demangle12OutputStreamENS0_11OutputFlagsE
00000000006baf20 T _ZNK4llvm11ms_demangle17QualifiedNameNode6outputERNS_16itanium_demangle12OutputStreamENS0_11OutputFlagsE
00000000006baf40 T _ZNK4llvm11ms_demangle21FunctionSignatureNode10outputPostERNS_16itanium_demangle12OutputStreamENS0_11OutputFlagsE
00000000006bb560 T _ZNK4llvm11ms_demangle18ThunkSignatureNode10outputPostERNS_16itanium_demangle12OutputStreamENS0_11OutputFlagsE
00000000006bc3a0 T _ZNK4llvm11ms_demangle10SymbolNode6outputERNS_16itanium_demangle12OutputStreamENS0_11OutputFlagsE
00000000006bc3e0 T _ZNK4llvm11ms_demangle28LocalStaticGuardVariableNode6outputERNS_16itanium_demangle12OutputStreamENS0_11OutputFlagsE
00000000006bc420 T _ZNK4llvm11ms_demangle18FunctionSymbolNode6outputERNS_16itanium_demangle12OutputStreamENS0_11OutputFlagsE
00000000006bc530 T _ZNK4llvm11ms_demangle22SpecialTableSymbolNode6outputERNS_16itanium_demangle12OutputStreamENS0_11OutputFlagsE
00000000006bc6b0 T _ZNK4llvm11ms_demangle11TagTypeNode9outputPreERNS_16itanium_demangle12OutputStreamENS0_11OutputFlagsE
00000000006bc950 T _ZNK4llvm11ms_demangle18VariableSymbolNode6outputERNS_16itanium_demangle12OutputStreamENS0_11OutputFlagsE
00000000006bcce0 T _ZNK4llvm11ms_demangle15PointerTypeNode9outputPreERNS_16itanium_demangle12OutputStreamENS0_11OutputFlagsE
00000000006bd1d0 T _ZNK4llvm11ms_demangle29DynamicStructorIdentifierNode6outputERNS_16itanium_demangle12OutputStreamENS0_11OutputFlagsE
00000000006bd4c0 T _ZNK4llvm11ms_demangle14IdentifierNode24outputTemplateParametersERNS_16itanium_demangle12OutputStreamENS0_11OutputFlagsE
00000000006bd5e0 T _ZNK4llvm11ms_demangle19NamedIdentifierNode6outputERNS_16itanium_demangle12OutputStreamENS0_11OutputFlagsE
00000000006bd680 T _ZNK4llvm11ms_demangle31IntrinsicFunctionIdentifierNode6outputERNS_16itanium_demangle12OutputStreamENS0_11OutputFlagsE
00000000006bf3b0 T _ZNK4llvm11ms_demangle32ConversionOperatorIdentifierNode6outputERNS_16itanium_demangle12OutputStreamENS0_11OutputFlagsE
00000000006bf4b0 T _ZNK4llvm11ms_demangle22StructorIdentifierNode6outputERNS_16itanium_demangle12OutputStreamENS0_11OutputFlagsE
00000000006bf550 T _ZNK4llvm11ms_demangle29LiteralOperatorIdentifierNode6outputERNS_16itanium_demangle12OutputStreamENS0_11OutputFlagsE
00000000006bf670 T _ZNK4llvm11ms_demangle13ArrayTypeNode18outputOneDimensionERNS_16itanium_demangle12OutputStreamENS0_11OutputFlagsEPNS0_4NodeE
00000000006bf870 T _ZNK4llvm11ms_demangle13ArrayTypeNode20outputDimensionsImplERNS_16itanium_demangle12OutputStreamENS0_11OutputFlagsE
00000000006bf950 T _ZNK4llvm11ms_demangle13ArrayTypeNode10outputPostERNS_16itanium_demangle12OutputStreamENS0_11OutputFlagsE
00000000006bfa50 T _ZN4llvm7AArch6413getDefaultFPUENS_9StringRefENS0_8ArchKindE
00000000006c0270 T _ZN4llvm7AArch6420getDefaultExtensionsENS_9StringRefENS0_8ArchKindE
00000000006c0b20 T _ZN4llvm7AArch6414getCPUArchKindENS_9StringRefE
00000000006c1390 T _ZN4llvm7AArch6411getArchNameENS0_8ArchKindE
00000000006c13b0 T _ZN4llvm7AArch6410getCPUAttrENS0_8ArchKindE
00000000006c13d0 T _ZN4llvm7AArch6410getSubArchENS0_8ArchKindE
00000000006c13f0 T _ZN4llvm7AArch6411getArchAttrENS0_8ArchKindE
00000000006c1410 T _ZN4llvm7AArch6414getArchExtNameEj
00000000006c1460 T _ZN4llvm7AArch6417getArchExtFeatureENS_9StringRefE
00000000006c1570 T _ZN4llvm7AArch6420fillValidCPUArchListERNS_15SmallVectorImplINS_9StringRefEEE
00000000006c1610 T _ZN4llvm7AArch6422isX18ReservedByDefaultERKNS_6TripleE
00000000006c1640 T _ZN4llvm7AArch649parseArchENS_9StringRefE
00000000006c17b0 T _ZN4llvm7AArch6413getDefaultCPUENS_9StringRefE
00000000006c1820 T _ZN4llvm7AArch6412parseArchExtENS_9StringRefE
00000000006c1890 T _ZN4llvm7AArch6412parseCPUArchENS_9StringRefE
00000000006c1900 T _ZN4llvm7AArch6421parseBranchProtectionENS_9StringRefERNS0_22ParsedBranchProtectionERS1_
00000000006c1ce0 w _ZNSt6vectorIN4llvm9StringRefESaIS1_EE17_M_realloc_insertIJS1_EEEvN9__gnu_cxx17__normal_iteratorIPS1_S3_EEDpOT_
00000000006c1e70 T _ZN4llvm7AArch6415getArchFeaturesENS0_8ArchKindERSt6vectorINS_9StringRefESaIS3_EE
00000000006c1f40 T _ZN4llvm7AArch6420getExtensionFeaturesEjRSt6vectorINS_9StringRefESaIS2_EE
00000000006c26a0 T _ZN4llvm3ARM14getArchSynonymENS_9StringRefE
00000000006c2dd0 T _ZN4llvm3ARM15parseArchEndianENS_9StringRefE
00000000006c2f90 T _ZN4llvm3ARM12parseArchISAENS_9StringRefE
00000000006c3010 T _ZN4llvm3ARM22getFPUNeonSupportLevelEj
00000000006c3030 T _ZN4llvm3ARM20getCanonicalArchNameENS_9StringRefE
00000000006c3420 T _ZN4llvm3ARM9parseArchENS_9StringRefE
00000000006c34b0 T _ZN4llvm3ARM16parseArchVersionENS_9StringRefE
00000000006c34e0 T _ZN4llvm3ARM16parseArchProfileENS_9StringRefE
00000000006c3510 T _ZN4llvm3ARM13getFPUSynonymENS_9StringRefE
00000000006c3930 T _ZN4llvm3ARM8parseFPUENS_9StringRefE
00000000006c39a0 T _ZN4llvm3ARM10getFPUNameEj
00000000006c39d0 T _ZN4llvm3ARM13getFPUVersionEj
00000000006c39f0 T _ZN4llvm3ARM17getFPURestrictionEj
00000000006c3a10 T _ZN4llvm3ARM13getDefaultFPUENS_9StringRefENS0_8ArchKindE
00000000006c4f50 T _ZN4llvm3ARM20getDefaultExtensionsENS_9StringRefENS0_8ArchKindE
00000000006c64b0 T _ZN4llvm3ARM11getArchNameENS0_8ArchKindE
00000000006c64d0 T _ZN4llvm3ARM10getCPUAttrENS0_8ArchKindE
00000000006c64f0 T _ZN4llvm3ARM10getSubArchENS0_8ArchKindE
00000000006c6510 T _ZN4llvm3ARM11getArchAttrENS0_8ArchKindE
00000000006c6530 T _ZN4llvm3ARM14getArchExtNameEj
00000000006c6580 T _ZN4llvm3ARM17getArchExtFeatureENS_9StringRefE
00000000006c66a0 T _ZN4llvm3ARM12getHWDivNameEj
00000000006c6710 T _ZN4llvm3ARM13getDefaultCPUENS_9StringRefE
00000000006c6780 T _ZN4llvm3ARM10parseHWDivENS_9StringRefE
00000000006c6840 T _ZN4llvm3ARM12parseArchExtENS_9StringRefE
00000000006c68b0 T _ZN4llvm3ARM12parseCPUArchENS_9StringRefE
00000000006c6920 T _ZN4llvm3ARM20fillValidCPUArchListERNS_15SmallVectorImplINS_9StringRefEEE
00000000006c69c0 T _ZN4llvm3ARM23computeDefaultTargetABIERKNS_6TripleENS_9StringRefE
00000000006c6ac0 T _ZN4llvm3ARM14getFPUFeaturesEjRSt6vectorINS_9StringRefESaIS2_EE
00000000006c6d40 T _ZN4llvm3ARM21appendArchExtFeaturesENS_9StringRefENS0_8ArchKindES1_RSt6vectorIS1_SaIS1_EE
00000000006c70e0 T _ZN4llvm3ARM16getHWDivFeaturesEjRSt6vectorINS_9StringRefESaIS2_EE
00000000006c7220 T _ZN4llvm3ARM20getExtensionFeaturesEjRSt6vectorINS_9StringRefESaIS2_EE
00000000006c7690 w _ZNSt6vectorINSt7__cxx1112basic_stringIcSt11char_traitsIcESaIcEEESaIS5_EEaSERKS7_
00000000006c7dd0 w _ZN4llvm4yaml7yamlizeINSt7__cxx1112basic_stringIcSt11char_traitsIcESaIcEEEEENSt9enable_ifIXsrNS0_16has_ScalarTraitsIT_EE5valueEvE4typeERNS0_2IOERSA_bRNS0_12EmptyContextE
00000000006c81a0 w _ZNSt6vectorIjSaIjEEaSERKS1_
00000000006c82f0 w _ZN4llvm4yaml7yamlizeINS_6AMDGPU5HSAMD15AccessQualifierEEENSt9enable_ifIXsrNS0_27has_ScalarEnumerationTraitsIT_EE5valueEvE4typeERNS0_2IOERS7_bRNS0_12EmptyContextE
00000000006c9460 w _ZN4llvm4yaml7yamlizeItEENSt9enable_ifIXsrNS0_16has_ScalarTraitsIT_EE5valueEvE4typeERNS0_2IOERS4_bRNS0_12EmptyContextE
00000000006c9620 w _ZNSt6vectorIjSaIjEE17_M_default_appendEm
00000000006c9750 w _ZN4llvm4yaml7yamlizeISt6vectorIjSaIjEENS0_12EmptyContextEEENSt9enable_ifIXsrNS0_18has_SequenceTraitsIT_EE5valueEvE4typeERNS0_2IOERS8_bRT0_
00000000006c9880 w _ZNSt6vectorIN4llvm6AMDGPU5HSAMD6Kernel3Arg8MetadataESaIS5_EE17_M_default_appendEm
00000000006c9b70 w _ZN4llvm4yaml7yamlizeISt6vectorINS_6AMDGPU5HSAMD6Kernel3Arg8MetadataESaIS7_EENS0_12EmptyContextEEENSt9enable_ifIXsrNS0_18has_SequenceTraitsIT_EE5valueEvE4typeERNS0_2IOERSD_bRT0_
00000000006caf30 w _ZNSt6vectorINSt7__cxx1112basic_stringIcSt11char_traitsIcESaIcEEESaIS5_EE17_M_default_appendEm
00000000006cb0e0 w _ZN4llvm4yaml7yamlizeISt6vectorINSt7__cxx1112basic_stringIcSt11char_traitsIcESaIcEEESaIS8_EENS0_12EmptyContextEEENSt9enable_ifIXsrNS0_18has_SequenceTraitsIT_EE5valueEvE4typeERNS0_2IOERSE_bRT0_
00000000006cb260 w _ZNSt6vectorIN4llvm6AMDGPU5HSAMD6Kernel8MetadataESaIS4_EE17_M_default_appendEm
00000000006cb940 w _ZN4llvm4yaml7yamlizeISt6vectorINS_6AMDGPU5HSAMD6Kernel8MetadataESaIS6_EENS0_12EmptyContextEEENSt9enable_ifIXsrNS0_18has_SequenceTraitsIT_EE5valueEvE4typeERNS0_2IOERSC_bRT0_
00000000006cbc40 T _ZN4llvm6AMDGPU5HSAMD8toStringENS1_8MetadataERNSt7__cxx1112basic_stringIcSt11char_traitsIcESaIcEEE
00000000006cbfa0 T _ZN4llvm6AMDGPU5HSAMD10fromStringENSt7__cxx1112basic_stringIcSt11char_traitsIcESaIcEEERNS1_8MetadataE
00000000006cc460 T _ZN4llvm11APFloatBase8IEEEhalfEv
00000000006cc470 T _ZN4llvm11APFloatBase10IEEEsingleEv
00000000006cc480 T _ZN4llvm11APFloatBase10IEEEdoubleEv
00000000006cc490 T _ZN4llvm11APFloatBase8IEEEquadEv
00000000006cc4a0 T _ZN4llvm11APFloatBase17x87DoubleExtendedEv
00000000006cc4b0 T _ZN4llvm11APFloatBase5BogusEv
00000000006cc4c0 T _ZN4llvm11APFloatBase15PPCDoubleDoubleEv
00000000006cc4d0 T _ZN4llvm11APFloatBase15EnumToSemanticsENS0_9SemanticsE
00000000006cc520 T _ZN4llvm11APFloatBase15SemanticsToEnumERKNS_12fltSemanticsE
00000000006cc5a0 T _ZN4llvm11APFloatBase18semanticsPrecisionERKNS_12fltSemanticsE
00000000006cc5b0 T _ZN4llvm11APFloatBase20semanticsMaxExponentERKNS_12fltSemanticsE
00000000006cc5c0 T _ZN4llvm11APFloatBase20semanticsMinExponentERKNS_12fltSemanticsE
00000000006cc5d0 T _ZN4llvm11APFloatBase19semanticsSizeInBitsERKNS_12fltSemanticsE
00000000006cc5e0 T _ZN4llvm11APFloatBase13getSizeInBitsERKNS_12fltSemanticsE
00000000006cc5f0 T _ZNK4llvm6detail9IEEEFloat9partCountEv
00000000006cc610 T _ZN4llvm6detail9IEEEFloat10initializeEPKNS_12fltSemanticsE
00000000006cc650 T _ZN4llvm6detail9IEEEFloatC2ERKNS_12fltSemanticsE
00000000006cc670 T _ZN4llvm6detail9IEEEFloatC1ERKNS_12fltSemanticsENS_11APFloatBase16uninitializedTagE
00000000006cc680 T _ZN4llvm6detail9IEEEFloat15freeSignificandEv
00000000006cc6b0 T _ZN4llvm6detail9IEEEFloataSEOS1_
00000000006cc720 T _ZN4llvm6detail9IEEEFloatC1EOS1_
00000000006cc740 T _ZN4llvm6detail9IEEEFloatD1Ev
00000000006cc820 T _ZN4llvm6detail9IEEEFloat16significandPartsEv
00000000006cc840 T _ZNK4llvm6detail9IEEEFloat16significandPartsEv
00000000006cc850 T _ZNK4llvm6detail9IEEEFloat10isDenormalEv
00000000006cc8a0 T _ZNK4llvm6detail9IEEEFloat20isSignificandAllOnesEv
00000000006cc920 T _ZNK4llvm6detail9IEEEFloat9isLargestEv
00000000006cc950 T _ZNK4llvm6detail9IEEEFloat21isSignificandAllZerosEv
00000000006cc9d0 T _ZNK4llvm6detail9IEEEFloat14bitwiseIsEqualERKS1_
00000000006ccaa0 T _ZN4llvm6detail9IEEEFloat15copySignificandERKS1_
00000000006ccae0 T _ZN4llvm6detail9IEEEFloat6assignERKS1_
00000000006ccb30 T _ZN4llvm6detail9IEEEFloataSERKS1_
00000000006ccb80 T _ZN4llvm6detail9IEEEFloatC1ERKS1_
00000000006ccbb0 T _ZN4llvm6detail9IEEEFloat7makeNaNEbbPKNS_5APIntE
00000000006ccd20 T _ZN4llvm6detail9IEEEFloat15zeroSignificandEv
00000000006ccd60 T _ZN4llvm6detail9IEEEFloat20incrementSignificandEv
00000000006ccda0 T _ZN4llvm6detail9IEEEFloat14addSignificandERKS1_
00000000006ccdf0 T _ZN4llvm6detail9IEEEFloat19subtractSignificandERKS1_m
00000000006cce40 T _ZN4llvm6detail9IEEEFloat17divideSignificandERKS1_
00000000006cd160 T _ZNK4llvm6detail9IEEEFloat14significandMSBEv
00000000006cd190 T _ZNK4llvm6detail9IEEEFloat10isSmallestEv
00000000006cd1d0 T _ZNK4llvm6detail9IEEEFloat14significandLSBEv
00000000006cd200 T _ZN4llvm6detail9IEEEFloat21shiftSignificandRightEj
00000000006cd2a0 T _ZN4llvm6detail9IEEEFloat20shiftSignificandLeftEj
00000000006cd2e0 T _ZNK4llvm6detail9IEEEFloat20compareAbsoluteValueERKS1_
00000000006cd350 T _ZN4llvm6detail9IEEEFloat14handleOverflowENS_11APFloatBase12roundingModeE
00000000006cd3e0 T _ZNK4llvm6detail9IEEEFloat17roundAwayFromZeroENS_11APFloatBase12roundingModeENS_12lostFractionEj
00000000006cd490 T _ZN4llvm6detail9IEEEFloat9normalizeENS_11APFloatBase12roundingModeENS_12lostFractionE
00000000006cd700 T _ZN4llvm6detail9IEEEFloatC2ERKNS_12fltSemanticsEm
00000000006cd750 T _ZN4llvm6detail9IEEEFloat21addOrSubtractSpecialsERKS1_b
00000000006cd870 T _ZN4llvm6detail9IEEEFloat24addOrSubtractSignificandERKS1_b
00000000006cda30 T _ZN4llvm6detail9IEEEFloat16multiplySpecialsERKS1_
00000000006cdae0 T _ZN4llvm6detail9IEEEFloat14divideSpecialsERKS1_
00000000006cdba0 T _ZN4llvm6detail9IEEEFloat11modSpecialsERKS1_
00000000006cdc20 T _ZN4llvm6detail9IEEEFloat10changeSignEv
00000000006cdc40 T _ZN4llvm6detail9IEEEFloat13addOrSubtractERKS1_NS_11APFloatBase12roundingModeEb
00000000006cdcf0 T _ZN4llvm6detail9IEEEFloat3addERKS1_NS_11APFloatBase12roundingModeE
00000000006cdd00 T _ZN4llvm6detail9IEEEFloat8subtractERKS1_NS_11APFloatBase12roundingModeE
00000000006cdd10 T _ZN4llvm6detail9IEEEFloat6divideERKS1_NS_11APFloatBase12roundingModeE
00000000006cdd90 T _ZNK4llvm6detail9IEEEFloat7compareERKS1_
00000000006cde30 T _ZN4llvm6detail9IEEEFloat7convertERKNS_12fltSemanticsENS_11APFloatBase12roundingModeEPb
00000000006ce240 T _ZN4llvm6detail9IEEEFloat19multiplySignificandERKS1_S1_
00000000006ce5f0 T _ZN4llvm6detail9IEEEFloat19multiplySignificandERKS1_
00000000006ce660 T _ZN4llvm6detail9IEEEFloat8multiplyERKS1_NS_11APFloatBase12roundingModeE
00000000006ce6e0 T _ZN4llvm6detail9IEEEFloat16fusedMultiplyAddERKS1_S3_NS_11APFloatBase12roundingModeE
00000000006ce820 T _ZNK4llvm6detail9IEEEFloat28convertToSignExtendedIntegerENS_15MutableArrayRefImEEjbNS_11APFloatBase12roundingModeEPb
00000000006ceab0 T _ZNK4llvm6detail9IEEEFloat16convertToIntegerENS_15MutableArrayRefImEEjbNS_11APFloatBase12roundingModeEPb
00000000006ceb50 T _ZN4llvm6detail9IEEEFloat24convertFromUnsignedPartsEPKmjNS_11APFloatBase12roundingModeE
00000000006cecb0 T _ZN4llvm6detail9IEEEFloat16convertFromAPIntERKNS_5APIntEbNS_11APFloatBase12roundingModeE
00000000006ceeb0 T _ZN4llvm6detail9IEEEFloat15roundToIntegralENS_11APFloatBase12roundingModeE
00000000006cf0c0 T _ZNK4llvm6detail9IEEEFloat9isIntegerEv
00000000006cf150 T _ZN4llvm6detail9IEEEFloat30convertFromSignExtendedIntegerEPKmjbNS_11APFloatBase12roundingModeE
00000000006cf200 T _ZN4llvm6detail9IEEEFloat30convertFromZeroExtendedIntegerEPKmjbNS_11APFloatBase12roundingModeE
00000000006cf3b0 T _ZN4llvm6detail9IEEEFloat9remainderERKS1_
00000000006cf520 T _ZNK4llvm6detail9IEEEFloat24convertNormalToHexStringEPcjbNS_11APFloatBase12roundingModeE
00000000006cfb70 T _ZNK4llvm6detail9IEEEFloat18convertToHexStringEPcjbNS_11APFloatBase12roundingModeE
00000000006cfcf0 T _ZNK4llvm6detail9IEEEFloat34convertF80LongDoubleAPFloatToAPIntEv
00000000006cfe00 T _ZNK4llvm6detail9IEEEFloat30convertQuadrupleAPFloatToAPIntEv
00000000006cff90 T _ZNK4llvm6detail9IEEEFloat27convertDoubleAPFloatToAPIntEv
00000000006d00a0 T _ZNK4llvm6detail9IEEEFloat36convertPPCDoubleDoubleAPFloatToAPIntEv
00000000006d0280 T _ZNK4llvm6detail9IEEEFloat26convertFloatAPFloatToAPIntEv
00000000006d0360 T _ZNK4llvm6detail9IEEEFloat25convertHalfAPFloatToAPIntEv
00000000006d0440 T _ZNK4llvm6detail9IEEEFloat14bitcastToAPIntEv
00000000006d0510 T _ZNK4llvm6detail9IEEEFloat14convertToFloatEv
00000000006d0590 T _ZNK4llvm6detail9IEEEFloat15convertToDoubleEv
00000000006d0610 T _ZN4llvm6detail9IEEEFloat26initFromF80LongDoubleAPIntERKNS_5APIntE
00000000006d0760 T _ZN4llvm6detail9IEEEFloat22initFromQuadrupleAPIntERKNS_5APIntE
00000000006d08d0 T _ZN4llvm6detail9IEEEFloat19initFromDoubleAPIntERKNS_5APIntE
00000000006d0a00 T _ZN4llvm6detail9IEEEFloat18initFromFloatAPIntERKNS_5APIntE
00000000006d0b20 T _ZN4llvm6detail9IEEEFloat17initFromHalfAPIntERKNS_5APIntE
00000000006d0c40 T _ZN4llvm6detail9IEEEFloat11makeLargestEb
00000000006d0cd0 T _ZN4llvm6detail9IEEEFloat12makeSmallestEb
00000000006d0d30 T _ZN4llvm6detail9IEEEFloat22makeSmallestNormalizedEb
00000000006d0da0 T _ZN4llvm6detail9IEEEFloatC2ERKNS_12fltSemanticsERKNS_5APIntE
00000000006d0db0 T _ZN4llvm6detail9IEEEFloat28initFromPPCDoubleDoubleAPIntERKNS_5APIntE
00000000006d0ed0 T _ZN4llvm6detail9IEEEFloat13initFromAPIntEPKNS_12fltSemanticsERKNS_5APIntE
00000000006d0f60 T _ZN4llvm6detail9IEEEFloatC2Ef
00000000006d0fd0 T _ZN4llvm6detail9IEEEFloatC2Ed
00000000006d1040 T _ZNK4llvm6detail9IEEEFloat11isSignalingEv
00000000006d1090 T _ZN4llvm6detail9IEEEFloat4nextEb
00000000006d1330 T _ZN4llvm6detail9IEEEFloat7makeInfEb
00000000006d1380 T _ZN4llvm6detail9IEEEFloat25convertFromStringSpecialsENS_9StringRefE
00000000006d14b0 T _ZN4llvm6detail9IEEEFloat8makeZeroEb
00000000006d1510 T _ZN4llvm6detail9IEEEFloat28roundSignificandWithExponentEPKmjiNS_11APFloatBase12roundingModeE
00000000006d1a90 T _ZN4llvm6detail9IEEEFloat9makeQuietEv
00000000006d1ab0 T _ZN4llvm6detail5ilogbERKNS0_9IEEEFloatE
00000000006d1b70 T _ZN4llvm6detail6scalbnENS0_9IEEEFloatEiNS_11APFloatBase12roundingModeE
00000000006d1be0 T _ZN4llvm6detail9IEEEFloat3modERKS1_
00000000006d1da0 T _ZN4llvm6detail5frexpERKNS0_9IEEEFloatERiNS_11APFloatBase12roundingModeE
00000000006d1ea0 T _ZN4llvm6detail13DoubleAPFloatC1ERKNS_12fltSemanticsE
00000000006d1f30 T _ZN4llvm6detail13DoubleAPFloatC1ERKNS_12fltSemanticsENS_11APFloatBase16uninitializedTagE
00000000006d1fd0 T _ZN4llvm6detail13DoubleAPFloatC1ERKNS_12fltSemanticsEm
00000000006d2070 T _ZN4llvm6detail13DoubleAPFloatC2ERKNS_12fltSemanticsERKNS_5APIntE
00000000006d21c0 T _ZN4llvm6detail13DoubleAPFloatC1ERKS1_
00000000006d22b0 T _ZN4llvm6detail13DoubleAPFloatC1EOS1_
00000000006d23a0 T _ZN4llvm6detail13DoubleAPFloatC2ERKNS_12fltSemanticsEONS_7APFloatES6_
00000000006d2450 T _ZN4llvm6detail13DoubleAPFloataSERKS1_
00000000006d2590 T _ZN4llvm6detail13DoubleAPFloat10changeSignEv
00000000006d2600 T _ZNK4llvm6detail13DoubleAPFloat20compareAbsoluteValueERKS1_
00000000006d2770 T _ZNK4llvm6detail13DoubleAPFloat11getCategoryEv
00000000006d27a0 T _ZNK4llvm6detail13DoubleAPFloat10isNegativeEv
00000000006d27d0 T _ZN4llvm6detail13DoubleAPFloat8makeZeroEb
00000000006d2890 T _ZN4llvm6detail13DoubleAPFloat7makeInfEb
00000000006d2910 T _ZN4llvm6detail13DoubleAPFloat11makeLargestEb
00000000006d2c40 T _ZN4llvm6detail13DoubleAPFloat12makeSmallestEb
00000000006d2cc0 T _ZN4llvm6detail13DoubleAPFloat22makeSmallestNormalizedEb
00000000006d2eb0 T _ZN4llvm6detail13DoubleAPFloat7makeNaNEbbPKNS_5APIntE
00000000006d2f50 T _ZN4llvm6detail13DoubleAPFloat14addWithSpecialERKS1_S3_RS1_NS_11APFloatBase12roundingModeE
00000000006d3280 T _ZN4llvm6detail13DoubleAPFloat3addERKS1_NS_11APFloatBase12roundingModeE
00000000006d32e0 T _ZN4llvm6detail13DoubleAPFloat8subtractERKS1_NS_11APFloatBase12roundingModeE
00000000006d3320 T _ZN4llvm6detail13DoubleAPFloat7addImplERKNS_7APFloatES4_S4_S4_NS_11APFloatBase12roundingModeE
00000000006d3a10 T _ZNK4llvm6detail13DoubleAPFloat7compareERKS1_
00000000006d3a80 T _ZNK4llvm6detail13DoubleAPFloat14bitwiseIsEqualERKS1_
00000000006d3b40 T _ZNK4llvm6detail13DoubleAPFloat14bitcastToAPIntEv
00000000006d3c40 T _ZN4llvm6detail13DoubleAPFloat15roundToIntegralENS_11APFloatBase12roundingModeE
00000000006d3dd0 T _ZN4llvm6detail13DoubleAPFloat9remainderERKS1_
00000000006d4010 T _ZN4llvm6detail13DoubleAPFloat3modERKS1_
00000000006d4250 T _ZN4llvm6detail13DoubleAPFloat6divideERKS1_NS_11APFloatBase12roundingModeE
00000000006d44c0 T _ZN4llvm6detail13DoubleAPFloat16fusedMultiplyAddERKS1_S3_NS_11APFloatBase12roundingModeE
00000000006d4d30 T _ZN4llvm6detail13DoubleAPFloat8multiplyERKS1_NS_11APFloatBase12roundingModeE
00000000006d4da0 T _ZN4llvm6detail13DoubleAPFloat4nextEb
00000000006d4f30 T _ZNK4llvm6detail13DoubleAPFloat16convertToIntegerENS_15MutableArrayRefImEEjbNS_11APFloatBase12roundingModeEPb
00000000006d5090 T _ZN4llvm6detail13DoubleAPFloat16convertFromAPIntERKNS_5APIntEbNS_11APFloatBase12roundingModeE
00000000006d5260 T _ZN4llvm6detail13DoubleAPFloat30convertFromSignExtendedIntegerEPKmjbNS_11APFloatBase12roundingModeE
00000000006d5430 T _ZN4llvm6detail13DoubleAPFloat30convertFromZeroExtendedIntegerEPKmjbNS_11APFloatBase12roundingModeE
00000000006d5600 T _ZNK4llvm6detail13DoubleAPFloat18convertToHexStringEPcjbNS_11APFloatBase12roundingModeE
00000000006d5720 T _ZNK4llvm6detail13DoubleAPFloat10isDenormalEv
00000000006d5860 T _ZNK4llvm6detail13DoubleAPFloat10isSmallestEv
00000000006d5910 T _ZNK4llvm6detail13DoubleAPFloat9isLargestEv
00000000006d59c0 T _ZNK4llvm6detail13DoubleAPFloat9isIntegerEv
00000000006d5a20 T _ZN4llvm7APFloat7StorageC2ENS_6detail9IEEEFloatERKNS_12fltSemanticsE
00000000006d5b70 T _ZNK4llvm6detail9IEEEFloat15getExactInverseEPNS_7APFloatE
00000000006d5cc0 T _ZNK4llvm6detail13DoubleAPFloat15getExactInverseEPNS_7APFloatE
00000000006d5fe0 T _ZN4llvm6detail6scalbnENS0_13DoubleAPFloatEiNS_11APFloatBase12roundingModeE
00000000006d6410 T _ZN4llvm6detail5frexpERKNS0_13DoubleAPFloatERiNS_11APFloatBase12roundingModeE
00000000006d68d0 T _ZN4llvm7APFloat7convertERKNS_12fltSemanticsENS_11APFloatBase12roundingModeEPb
00000000006d6b60 T _ZN4llvm7APFloat15getAllOnesValueEjb
00000000006d6d90 T _ZNK4llvm7APFloat7ProfileERNS_16FoldingSetNodeIDE
00000000006d6e20 T _ZNK4llvm7APFloat16convertToIntegerERNS_6APSIntENS_11APFloatBase12roundingModeEPb
00000000006d7010 T _ZN4llvm6detail9IEEEFloat24convertFromDecimalStringENS_9StringRefENS_11APFloatBase12roundingModeE
00000000006d7860 T _ZN4llvm6detail9IEEEFloat28convertFromHexadecimalStringENS_9StringRefENS_11APFloatBase12roundingModeE
00000000006d7ec0 T _ZN4llvm6detail9IEEEFloat17convertFromStringENS_9StringRefENS_11APFloatBase12roundingModeE
00000000006d8080 T _ZN4llvm7APFloat17convertFromStringENS_9StringRefENS_11APFloatBase12roundingModeE
00000000006d8100 T _ZN4llvm6detail13DoubleAPFloat17convertFromStringENS_9StringRefENS_11APFloatBase12roundingModeE
00000000006d8340 T _ZNK4llvm6detail9IEEEFloat8toStringERNS_15SmallVectorImplIcEEjjb
00000000006d93a0 T _ZNK4llvm6detail13DoubleAPFloat8toStringERNS_15SmallVectorImplIcEEjjb
00000000006d94b0 T _ZNK4llvm7APFloat5printERNS_11raw_ostreamE
00000000006d9590 w _ZNSt3_V28__rotateIPcEET_S2_S2_S2_St26random_access_iterator_tag
00000000006d9b40 w _ZN4llvm12hash_combineIJPKNS_12fltSemanticsEEEENS_9hash_codeEDpRKT_
00000000006d9c00 w _ZN4llvm12hash_combineIJhhjiNS_9hash_codeEEEES1_DpRKT_
00000000006d9db0 w _ZN4llvm7hashing6detail23hash_combine_range_implIKmEENSt9enable_ifIXsrNS1_16is_hashable_dataIT_EE5valueENS_9hash_codeEE4typeEPS6_SB_
00000000006da480 T _ZN4llvm6detail10hash_valueERKNS0_9IEEEFloatE
00000000006da650 T _ZN4llvm10hash_valueERKNS_7APFloatE
00000000006da680 T _ZN4llvm6detail10hash_valueERKNS0_13DoubleAPFloatE
00000000006dae10 T _ZN4llvm7APFloatC2ERKNS_12fltSemanticsENS_9StringRefE
00000000006daf60 T _ZN4llvm5APInt12initSlowCaseEmb
00000000006db050 T _ZN4llvm5APInt12initSlowCaseERKS0_
00000000006db0a0 T _ZN4llvm5APInt13initFromArrayENS_8ArrayRefImEE
00000000006db170 T _ZN4llvm5APIntC1EjNS_8ArrayRefImEE
00000000006db190 T _ZN4llvm5APIntC1EjjPKm
00000000006db1b0 T _ZN4llvm5APInt10reallocateEj
00000000006db230 T _ZN4llvm5APInt14AssignSlowCaseERKS0_
00000000006db2a0 T _ZNK4llvm5APInt7ProfileERNS_16FoldingSetNodeIDE
00000000006db320 T _ZNK4llvm5APInt13EqualSlowCaseERKS0_
00000000006db360 T _ZN4llvm5APInt15setBitsSlowCaseEjj
00000000006db3f0 T _ZN4llvm5APInt7flipBitEj
00000000006db450 T _ZN4llvm5APInt10insertBitsERKS0_j
00000000006db6b0 T _ZN4llvm5APInt10insertBitsEmjj
00000000006db790 T _ZNK4llvm5APInt11extractBitsEjj
00000000006dba70 T _ZNK4llvm5APInt22extractBitsAsZExtValueEjj
00000000006dbaf0 T _ZNK4llvm5APInt25countLeadingZerosSlowCaseEv
00000000006dbb60 T _ZNK4llvm5APInt24countLeadingOnesSlowCaseEv
00000000006dbc00 T _ZNK4llvm5APInt26countTrailingZerosSlowCaseEv
00000000006dbc60 T _ZNK4llvm5APInt25countTrailingOnesSlowCaseEv
00000000006dbcc0 T _ZNK4llvm5APInt23countPopulationSlowCaseEv
00000000006dbd20 T _ZNK4llvm5APInt18intersectsSlowCaseERKS0_
00000000006dbd70 T _ZNK4llvm5APInt18isSubsetOfSlowCaseERKS0_
00000000006dbdc0 T _ZNK4llvm5APInt5truncEj
00000000006dbed0 T _ZNK4llvm5APInt9truncUSatEj
00000000006dbfa0 T _ZNK4llvm5APInt9truncSSatEj
00000000006dc170 T _ZNK4llvm5APInt4sextEj
00000000006dc2b0 T _ZNK4llvm5APInt4zextEj
00000000006dc370 T _ZNK4llvm5APInt11zextOrTruncEj
00000000006dc3f0 T _ZNK4llvm5APInt11sextOrTruncEj
00000000006dc470 T _ZNK4llvm5APInt10zextOrSelfEj
00000000006dc4e0 T _ZNK4llvm5APInt10sextOrSelfEj
00000000006dc550 T _ZN4llvm5APInt12ashrSlowCaseEj
00000000006dc710 T _ZN4llvm5APInt11ashrInPlaceERKS0_
00000000006dc7e0 T _ZN4llvm5APInt6divideEPKmjS2_jPmS3_
00000000006dd200 T _ZNK4llvm5APInt4udivEm
00000000006dd380 T _ZNK4llvm5APInt4uremEm
00000000006dd460 T _ZN4llvm5APInt7udivremERKS0_mRS0_Rm
00000000006dd6d0 T _ZN4llvm5APInt5tcSetEPmmj
00000000006dd700 T _ZN4llvm5APInt8tcAssignEPmPKmj
00000000006dd780 T _ZN4llvm5APInt8tcIsZeroEPKmj
00000000006dd7c0 T _ZN4llvm5APInt12tcExtractBitEPKmj
00000000006dd7e0 T _ZN4llvm5APInt8tcSetBitEPmj
00000000006dd800 T _ZN4llvm5APInt10tcClearBitEPmj
00000000006dd820 T _ZN4llvm5APInt5tcLSBEPKmj
00000000006dd860 T _ZN4llvm5APInt5tcMSBEPKmj
00000000006dd8a0 T _ZN4llvm5APInt5tcAddEPmPKmmj
00000000006dd900 T _ZN4llvm5APIntpLERKS0_
00000000006dd990 T _ZNK4llvm5APInt7sadd_ovERKS0_Rb
00000000006ddac0 T _ZNK4llvm5APInt8sadd_satERKS0_
00000000006ddc20 T _ZN4llvm5APInt9tcAddPartEPmmj
00000000006ddc70 T _ZN4llvm5APIntppEv
00000000006ddcf0 T _ZN4llvm5APIntpLEm
00000000006ddd70 T _ZN4llvm5APInt10tcSubtractEPmPKmmj
00000000006dddd0 T _ZN4llvm5APIntmIERKS0_
00000000006dde60 T _ZNK4llvm5APInt7ssub_ovERKS0_Rb
00000000006ddf80 T _ZNK4llvm5APInt8ssub_satERKS0_
00000000006de0e0 T _ZN4llvm5APInt14tcSubtractPartEPmmj
00000000006de130 T _ZN4llvm5APIntmmEv
00000000006de1b0 T _ZN4llvm5APIntmIEm
00000000006de230 T _ZN4llvm5APInt14tcMultiplyPartEPmPKmmmjjb
00000000006de430 T _ZN4llvm5APIntmLEm
00000000006de4d0 T _ZN4llvm5APInt10tcMultiplyEPmPKmS3_j
00000000006de570 T _ZNK4llvm5APIntmlERKS0_
00000000006de620 T _ZN4llvm5APIntmLERKS0_
00000000006de6a0 T _ZN4llvm5APInt14tcFullMultiplyEPmPKmS3_jj
00000000006de740 T _ZN4llvm5APInt11tcShiftLeftEPmjj
00000000006de810 T _ZN4llvm5APInt11shlSlowCaseEj
00000000006de870 T _ZN4llvm5APIntlSERKS0_
00000000006de920 T _ZNK4llvm5APInt7sshl_ovERKS0_Rb
00000000006deb60 T _ZNK4llvm5APInt8sshl_satERKS0_
00000000006decc0 T _ZNK4llvm5APInt7ushl_ovERKS0_Rb
00000000006dee30 T _ZNK4llvm5APInt8ushl_satERKS0_
00000000006deef0 T _ZN4llvm5APInt12tcShiftRightEPmjj
00000000006defd0 T _ZN4llvm5APInt12lshrSlowCaseEj
00000000006deff0 T _ZNK4llvm5APInt8byteSwapEv
00000000006df190 T _ZNK4llvm5APInt11reverseBitsEv
00000000006df570 T _ZN4llvm5APInt11lshrInPlaceERKS0_
00000000006df610 T _ZNK4llvm5APInt9getHiBitsEj
00000000006df690 T _ZN4llvm5APInt9tcExtractEPmjPKmjj
00000000006df790 T _ZN4llvm5APInt5tcAndEPmPKmj
00000000006df810 T _ZN4llvm5APInt17AndAssignSlowCaseERKS0_
00000000006df830 T _ZNK4llvm5APInt9getLoBitsEj
00000000006df8f0 T _ZN4llvm5APInt4tcOrEPmPKmj
00000000006df970 T _ZN4llvm5APInt16OrAssignSlowCaseERKS0_
00000000006df990 T _ZN4llvm5APInt8getSplatEjRKS0_
00000000006dfaa0 T _ZNK4llvm5APInt4rotrEj
00000000006dfca0 T _ZNK4llvm5APInt4rotlEj
00000000006dfea0 T _ZNK4llvm5APInt7isSplatEj
00000000006dff40 T _ZN4llvm5APInt5tcXorEPmPKmj
00000000006dffc0 T _ZN4llvm5APInt17XorAssignSlowCaseERKS0_
00000000006dffe0 T _ZN4llvm5APInt12tcComplementEPmj
00000000006e0030 T _ZN4llvm5APInt19flipAllBitsSlowCaseEv
00000000006e0100 T _ZN4llvm8APIntOps18RoundDoubleToAPIntEdj
00000000006e03e0 T _ZNK4llvm5APInt13roundToDoubleEb
00000000006e0670 T _ZN4llvm5APInt10fromStringEjNS_9StringRefEh
00000000006e0a60 T _ZN4llvm5APIntC2EjNS_9StringRefEh
00000000006e0a70 T _ZN4llvm5APInt13getBitsNeededENS_9StringRefEh
00000000006e0c50 T _ZNK4llvm5APInt8toStringERNS_15SmallVectorImplIcEEjbb
00000000006e1300 T _ZNK4llvm5APInt5printERNS_11raw_ostreamEb
00000000006e1390 T _ZNK4llvm5APInt8toStringB5cxx11Ejb
00000000006e14c0 T _ZNK4llvm5APInt4sremEl
00000000006e16d0 T _ZN4llvm5APInt7sdivremERKS0_lRS0_Rl
00000000006e19a0 T _ZNK4llvm5APInt4sdivEl
00000000006e1c50 T _ZN4llvm5APInt8tcNegateEPmj
00000000006e1c80 T _ZN4llvm5APInt9tcCompareEPKmS2_j
00000000006e1cc0 T _ZNK4llvm5APInt7compareERKS0_
00000000006e1d00 T _ZNK4llvm5APInt7usub_ovERKS0_Rb
00000000006e1db0 T _ZNK4llvm5APInt8usub_satERKS0_
00000000006e1e70 T _ZNK4llvm5APInt7uadd_ovERKS0_Rb
00000000006e1f20 T _ZNK4llvm5APInt8uadd_satERKS0_
00000000006e1fe0 T _ZNK4llvm5APInt7umul_ovERKS0_Rb
00000000006e2210 T _ZNK4llvm5APInt8umul_satERKS0_
00000000006e22d0 T _ZN4llvm8APIntOps21GreatestCommonDivisorENS_5APIntES1_
00000000006e2610 T _ZNK4llvm5APInt4udivERKS0_
00000000006e2840 T _ZNK4llvm5APInt4sdivERKS0_
00000000006e2bd0 T _ZNK4llvm5APInt7sdiv_ovERKS0_Rb
00000000006e2ce0 T _ZNK4llvm5APInt7smul_ovERKS0_Rb
00000000006e2e70 T _ZNK4llvm5APInt8smul_satERKS0_
00000000006e3040 T _ZNK4llvm5APInt4sqrtEv
00000000006e3b30 T _ZNK4llvm5APInt4uremERKS0_
00000000006e3f40 T _ZNK4llvm5APInt4rotlERKS0_
00000000006e3fa0 T _ZNK4llvm5APInt4rotrERKS0_
00000000006e4000 T _ZNK4llvm5APInt4sremERKS0_
00000000006e4670 T _ZNK4llvm5APInt5magicEv
00000000006e5910 T _ZNK4llvm5APInt6magicuEj
00000000006e6f10 T _ZN4llvm5APInt7udivremERKS0_S2_RS0_S3_
00000000006e73f0 T _ZNK4llvm5APInt21multiplicativeInverseERKS0_
00000000006e77e0 T _ZN4llvm5APInt7sdivremERKS0_S2_RS0_S3_
00000000006e7bb0 T _ZNK4llvm5APInt13compareSignedERKS0_
00000000006e7c60 T _ZN4llvm5APInt8tcDivideEPmPKmS1_S1_j
00000000006e7d80 T _ZN4llvm5APInt25tcSetLeastSignificantBitsEPmjj
00000000006e7e20 T _ZN4llvm8APIntOps12RoundingUDivERKNS_5APIntES3_NS1_8RoundingE
00000000006e7fc0 T _ZN4llvm8APIntOps12RoundingSDivERKNS_5APIntES3_NS1_8RoundingE
00000000006e8270 T _ZN4llvm8APIntOps26SolveQuadraticEquationWrapENS_5APIntES1_S1_j
00000000006e9360 T _ZN4llvm8APIntOps30GetMostSignificantDifferentBitERKNS_5APIntES3_
00000000006e94b0 T _ZN4llvm16StoreIntToMemoryERKNS_5APIntEPhj
00000000006e94d0 T _ZN4llvm17LoadIntFromMemoryERNS_5APIntEPhj
00000000006e94f0 w _ZN4llvm12hash_combineIJmEEENS_9hash_codeEDpRKT_
00000000006e95b0 w _ZN4llvm7hashing6detail23hash_combine_range_implImEENSt9enable_ifIXsrNS1_16is_hashable_dataIT_EE5valueENS_9hash_codeEE4typeEPS5_SA_
00000000006e9ca0 T _ZN4llvm10hash_valueERKNS_5APIntE
00000000006e9cd0 T _ZN4llvm6APSIntC1ENS_9StringRefE
00000000006ea030 T _ZNK4llvm6APSInt7ProfileERNS_16FoldingSetNodeIDE
00000000006ea060 T _ZN4llvm13ARMBuildAttrs16AttrTypeAsStringENS0_8AttrTypeEb
00000000006ea0d0 T _ZN4llvm13ARMBuildAttrs16AttrTypeAsStringEjb
00000000006ea0e0 T _ZN4llvm13ARMBuildAttrs18AttrTypeFromStringENS_9StringRefE
00000000006ea1f0 T _ZN4llvm18ARMAttributeParser12ParseIntegerEPKhRj
00000000006ea350 T _ZN4llvm18ARMAttributeParser11ParseStringEPKhRj
00000000006ea380 T _ZN4llvm18ARMAttributeParser15StringAttributeENS_13ARMBuildAttrs8AttrTypeEPKhRj
00000000006eacd0 T _ZN4llvm18ARMAttributeParser13compatibilityENS_13ARMBuildAttrs8AttrTypeEPKhRj
00000000006ebbe0 T _ZN4llvm18ARMAttributeParser16IntegerAttributeENS_13ARMBuildAttrs8AttrTypeEPKhRj
00000000006ebed0 T _ZN4llvm18ARMAttributeParser14PrintAttributeEjjNS_9StringRefE
00000000006ecb00 T _ZN4llvm18ARMAttributeParser8CPU_archENS_13ARMBuildAttrs8AttrTypeEPKhRj
00000000006ecb70 T _ZN4llvm18ARMAttributeParser16CPU_arch_profileENS_13ARMBuildAttrs8AttrTypeEPKhRj
00000000006ecc20 T _ZN4llvm18ARMAttributeParser11ARM_ISA_useENS_13ARMBuildAttrs8AttrTypeEPKhRj
00000000006ecc90 T _ZN4llvm18ARMAttributeParser13THUMB_ISA_useENS_13ARMBuildAttrs8AttrTypeEPKhRj
00000000006ecd00 T _ZN4llvm18ARMAttributeParser7FP_archENS_13ARMBuildAttrs8AttrTypeEPKhRj
00000000006ecd70 T _ZN4llvm18ARMAttributeParser9WMMX_archENS_13ARMBuildAttrs8AttrTypeEPKhRj
00000000006ecde0 T _ZN4llvm18ARMAttributeParser18Advanced_SIMD_archENS_13ARMBuildAttrs8AttrTypeEPKhRj
00000000006ece50 T _ZN4llvm18ARMAttributeParser8MVE_archENS_13ARMBuildAttrs8AttrTypeEPKhRj
00000000006ecec0 T _ZN4llvm18ARMAttributeParser10PCS_configENS_13ARMBuildAttrs8AttrTypeEPKhRj
00000000006ecf30 T _ZN4llvm18ARMAttributeParser14ABI_PCS_R9_useENS_13ARMBuildAttrs8AttrTypeEPKhRj
00000000006ecfa0 T _ZN4llvm18ARMAttributeParser15ABI_PCS_RW_dataENS_13ARMBuildAttrs8AttrTypeEPKhRj
00000000006ed010 T _ZN4llvm18ARMAttributeParser15ABI_PCS_RO_dataENS_13ARMBuildAttrs8AttrTypeEPKhRj
00000000006ed080 T _ZN4llvm18ARMAttributeParser15ABI_PCS_GOT_useENS_13ARMBuildAttrs8AttrTypeEPKhRj
00000000006ed0f0 T _ZN4llvm18ARMAttributeParser15ABI_PCS_wchar_tENS_13ARMBuildAttrs8AttrTypeEPKhRj
00000000006ed160 T _ZN4llvm18ARMAttributeParser15ABI_FP_roundingENS_13ARMBuildAttrs8AttrTypeEPKhRj
00000000006ed1d0 T _ZN4llvm18ARMAttributeParser15ABI_FP_denormalENS_13ARMBuildAttrs8AttrTypeEPKhRj
00000000006ed240 T _ZN4llvm18ARMAttributeParser17ABI_FP_exceptionsENS_13ARMBuildAttrs8AttrTypeEPKhRj
00000000006ed2b0 T _ZN4llvm18ARMAttributeParser19ABI_FP_number_modelENS_13ARMBuildAttrs8AttrTypeEPKhRj
00000000006ed320 T _ZN4llvm18ARMAttributeParser16ABI_align_neededENS_13ARMBuildAttrs8AttrTypeEPKhRj
00000000006edbc0 T _ZN4llvm18ARMAttributeParser19ABI_align_preservedENS_13ARMBuildAttrs8AttrTypeEPKhRj
00000000006ee460 T _ZN4llvm18ARMAttributeParser13ABI_enum_sizeENS_13ARMBuildAttrs8AttrTypeEPKhRj
00000000006ee4d0 T _ZN4llvm18ARMAttributeParser14ABI_HardFP_useENS_13ARMBuildAttrs8AttrTypeEPKhRj
00000000006ee540 T _ZN4llvm18ARMAttributeParser12ABI_VFP_argsENS_13ARMBuildAttrs8AttrTypeEPKhRj
00000000006ee5b0 T _ZN4llvm18ARMAttributeParser13ABI_WMMX_argsENS_13ARMBuildAttrs8AttrTypeEPKhRj
00000000006ee620 T _ZN4llvm18ARMAttributeParser22ABI_optimization_goalsENS_13ARMBuildAttrs8AttrTypeEPKhRj
00000000006ee690 T _ZN4llvm18ARMAttributeParser25ABI_FP_optimization_goalsENS_13ARMBuildAttrs8AttrTypeEPKhRj
00000000006ee700 T _ZN4llvm18ARMAttributeParser20CPU_unaligned_accessENS_13ARMBuildAttrs8AttrTypeEPKhRj
00000000006ee770 T _ZN4llvm18ARMAttributeParser15FP_HP_extensionENS_13ARMBuildAttrs8AttrTypeEPKhRj
00000000006ee7e0 T _ZN4llvm18ARMAttributeParser19ABI_FP_16bit_formatENS_13ARMBuildAttrs8AttrTypeEPKhRj
00000000006ee850 T _ZN4llvm18ARMAttributeParser7DIV_useENS_13ARMBuildAttrs8AttrTypeEPKhRj
00000000006ee8c0 T _ZN4llvm18ARMAttributeParser18Virtualization_useENS_13ARMBuildAttrs8AttrTypeEPKhRj
00000000006ee930 T _ZN4llvm18ARMAttributeParser10nodefaultsENS_13ARMBuildAttrs8AttrTypeEPKhRj
00000000006ee970 T _ZN4llvm18ARMAttributeParser22ABI_FP_user_exceptionsENS_13ARMBuildAttrs8AttrTypeEPKhRj
00000000006ee9e0 T _ZN4llvm18ARMAttributeParser15MPextension_useENS_13ARMBuildAttrs8AttrTypeEPKhRj
00000000006eea50 T _ZN4llvm18ARMAttributeParser8T2EE_useENS_13ARMBuildAttrs8AttrTypeEPKhRj
00000000006eeac0 T _ZN4llvm18ARMAttributeParser13DSP_extensionENS_13ARMBuildAttrs8AttrTypeEPKhRj
00000000006eeb30 T _ZN4llvm18ARMAttributeParser14ParseIndexListEPKhRjRNS_15SmallVectorImplIhEE
00000000006eed60 T _ZN4llvm18ARMAttributeParser18ParseAttributeListEPKhRjj
00000000006ef120 T _ZN4llvm18ARMAttributeParser15ParseSubsectionEPKhj
00000000006f0550 T _ZN4llvm18ARMAttributeParser5ParseENS_8ArrayRefIhEEb
00000000006f09d0 T _ZN4llvm3ARM5WinEH17SavedRegisterMaskERKNS1_15RuntimeFunctionE
00000000006f0a80 T _ZN4llvm6detail26printBumpPtrAllocatorStatsEjmm
00000000006f0d10 T _ZN4llvm18PrintRecyclerStatsEmmm
00000000006f0f20 T _ZNK4llvm17BinaryStreamError3logERNS_11raw_ostreamE
00000000006f0f80 T _ZNK4llvm17BinaryStreamError18convertToErrorCodeEv
00000000006f1150 T _ZN4llvm17BinaryStreamErrorC1ENS_17stream_error_codeENS_9StringRefE
00000000006f1330 T _ZN4llvm17BinaryStreamErrorC2ENS_17stream_error_codeE
00000000006f1350 T _ZN4llvm17BinaryStreamErrorC1ENS_9StringRefE
00000000006f1370 T _ZNK4llvm17BinaryStreamError15getErrorMessageEv
00000000006f1380 w _ZNSt15_Sp_counted_ptrIDnLN9__gnu_cxx12_Lock_policyE2EE10_M_disposeEv
00000000006f1390 w _ZNSt16_Sp_counted_baseILN9__gnu_cxx12_Lock_policyE2EE10_M_destroyEv
00000000006f1550 T _ZN4llvm18BinaryStreamReaderC1ENS_15BinaryStreamRefE
00000000006f15b0 T _ZN4llvm18BinaryStreamReaderC2ERNS_12BinaryStreamE
00000000006f15e0 T _ZN4llvm18BinaryStreamReaderC1ENS_8ArrayRefIhEENS_7support10endiannessE
00000000006f1610 T _ZN4llvm18BinaryStreamReaderC2ENS_9StringRefENS_7support10endiannessE
00000000006f1640 T _ZN4llvm18BinaryStreamReader26readLongestContiguousChunkERNS_8ArrayRefIhEE
00000000006f16c0 T _ZN4llvm18BinaryStreamReader9readBytesERNS_8ArrayRefIhEEj
00000000006f1740 T _ZN4llvm18BinaryStreamReader11readULEB128ERm
00000000006f1a90 T _ZN4llvm18BinaryStreamReader11readSLEB128ERl
00000000006f1c40 T _ZN4llvm18BinaryStreamReader14readWideStringERNS_8ArrayRefItEE
00000000006f1dc0 T _ZN4llvm18BinaryStreamReader15readFixedStringERNS_9StringRefEj
00000000006f1e50 T _ZN4llvm18BinaryStreamReader11readCStringERNS_9StringRefE
00000000006f1f70 T _ZN4llvm18BinaryStreamReader13readStreamRefERNS_15BinaryStreamRefEj
00000000006f2540 T _ZN4llvm18BinaryStreamReader13readStreamRefERNS_15BinaryStreamRefE
00000000006f25c0 T _ZN4llvm18BinaryStreamReader13readSubstreamERNS_18BinarySubstreamRefEj
00000000006f2610 T _ZN4llvm18BinaryStreamReader4skipEj
00000000006f26a0 T _ZN4llvm18BinaryStreamReader14padToAlignmentEj
00000000006f2700 T _ZNK4llvm18BinaryStreamReader5splitEj
00000000006f3320 T _ZNK4llvm18BinaryStreamReader4peekEv
00000000006f3df0 T _ZN4llvm15BinaryStreamRefC2ERNS_12BinaryStreamEjNS_8OptionalIjEE
00000000006f3e10 T _ZN4llvm15BinaryStreamRefC2ENS_8ArrayRefIhEENS_7support10endiannessE
00000000006f3f40 T _ZN4llvm15BinaryStreamRefC1ENS_9StringRefENS_7support10endiannessE
00000000006f3f50 T _ZNK4llvm15BinaryStreamRef9readBytesEjjRNS_8ArrayRefIhEE
00000000006f40a0 T _ZNK4llvm15BinaryStreamRef26readLongestContiguousChunkEjRNS_8ArrayRefIhEE
00000000006f4240 T _ZN4llvm23WritableBinaryStreamRefC2ERNS_20WritableBinaryStreamEjNS_8OptionalIjEE
00000000006f4260 T _ZN4llvm23WritableBinaryStreamRefC1ENS_15MutableArrayRefIhEENS_7support10endiannessE
00000000006f43b0 T _ZNK4llvm23WritableBinaryStreamRef10writeBytesEjNS_8ArrayRefIhEE
00000000006f4520 T _ZNK4llvm23WritableBinaryStreamRefcvNS_15BinaryStreamRefEEv
00000000006f4540 T _ZN4llvm23WritableBinaryStreamRef6commitEv
00000000006f4600 T _ZN4llvm15BinaryStreamRefC2ERNS_12BinaryStreamE
00000000006f4680 T _ZN4llvm23WritableBinaryStreamRefC2ERNS_20WritableBinaryStreamE
00000000006f4840 T _ZN4llvm18BinaryStreamWriterC1ENS_23WritableBinaryStreamRefE
00000000006f48a0 T _ZN4llvm18BinaryStreamWriterC1ERNS_20WritableBinaryStreamE
00000000006f48d0 T _ZN4llvm18BinaryStreamWriterC1ENS_15MutableArrayRefIhEENS_7support10endiannessE
00000000006f4900 T _ZN4llvm18BinaryStreamWriter10writeBytesENS_8ArrayRefIhEE
00000000006f4990 T _ZN4llvm18BinaryStreamWriter12writeULEB128Em
00000000006f4a30 T _ZN4llvm18BinaryStreamWriter12writeSLEB128El
00000000006f4ae0 T _ZN4llvm18BinaryStreamWriter16writeFixedStringENS_9StringRefE
00000000006f4b30 T _ZN4llvm18BinaryStreamWriter12writeCStringENS_9StringRefE
00000000006f4be0 T _ZN4llvm18BinaryStreamWriter14writeStreamRefENS_15BinaryStreamRefEj
00000000006f51f0 T _ZN4llvm18BinaryStreamWriter14writeStreamRefENS_15BinaryStreamRefE
00000000006f5370 T _ZNK4llvm18BinaryStreamWriter5splitEj
00000000006f5f90 T _ZN4llvm18BinaryStreamWriter14padToAlignmentEj
00000000006f60b0 T _ZN4llvm14BlockFrequencymLENS_17BranchProbabilityE
00000000006f60e0 T _ZNK4llvm14BlockFrequencymlENS_17BranchProbabilityE
00000000006f6130 T _ZN4llvm14BlockFrequencydVENS_17BranchProbabilityE
00000000006f6160 T _ZNK4llvm14BlockFrequencydvENS_17BranchProbabilityE
00000000006f61b0 T _ZN4llvm14BlockFrequencypLES0_
00000000006f61d0 T _ZNK4llvm14BlockFrequencyplES0_
00000000006f6220 T _ZN4llvm14BlockFrequencymIES0_
00000000006f6240 T _ZNK4llvm14BlockFrequencymiES0_
00000000006f6290 T _ZN4llvm14BlockFrequencyrSEj
00000000006f62f0 T _ZNK4llvm17BranchProbability5printERNS_11raw_ostreamE
00000000006f6410 T _ZN4llvm17BranchProbabilityC1Ejj
00000000006f6440 T _ZN4llvm17BranchProbability20getBranchProbabilityEmm
00000000006f64b0 T _ZNK4llvm17BranchProbability5scaleEm
00000000006f6540 T _ZNK4llvm17BranchProbability14scaleByInverseEm
00000000006f65d0 T _ZN4llvm11BuryPointerEPKv
00000000006f6630 w _ZNSt23_Sp_counted_ptr_inplaceIN4llvm3sys2fs6detail12DirIterStateESaIS4_ELN9__gnu_cxx12_Lock_policyE2EED1Ev
00000000006f6640 w _ZNSt23_Sp_counted_ptr_inplaceIN4llvm3sys2fs6detail12DirIterStateESaIS4_ELN9__gnu_cxx12_Lock_policyE2EED0Ev
00000000006f6650 w _ZNSt23_Sp_counted_ptr_inplaceIN4llvm3sys2fs6detail12DirIterStateESaIS4_ELN9__gnu_cxx12_Lock_policyE2EE10_M_destroyEv
00000000006f6660 w _ZNSt23_Sp_counted_ptr_inplaceIN4llvm3sys2fs6detail12DirIterStateESaIS4_ELN9__gnu_cxx12_Lock_policyE2EE14_M_get_deleterERKSt9type_info
00000000006f66b0 w _ZNSt23_Sp_counted_ptr_inplaceIN4llvm3sys2fs6detail12DirIterStateESaIS4_ELN9__gnu_cxx12_Lock_policyE2EE10_M_disposeEv
00000000006f69b0 T _ZN4llvm23parseCachePruningPolicyENS_9StringRefE
00000000006f7220 T _ZN4llvm10pruneCacheENS_9StringRefENS_18CachePruningPolicyE
00000000006f8270 T _ZN4llvm20circular_raw_ostream10write_implEPKcm
00000000006f8320 T _ZN4llvm20circular_raw_ostream21flushBufferWithBannerEv
00000000006f84b0 T _ZN4llvmlsERNS_11raw_ostreamENSt6chrono10time_pointINS2_3_V212system_clockENS2_8durationIlSt5ratioILl1ELl1000000000EEEEEE
00000000006f8720 T _ZN4llvm15format_providerINSt6chrono10time_pointINS1_3_V212system_clockENS1_8durationIlSt5ratioILl1ELl1000000000EEEEEEvE6formatERKS9_RNS_11raw_ostreamENS_9StringRefE
00000000006f8bb0 T _ZN4llvm3sys17InitializeCOMRAIIC1ENS0_16COMThreadingModeEb
00000000006f8bc0 T _ZN4llvm3sys17InitializeCOMRAIID1Ev
00000000006f8bd0 T _ZN4llvm15CodeGenCoverageC1Ev
00000000006f8bf0 T _ZN4llvm15CodeGenCoverage10setCoveredEm
00000000006f8e30 T _ZNK4llvm15CodeGenCoverage9isCoveredEm
00000000006f8e60 T _ZNK4llvm15CodeGenCoverage7coveredEv
00000000006f8ed0 T _ZN4llvm15CodeGenCoverage5parseERNS_12MemoryBufferENS_9StringRefE
00000000006f8fe0 T _ZN4llvm15CodeGenCoverage5resetEv
00000000006f9040 w _ZN4llvm9to_stringIiEEKNSt7__cxx1112basic_stringIcSt11char_traitsIcESaIcEEERKT_
00000000006f91c0 T _ZNK4llvm15CodeGenCoverage4emitENS_9StringRefES1_
00000000006f9980 w _ZNK4llvm2cl3optIjLb0ENS0_6parserIjEEE27getValueExpectedFlagDefaultEv
00000000006f9990 w _ZN4llvm2cl3optIjLb0ENS0_6parserIjEEE19getExtraOptionNamesERNS_15SmallVectorImplINS_9StringRefEEE
00000000006f99a0 w _ZN4llvm2cl3optIjLb0ENS0_6parserIjEEE10setDefaultEv
00000000006f99c0 w _ZNK4llvm2cl3optIiLb0ENS0_6parserIiEEE27getValueExpectedFlagDefaultEv
00000000006f99d0 w _ZN4llvm2cl3optIiLb0ENS0_6parserIiEEE19getExtraOptionNamesERNS_15SmallVectorImplINS_9StringRefEEE
00000000006f99e0 w _ZN4llvm2cl3optIiLb0ENS0_6parserIiEEE10setDefaultEv
00000000006f9a00 w _ZNK4llvm2cl3optINSt7__cxx1112basic_stringIcSt11char_traitsIcESaIcEEELb0ENS0_6parserIS7_EEE27getValueExpectedFlagDefaultEv
00000000006f9a10 w _ZN4llvm2cl3optINSt7__cxx1112basic_stringIcSt11char_traitsIcESaIcEEELb0ENS0_6parserIS7_EEE19getExtraOptionNamesERNS_15SmallVectorImplINS_9StringRefEEE
00000000006f9a20 w _ZNK4llvm2cl3optIcLb0ENS0_6parserIcEEE27getValueExpectedFlagDefaultEv
00000000006f9a30 w _ZN4llvm2cl3optIcLb0ENS0_6parserIcEEE19getExtraOptionNamesERNS_15SmallVectorImplINS_9StringRefEEE
00000000006f9a40 w _ZN4llvm2cl3optIcLb0ENS0_6parserIcEEE10setDefaultEv
00000000006f9a60 w _ZNK4llvm2cl3optIbLb0ENS0_6parserIbEEE27getValueExpectedFlagDefaultEv
00000000006f9a70 w _ZN4llvm2cl3optIbLb0ENS0_6parserIbEEE19getExtraOptionNamesERNS_15SmallVectorImplINS_9StringRefEEE
00000000006f9a80 w _ZN4llvm2cl3optIbLb0ENS0_6parserIbEEE10setDefaultEv
00000000006f9aa0 T _ZN4llvm2cl6parserIbE6anchorEv
00000000006f9dc0 w _ZN4llvm2cl3optIcLb0ENS0_6parserIcEEE16handleOccurrenceEjNS_9StringRefES5_
00000000006f9e30 w _ZN4llvm2cl3optINSt7__cxx1112basic_stringIcSt11char_traitsIcESaIcEEELb0ENS0_6parserIS7_EEE10setDefaultEv
00000000006fa2e0 T _ZNK4llvm2cl5alias14getOptionWidthEv
00000000006fa310 T _ZNK4llvm2cl19generic_parser_base14getOptionWidthERKNS0_6OptionE
00000000006fb1b0 T _ZN4llvm2cl22TokenizeGNUCommandLineENS_9StringRefERNS_11StringSaverERNS_15SmallVectorImplIPKcEEb
00000000006fb700 T _ZN4llvm2cl18tokenizeConfigFileENS_9StringRefERNS_11StringSaverERNS_15SmallVectorImplIPKcEEb
00000000006fba30 w _ZN4llvm2cl3optINSt7__cxx1112basic_stringIcSt11char_traitsIcESaIcEEELb0ENS0_6parserIS7_EEE16handleOccurrenceEjNS_9StringRefESB_
00000000006fbec0 w _ZN4llvm2cl12basic_parserIbEC2ERNS0_6OptionE
00000000006fbee0 w _ZN4llvm2cl12basic_parserINS0_13boolOrDefaultEEC2ERNS0_6OptionE
00000000006fbf00 w _ZN4llvm2cl12basic_parserIiEC2ERNS0_6OptionE
00000000006fbf20 w _ZN4llvm2cl12basic_parserIlEC2ERNS0_6OptionE
00000000006fbf40 w _ZN4llvm2cl12basic_parserIxEC1ERNS0_6OptionE
00000000006fbf60 w _ZN4llvm2cl12basic_parserIjEC2ERNS0_6OptionE
00000000006fbf80 w _ZN4llvm2cl12basic_parserImEC2ERNS0_6OptionE
00000000006fbfa0 w _ZN4llvm2cl12basic_parserIyEC2ERNS0_6OptionE
00000000006fbfc0 w _ZN4llvm2cl12basic_parserIdEC2ERNS0_6OptionE
00000000006fbfe0 w _ZN4llvm2cl12basic_parserIfEC2ERNS0_6OptionE
00000000006fc000 w _ZN4llvm2cl12basic_parserINSt7__cxx1112basic_stringIcSt11char_traitsIcESaIcEEEEC2ERNS0_6OptionE
00000000006fc020 w _ZN4llvm2cl12basic_parserIcEC2ERNS0_6OptionE
00000000006fc040 w _ZN4llvm2cl3optIjLb0ENS0_6parserIjEEE15setInitialValueERKj
00000000006fc060 w _ZN4llvm2cl3optIjLb0ENS0_6parserIjEEE9getParserEv
00000000006fc070 w _ZN4llvm2cl3optIjLb0ENS0_6parserIjEEE11setCallbackESt8functionIFvRKjEE
00000000006fc130 w _ZN4llvm2cl3optIiLb0ENS0_6parserIiEEE15setInitialValueERKi
00000000006fc150 w _ZN4llvm2cl3optIiLb0ENS0_6parserIiEEE9getParserEv
00000000006fc160 w _ZN4llvm2cl3optIiLb0ENS0_6parserIiEEE11setCallbackESt8functionIFvRKiEE
00000000006fc220 w _ZN4llvm2cl3optINSt7__cxx1112basic_stringIcSt11char_traitsIcESaIcEEELb0ENS0_6parserIS7_EEE15setInitialValueERKS7_
00000000006fc260 w _ZN4llvm2cl3optINSt7__cxx1112basic_stringIcSt11char_traitsIcESaIcEEELb0ENS0_6parserIS7_EEE9getParserEv
00000000006fc270 w _ZN4llvm2cl3optINSt7__cxx1112basic_stringIcSt11char_traitsIcESaIcEEELb0ENS0_6parserIS7_EEE11setCallbackESt8functionIFvRKS7_EE
00000000006fc330 w _ZN4llvm2cl3optIcLb0ENS0_6parserIcEEE15setInitialValueERKc
00000000006fc350 w _ZN4llvm2cl3optIcLb0ENS0_6parserIcEEE9getParserEv
00000000006fc360 w _ZN4llvm2cl3optIcLb0ENS0_6parserIcEEE11setCallbackESt8functionIFvRKcEE
00000000006fc420 w _ZN4llvm2cl3optIbLb0ENS0_6parserIbEEE15setInitialValueERKb
00000000006fc440 w _ZN4llvm2cl3optIbLb0ENS0_6parserIbEEE9getParserEv
00000000006fc450 w _ZN4llvm2cl3optIbLb0ENS0_6parserIbEEE11setCallbackESt8functionIFvRKbEE
00000000006fc510 T _ZN4llvm2cl6Option11addCategoryERNS0_14OptionCategoryE
00000000006fc650 T _ZN4llvm2cl14OptionCategory16registerCategoryEv
00000000006fc7a0 T _ZN4llvm2cl10SubCommand20unregisterSubCommandEv
00000000006fc8e0 T _ZN4llvm2cl10SubCommand5resetEv
00000000006fc990 T _ZNK4llvm2cl10SubCommandcvbEv
00000000006fc9e0 T _ZN4llvm2cl6Option5errorERKNS_5TwineENS_9StringRefERNS_11raw_ostreamE
00000000006fcf90 T _ZN4llvm2cl23ProvidePositionalOptionEPNS0_6OptionENS_9StringRefEi
00000000006fcff0 T _ZN4llvm2cl6Option13addOccurrenceEjNS_9StringRefES2_b
00000000006fd0e0 T _ZN4llvm2cl6Option12printHelpStrENS_9StringRefEmm
00000000006fd420 T _ZNK4llvm2cl5alias15printOptionInfoEm
00000000006fd4d0 T _ZNK4llvm2cl19generic_parser_base15printOptionInfoERKNS0_6OptionEm
00000000006fda50 T _ZNK4llvm2cl17basic_parser_impl14getOptionWidthERKNS0_6OptionE
00000000006fdac0 w _ZNK4llvm2cl3optIjLb0ENS0_6parserIjEEE14getOptionWidthEv
00000000006fdae0 w _ZNK4llvm2cl3optIiLb0ENS0_6parserIiEEE14getOptionWidthEv
00000000006fdb00 w _ZNK4llvm2cl3optINSt7__cxx1112basic_stringIcSt11char_traitsIcESaIcEEELb0ENS0_6parserIS7_EEE14getOptionWidthEv
00000000006fdb20 w _ZNK4llvm2cl3optIcLb0ENS0_6parserIcEEE14getOptionWidthEv
00000000006fdb40 w _ZNK4llvm2cl3optIbLb0ENS0_6parserIbEEE14getOptionWidthEv
00000000006fdbc0 T _ZNK4llvm2cl17basic_parser_impl15printOptionInfoERKNS0_6OptionEm
00000000006fdd40 w _ZNK4llvm2cl3optIjLb0ENS0_6parserIjEEE15printOptionInfoEm
00000000006fdd60 w _ZNK4llvm2cl3optIiLb0ENS0_6parserIiEEE15printOptionInfoEm
00000000006fdd80 w _ZNK4llvm2cl3optINSt7__cxx1112basic_stringIcSt11char_traitsIcESaIcEEELb0ENS0_6parserIS7_EEE15printOptionInfoEm
00000000006fdda0 w _ZNK4llvm2cl3optIcLb0ENS0_6parserIcEEE15printOptionInfoEm
00000000006fddc0 w _ZNK4llvm2cl3optIbLb0ENS0_6parserIbEEE15printOptionInfoEm
00000000006fde40 T _ZNK4llvm2cl17basic_parser_impl15printOptionNameERKNS0_6OptionEm
00000000006fdec0 T _ZN4llvm2cl6parserIbE5parseERNS0_6OptionENS_9StringRefES5_Rb
00000000006fe060 w _ZN4llvm2cl3optIbLb0ENS0_6parserIbEEE16handleOccurrenceEjNS_9StringRefES5_
00000000006fe100 T _ZN4llvm2cl6parserINS0_13boolOrDefaultEE5parseERNS0_6OptionENS_9StringRefES6_RS2_
00000000006fe2a0 T _ZN4llvm2cl6parserIiE5parseERNS0_6OptionENS_9StringRefES5_Ri
00000000006fe3b0 w _ZN4llvm2cl3optIiLb0ENS0_6parserIiEEE16handleOccurrenceEjNS_9StringRefES5_
00000000006fe450 T _ZN4llvm2cl6parserIlE5parseERNS0_6OptionENS_9StringRefES5_Rl
00000000006fe550 T _ZN4llvm2cl6parserIxE5parseERNS0_6OptionENS_9StringRefES5_Rx
00000000006fe650 T _ZN4llvm2cl6parserIjE5parseERNS0_6OptionENS_9StringRefES5_Rj
00000000006fe750 w _ZN4llvm2cl3optIjLb0ENS0_6parserIjEEE16handleOccurrenceEjNS_9StringRefES5_
00000000006fe7f0 T _ZN4llvm2cl6parserImE5parseERNS0_6OptionENS_9StringRefES5_Rm
00000000006fe8f0 T _ZN4llvm2cl6parserIyE5parseERNS0_6OptionENS_9StringRefES5_Ry
00000000006fe9f0 T _ZN4llvm2cl6parserIdE5parseERNS0_6OptionENS_9StringRefES5_Rd
00000000006feb70 T _ZN4llvm2cl6parserIfE5parseERNS0_6OptionENS_9StringRefES5_Rf
00000000006fed10 T _ZN4llvm2cl19generic_parser_base10findOptionENS_9StringRefE
00000000006fedb0 T _ZNK4llvm2cl19generic_parser_base22printGenericOptionDiffERKNS0_6OptionERKNS0_18GenericOptionValueES7_m
00000000006ff100 T _ZNK4llvm2cl6parserIbE15printOptionDiffERKNS0_6OptionEbNS0_11OptionValueIbEEm
00000000006ff320 w _ZNK4llvm2cl3optIbLb0ENS0_6parserIbEEE16printOptionValueEmb
00000000006ff3b0 T _ZNK4llvm2cl6parserINS0_13boolOrDefaultEE15printOptionDiffERKNS0_6OptionES2_NS0_11OptionValueIS2_EEm
00000000006ff5d0 T _ZNK4llvm2cl6parserIiE15printOptionDiffERKNS0_6OptionEiNS0_11OptionValueIiEEm
00000000006ff830 w _ZNK4llvm2cl3optIiLb0ENS0_6parserIiEEE16printOptionValueEmb
00000000006ff8c0 T _ZNK4llvm2cl6parserIlE15printOptionDiffERKNS0_6OptionElNS0_11OptionValueIlEEm
00000000006ffae0 T _ZNK4llvm2cl6parserIxE15printOptionDiffERKNS0_6OptionExNS0_11OptionValueIxEEm
00000000006ffd00 T _ZNK4llvm2cl6parserIjE15printOptionDiffERKNS0_6OptionEjNS0_11OptionValueIjEEm
00000000006fff20 w _ZNK4llvm2cl3optIjLb0ENS0_6parserIjEEE16printOptionValueEmb
00000000006fffb0 T _ZNK4llvm2cl6parserImE15printOptionDiffERKNS0_6OptionEmNS0_11OptionValueImEEm
0000000000700210 T _ZNK4llvm2cl6parserIyE15printOptionDiffERKNS0_6OptionEyNS0_11OptionValueIyEEm
0000000000700430 T _ZNK4llvm2cl6parserIdE15printOptionDiffERKNS0_6OptionEdNS0_11OptionValueIdEEm
0000000000700650 T _ZNK4llvm2cl6parserIfE15printOptionDiffERKNS0_6OptionEfNS0_11OptionValueIfEEm
00000000007008c0 T _ZNK4llvm2cl6parserIcE15printOptionDiffERKNS0_6OptionEcNS0_11OptionValueIcEEm
0000000000700b00 w _ZNK4llvm2cl3optIcLb0ENS0_6parserIcEEE16printOptionValueEmb
0000000000700b90 T _ZNK4llvm2cl6parserINSt7__cxx1112basic_stringIcSt11char_traitsIcESaIcEEEE15printOptionDiffERKNS0_6OptionENS_9StringRefERKNS0_11OptionValueIS7_EEm
0000000000700d90 w _ZNK4llvm2cl3optINSt7__cxx1112basic_stringIcSt11char_traitsIcESaIcEEELb0ENS0_6parserIS7_EEE16printOptionValueEmb
0000000000700e30 T _ZNK4llvm2cl17basic_parser_impl18printOptionNoValueERKNS0_6OptionEm
0000000000700f40 T _ZN4llvm2cl17SetVersionPrinterESt8functionIFvRNS_11raw_ostreamEEE
0000000000701000 T _ZN4llvm2cl20getRegisteredOptionsERNS0_10SubCommandE
0000000000701060 T _ZN4llvm2cl24getRegisteredSubcommandsEv
0000000000701140 w _ZN4llvm6any_ofIRKNS_11SmallPtrSetIPNS_2cl10SubCommandELj1EEEZNKS2_6Option18isInAllSubCommandsEvEUlPKS3_E_EEbOT_T0_
0000000000701520 T _ZN4llvm2cl26TokenizeWindowsCommandLineENS_9StringRefERNS_11StringSaverERNS_15SmallVectorImplIPKcEEb
0000000000702190 T _ZN4llvm2cl9extrahelpC1ENS_9StringRefE
0000000000702220 w _ZN4llvm23SmallVectorTemplateBaseISt4pairINS_9StringRefEjELb0EE4growEm
0000000000702340 w _ZNSt8_Rb_treeIPN4llvm2cl14OptionCategoryESt4pairIKS3_St6vectorIPNS1_6OptionESaIS8_EEESt10_Select1stISB_ESt4lessIS3_ESaISB_EE8_M_eraseEPSt13_Rb_tree_nodeISB_E
00000000007023b0 w _ZNSt8_Rb_treeIPN4llvm2cl14OptionCategoryESt4pairIKS3_St6vectorIPNS1_6OptionESaIS8_EEESt10_Select1stISB_ESt4lessIS3_ESaISB_EE22_M_emplace_hint_uniqueIJRKSt21piecewise_construct_tSt5tupleIJRS5_EESM_IJEEEEESt17_Rb_tree_iteratorISB_ESt23_Rb_tree_const_iteratorISB_EDpOT_
00000000007026c0 w _ZNSt6vectorIPN4llvm2cl6OptionESaIS3_EE17_M_realloc_insertIJRKS3_EEEvN9__gnu_cxx17__normal_iteratorIPS3_S5_EEDpOT_
0000000000702820 w _ZNSt6vectorISt8functionIFvRN4llvm11raw_ostreamEEESaIS5_EE17_M_realloc_insertIJRKS5_EEEvN9__gnu_cxx17__normal_iteratorIPS5_S7_EEDpOT_
0000000000702a80 T _ZN4llvm2cl22AddExtraVersionPrinterESt8functionIFvRNS_11raw_ostreamEEE
0000000000702ef0 T _ZN4llvm2cl20HideUnrelatedOptionsERNS0_14OptionCategoryERNS0_10SubCommandE
0000000000703020 T _ZN4llvm2cl20HideUnrelatedOptionsENS_8ArrayRefIPKNS0_14OptionCategoryEEERNS0_10SubCommandE
0000000000703fe0 T _ZN4llvm2cl16PrintHelpMessageEbb
0000000000704330 T _ZN4llvm2cl17PrintOptionValuesEv
0000000000704630 T _ZN4llvm2cl6Option14removeArgumentEv
0000000000704800 T _ZN4llvm2cl6Option5resetEv
00000000007049b0 T _ZN4llvm2cl25ResetAllOptionOccurrencesEv
0000000000704c30 T _ZN4llvm2cl6Option9setArgStrENS_9StringRefE
0000000000705780 T _ZN4llvm2cl16AddLiteralOptionERNS0_6OptionENS_9StringRefE
00000000007060b0 T _ZN4llvm2cl10SubCommand18registerSubCommandEv
0000000000706a60 T _ZN4llvm2cl22ResetCommandLineParserEv
0000000000707200 T _ZN4llvm2cl6Option11addArgumentEv
0000000000707370 w _ZN4llvm2cl3optIjLb0ENS0_6parserIjEEE4doneEv
0000000000707380 w _ZN4llvm2cl3optIiLb0ENS0_6parserIiEEE4doneEv
0000000000707390 w _ZN4llvm2cl3optINSt7__cxx1112basic_stringIcSt11char_traitsIcESaIcEEELb0ENS0_6parserIS7_EEE4doneEv
00000000007073a0 w _ZN4llvm2cl3optIcLb0ENS0_6parserIcEEE4doneEv
00000000007073b0 w _ZN4llvm2cl3optIbLb0ENS0_6parserIbEEE4doneEv
0000000000707410 w _ZNSt6vectorIPN4llvm2cl14OptionCategoryESaIS3_EE17_M_realloc_insertIJS3_EEEvN9__gnu_cxx17__normal_iteratorIPS3_S5_EEDpOT_
0000000000707dd0 w _ZNSt7__cxx1112basic_stringIcSt11char_traitsIcESaIcEE12_M_constructIPKcEEvT_S8_St20forward_iterator_tag
00000000007082f0 T _ZN4llvm2cl19PrintVersionMessageEv
00000000007084b0 T _ZN4llvm2cl19ExpandResponseFilesERNS_11StringSaverEPFvNS_9StringRefES2_RNS_15SmallVectorImplIPKcEEbES8_bbRNS_3vfs10FileSystemENS_8OptionalIS3_EE
0000000000709170 T _ZN4llvm2cl14readConfigFileENS_9StringRefERNS_11StringSaverERNS_15SmallVectorImplIPKcEE
0000000000709480 T _ZN4llvm2cl23ParseCommandLineOptionsEiPKPKcNS_9StringRefEPNS_11raw_ostreamES2_b
000000000070bf20 T _ZN4llvm2cl23ParseEnvironmentOptionsEPKcS2_S2_
000000000070c1c0 T LLVMParseCommandLineOptions
000000000070c230 T _ZN4llvm4zlib11isAvailableEv
000000000070c240 T _ZN4llvm4zlib8compressENS_9StringRefERNS_15SmallVectorImplIcEEi
000000000070c3a0 T _ZN4llvm4zlib10uncompressENS_9StringRefEPcRm
000000000070c4c0 T _ZN4llvm4zlib10uncompressENS_9StringRefERNS_15SmallVectorImplIcEEm
000000000070c5f0 T _ZN4llvm4zlib5crc32ENS_9StringRefE
000000000070c610 T _ZN4llvm5crc32EjNS_8ArrayRefIhEE
000000000070c660 T _ZN4llvm5crc32ENS_8ArrayRefIhEE
000000000070c680 T _ZN4llvm6JamCRC6updateENS_8ArrayRefIhEE
000000000070c7e0 T _ZN4llvm19ConvertUTF32toUTF16EPPKjS1_PPtS3_NS_15ConversionFlagsE
000000000070c980 T _ZN4llvm19ConvertUTF16toUTF32EPPKtS1_PPjS3_NS_15ConversionFlagsE
000000000070cb10 T _ZN4llvm18ConvertUTF16toUTF8EPPKtS1_PPhS3_NS_15ConversionFlagsE
000000000070ccd0 T _ZN4llvm18ConvertUTF32toUTF8EPPKjS1_PPhS3_NS_15ConversionFlagsE
000000000070cea0 T _ZN4llvm19isLegalUTF8SequenceEPKhS1_
000000000070cf80 T _ZN4llvm18getNumBytesForUTF8Eh
000000000070cfa0 T _ZN4llvm17isLegalUTF8StringEPPKhS1_
000000000070d0d0 T _ZN4llvm18ConvertUTF8toUTF16EPPKhS1_PPtS3_NS_15ConversionFlagsE
000000000070d3d0 T _ZN4llvm25ConvertUTF8toUTF32PartialEPPKhS1_PPjS3_NS_15ConversionFlagsE
000000000070d710 T _ZN4llvm18ConvertUTF8toUTF32EPPKhS1_PPjS3_NS_15ConversionFlagsE
000000000070da30 T _ZN4llvm17ConvertUTF8toWideEjNS_9StringRefERPcRPKh
000000000070db60 T _ZN4llvm22ConvertCodePointToUTF8EjRPc
000000000070dbe0 T _ZN4llvm21hasUTF16ByteOrderMarkENS_8ArrayRefIcEE
000000000070dc20 T _ZN4llvm24convertUTF8ToUTF16StringENS_9StringRefERNS_15SmallVectorImplItEE
000000000070de40 T _ZN4llvm17ConvertUTF8toWideENS_9StringRefERNSt7__cxx1112basic_stringIwSt11char_traitsIwESaIwEEE
000000000070def0 T _ZN4llvm17ConvertUTF8toWideEPKcRNSt7__cxx1112basic_stringIwSt11char_traitsIwESaIwEEE
000000000070df40 T _ZN4llvm17convertWideToUTF8ERKNSt7__cxx1112basic_stringIwSt11char_traitsIwESaIwEEERNS1_IcS2_IcESaIcEEE
000000000070dff0 w _ZNSt6vectorItSaItEE15_M_range_insertIPKtEEvN9__gnu_cxx17__normal_iteratorIPtS1_EET_S9_St20forward_iterator_tag
000000000070e2b0 T _ZN4llvm24convertUTF16ToUTF8StringENS_8ArrayRefIcEERNSt7__cxx1112basic_stringIcSt11char_traitsIcESaIcEEE
000000000070e530 T _ZN4llvm24convertUTF16ToUTF8StringENS_8ArrayRefItEERNSt7__cxx1112basic_stringIcSt11char_traitsIcESaIcEEE
000000000070e6f0 T _ZN4llvm27CrashRecoveryContextCleanupD1Ev
000000000070e700 T _ZN4llvm27CrashRecoveryContextCleanupD0Ev
000000000070e720 T _ZN4llvm20CrashRecoveryContextD1Ev
000000000070e8a0 T _ZN4llvm20CrashRecoveryContext21isRecoveringFromCrashEv
000000000070e8f0 T _ZN4llvm20CrashRecoveryContext10GetCurrentEv
000000000070e970 T _ZN4llvm20CrashRecoveryContext6EnableEv
000000000070eab0 T _ZN4llvm20CrashRecoveryContext7DisableEv
000000000070ecf0 T _ZN4llvm20CrashRecoveryContext15registerCleanupEPNS_27CrashRecoveryContextCleanupE
000000000070ed10 T _ZN4llvm20CrashRecoveryContext17unregisterCleanupEPNS_27CrashRecoveryContextCleanupE
000000000070ed70 T _ZN4llvm20CrashRecoveryContext9RunSafelyENS_12function_refIFvvEEE
000000000070eea0 T _ZN4llvm20CrashRecoveryContext10HandleExitEi
000000000070ef20 T _ZN4llvm20CrashRecoveryContext17RunSafelyOnThreadENS_12function_refIFvvEEEj
000000000070efb0 T _ZNK4llvm13DataExtractor5getU8EPmPNS_5ErrorE
000000000070f0b0 T _ZNK4llvm13DataExtractor5getU8EPmPhj
000000000070f130 T _ZNK4llvm13DataExtractor5getU8ERNS0_6CursorEPhj
000000000070f300 T _ZNK4llvm13DataExtractor6getU16EPmPNS_5ErrorE
000000000070f430 T _ZNK4llvm13DataExtractor6getU16EPmPtj
000000000070f530 T _ZNK4llvm13DataExtractor6getU24EPm
000000000070f590 T _ZNK4llvm13DataExtractor6getU32EPmPNS_5ErrorE
000000000070f6b0 T _ZNK4llvm13DataExtractor6getU32EPmPjj
000000000070f7b0 T _ZNK4llvm13DataExtractor6getU64EPmPNS_5ErrorE
000000000070f8e0 T _ZNK4llvm13DataExtractor6getU64EPmS1_j
000000000070f9f0 T _ZNK4llvm13DataExtractor11getUnsignedEPmjPNS_5ErrorE
000000000070fa50 T _ZNK4llvm13DataExtractor9getSignedEPmj
000000000070fab0 T _ZNK4llvm13DataExtractor7getCStrEPm
000000000070fb10 T _ZNK4llvm13DataExtractor10getCStrRefEPm
000000000070fba0 T _ZNK4llvm13DataExtractor10getULEB128EPmPNS_5ErrorE
000000000070feb0 T _ZNK4llvm13DataExtractor10getSLEB128EPm
000000000070ff30 T _ZNK4llvm13DataExtractor4skipERNS0_6CursorEm
0000000000710090 T _ZN4llvm18isCurrentDebugTypeEPKc
0000000000710150 T _ZN4llvm4dbgsEv
0000000000710160 w _ZNSt6vectorINSt7__cxx1112basic_stringIcSt11char_traitsIcESaIcEEESaIS5_EE17_M_realloc_insertIJS5_EEEvN9__gnu_cxx17__normal_iteratorIPS5_S7_EEDpOT_
00000000007103a0 T _ZN4llvm20setCurrentDebugTypesEPPKcj
0000000000710630 T _ZN4llvm19setCurrentDebugTypeEPKc
0000000000710660 w _ZNSt17_Function_handlerIFvRKNSt7__cxx1112basic_stringIcSt11char_traitsIcESaIcEEEEN4llvm2cl4listIS5_NS9_12DebugCounterENSA_6parserIS5_EEE8CallbackMUlS7_E_EE9_M_invokeERKSt9_Any_dataS7_
0000000000710670 w _ZNSt14_Function_base13_Base_managerIN4llvm2cl4listINSt7__cxx1112basic_stringIcSt11char_traitsIcESaIcEEENS1_12DebugCounterENS2_6parserIS9_EEE8CallbackMUlRKS9_E_EE10_M_managerERSt9_Any_dataRKSI_St18_Manager_operation
0000000000710970 T _ZN4llvm12DebugCounter8instanceEv
0000000000710fe0 w _ZNSt8_Rb_treeINSt7__cxx1112basic_stringIcSt11char_traitsIcESaIcEEESt4pairIKS5_jESt10_Select1stIS8_ESt4lessIS5_ESaIS8_EE8_M_eraseEPSt13_Rb_tree_nodeIS8_E
0000000000711050 T _ZN4llvm12DebugCounterD1Ev
00000000007111a0 w _ZNKSt8_Rb_treeINSt7__cxx1112basic_stringIcSt11char_traitsIcESaIcEEESt4pairIKS5_jESt10_Select1stIS8_ESt4lessIS5_ESaIS8_EE4findERS7_
0000000000711920 T _ZN4llvm12DebugCounter9push_backERKNSt7__cxx1112basic_stringIcSt11char_traitsIcESaIcEEE
0000000000712100 w _ZSt16__insertion_sortIPN4llvm9StringRefEN9__gnu_cxx5__ops15_Iter_less_iterEEvT_S6_T0_
00000000007122a0 w _ZSt13__adjust_heapIPN4llvm9StringRefElS1_N9__gnu_cxx5__ops15_Iter_less_iterEEvT_T0_S7_T1_T2_
0000000000712510 w _ZSt13__heap_selectIPN4llvm9StringRefEN9__gnu_cxx5__ops15_Iter_less_iterEEvT_S6_S6_T0_
0000000000712bb0 T _ZNK4llvm12DebugCounter5printERNS_11raw_ostreamE
00000000007145f0 T _ZNK4llvm12DebugCounter4dumpEv
0000000000714610 w _ZNSt6vectorIjSaIjEE17_M_realloc_insertIJRKjEEEvN9__gnu_cxx17__normal_iteratorIPjS1_EEDpOT_
0000000000714a30 w _ZNSt8_Rb_treeIjjSt9_IdentityIjESt4lessIjESaIjEE8_M_eraseEPSt13_Rb_tree_nodeIjE
0000000000714a80 w _ZNSt8_Rb_treeISt3setIjSt4lessIjESaIjEES4_St9_IdentityIS4_ES1_IS4_ESaIS4_EE8_M_eraseEPSt13_Rb_tree_nodeIS4_E
0000000000714b00 T _ZN4llvm14DeltaAlgorithmD1Ev
0000000000714b80 T _ZN4llvm14DeltaAlgorithmD0Ev
0000000000714ba0 w _ZNSt8_Rb_treeISt3setIjSt4lessIjESaIjEES4_St9_IdentityIS4_ES1_IS4_ESaIS4_EE24_M_get_insert_unique_posERKS4_
0000000000714d30 w _ZNSt8_Rb_treeIjjSt9_IdentityIjESt4lessIjESaIjEE7_M_copyINS5_11_Alloc_nodeEEEPSt13_Rb_tree_nodeIjEPKS9_PSt18_Rb_tree_node_baseRT_
0000000000714e30 w _ZNSt6vectorISt3setIjSt4lessIjESaIjEESaIS4_EE17_M_realloc_insertIJRKS4_EEEvN9__gnu_cxx17__normal_iteratorIPS4_S6_EEDpOT_
0000000000715210 w _ZNSt8_Rb_treeISt3setIjSt4lessIjESaIjEES4_St9_IdentityIS4_ES1_IS4_ESaIS4_EE16_M_insert_uniqueIRKS4_EESt4pairISt17_Rb_tree_iteratorIS4_EbEOT_
00000000007153d0 T _ZN4llvm14DeltaAlgorithm13GetTestResultERKSt3setIjSt4lessIjESaIjEE
0000000000715550 T _ZN4llvm14DeltaAlgorithm5SplitERKSt3setIjSt4lessIjESaIjEERSt6vectorIS5_SaIS5_EE
0000000000715980 w _ZNSt8_Rb_treeIjjSt9_IdentityIjESt4lessIjESaIjEE29_M_get_insert_hint_unique_posESt23_Rb_tree_const_iteratorIjERKj
0000000000715c10 w _ZNSt8_Rb_treeIjjSt9_IdentityIjESt4lessIjESaIjEE7_M_copyINS5_20_Reuse_or_alloc_nodeEEEPSt13_Rb_tree_nodeIjEPKS9_PSt18_Rb_tree_node_baseRT_
0000000000715e40 w _ZNSt8_Rb_treeIjjSt9_IdentityIjESt4lessIjESaIjEEaSERKS5_
0000000000715fa0 w _ZNSt6vectorISt3setIjSt4lessIjESaIjEESaIS4_EE15_M_range_insertIN9__gnu_cxx17__normal_iteratorIPKS4_S6_EEEEvNS9_IPS4_S6_EET_SF_St20forward_iterator_tag
00000000007167d0 T _ZN4llvm14DeltaAlgorithm6SearchERKSt3setIjSt4lessIjESaIjEERKSt6vectorIS5_SaIS5_EERS5_
0000000000716df0 T _ZN4llvm14DeltaAlgorithm5DeltaERKSt3setIjSt4lessIjESaIjEERKSt6vectorIS5_SaIS5_EE
00000000007171d0 T _ZN4llvm14DeltaAlgorithm3RunERKSt3setIjSt4lessIjESaIjEE
0000000000717360 T _ZN4llvm17DAGDeltaAlgorithm6anchorEv
00000000007173f0 w _ZNSt8_Rb_treeIjSt4pairIKjSt6vectorIjSaIjEEESt10_Select1stIS5_ESt4lessIjESaIS5_EE22_M_emplace_hint_uniqueIJRKSt21piecewise_construct_tSt5tupleIJRS1_EESG_IJEEEEESt17_Rb_tree_iteratorIS5_ESt23_Rb_tree_const_iteratorIS5_EDpOT_
00000000007176f0 w _ZNSt8_Rb_treeIjSt4pairIKjSt6vectorIjSaIjEEESt10_Select1stIS5_ESt4lessIjESaIS5_EE8_M_eraseEPSt13_Rb_tree_nodeIS5_E
0000000000717760 w _ZNSt8_Rb_treeIjSt4pairIKjSt6vectorIjSaIjEEESt10_Select1stIS5_ESt4lessIjESaIS5_EE17_M_emplace_uniqueIJS0_IjS4_EEEES0_ISt17_Rb_tree_iteratorIS5_EbEDpOT_
00000000007178c0 w _ZNSt8_Rb_treeIjSt4pairIKjSt3setIjSt4lessIjESaIjEEESt10_Select1stIS7_ES4_SaIS7_EE8_M_eraseEPSt13_Rb_tree_nodeIS7_E
0000000000717940 w _ZNSt8_Rb_treeIjSt4pairIKjSt3setIjSt4lessIjESaIjEEESt10_Select1stIS7_ES4_SaIS7_EE22_M_emplace_hint_uniqueIJRKSt21piecewise_construct_tSt5tupleIJRS1_EESG_IJEEEEESt17_Rb_tree_iteratorIS7_ESt23_Rb_tree_const_iteratorIS7_EDpOT_
0000000000717c70 w _ZNSt8_Rb_treeIjSt4pairIKjSt3setIjSt4lessIjESaIjEEESt10_Select1stIS7_ES4_SaIS7_EE17_M_emplace_uniqueIJS0_IjS6_EEEES0_ISt17_Rb_tree_iteratorIS7_EbEDpOT_
0000000000717e40 T _ZN4llvm17DAGDeltaAlgorithm3RunERKSt3setIjSt4lessIjESaIjEERKSt6vectorISt4pairIjjESaISA_EE
0000000000719bc0 T _ZN4llvm18caseFoldingDjbHashENS_9StringRefEj
0000000000719dd0 T _ZN4llvm13ErrorInfoBase6anchorEv
0000000000719de0 T _ZNK4llvm11StringError18convertToErrorCodeEv
000000000071a0e0 T _ZNK4llvm9FileError18convertToErrorCodeEv
000000000071a240 T _ZNK4llvm9ErrorList18convertToErrorCodeEv
000000000071a8d0 T _ZNK4llvm11StringError3logERNS_11raw_ostreamE
000000000071aba0 T _ZN4llvm22inconvertibleErrorCodeEv
000000000071abf0 T _ZN4llvm16errorCodeToErrorESt10error_code
000000000071ac50 T _ZN4llvm11StringErrorC2ESt10error_codeRKNS_5TwineE
000000000071acc0 T _ZN4llvm11StringErrorC1ERKNS_5TwineESt10error_code
000000000071ad30 T _ZN4llvm17createStringErrorESt10error_codePKc
000000000071adc0 T LLVMGetErrorTypeId
000000000071add0 T LLVMDisposeErrorMessage
000000000071adf0 T LLVMGetStringErrorTypeId
000000000071ae00 w _ZN4llvm23SmallVectorTemplateBaseINSt7__cxx1112basic_stringIcSt11char_traitsIcESaIcEEELb0EE4growEm
000000000071afb0 T _ZN4llvm21logAllUnhandledErrorsENS_5ErrorERNS_11raw_ostreamENS_5TwineE
000000000071b520 T _ZN4llvm18report_fatal_errorENS_5ErrorEb
000000000071b610 T _ZN4llvm16errorToErrorCodeENS_5ErrorE
000000000071bcb0 T LLVMConsumeError
000000000071bd30 w _ZN4llvm15handleErrorImplIZNS_8toStringENS_5ErrorEEUlRKNS_13ErrorInfoBaseEE_JEEES1_St10unique_ptrIS2_St14default_deleteIS2_EEOT_DpOT0_
000000000071bfe0 w _ZN4llvm12handleErrorsIJZNS_8toStringENS_5ErrorEEUlRKNS_13ErrorInfoBaseEE_EEES1_S1_DpOT_
000000000071c520 T LLVMGetErrorMessage
000000000071c750 T _ZN4llvm27install_fatal_error_handlerEPFvPvRKNSt7__cxx1112basic_stringIcSt11char_traitsIcESaIcEEEbES0_
000000000071c7b0 T _ZN4llvm26remove_fatal_error_handlerEv
000000000071c810 T _ZN4llvm18report_fatal_errorERKNS_5TwineEb
000000000071c9a0 T _ZN4llvm18report_fatal_errorEPKcb
000000000071c9f0 T _ZN4llvm18report_fatal_errorERKNSt7__cxx1112basic_stringIcSt11char_traitsIcESaIcEEEb
000000000071ca30 T _ZN4llvm18report_fatal_errorENS_9StringRefEb
000000000071ca80 T _ZN4llvm31install_bad_alloc_error_handlerEPFvPvRKNSt7__cxx1112basic_stringIcSt11char_traitsIcESaIcEEEbES0_
000000000071cae0 T _ZN4llvm30remove_bad_alloc_error_handlerEv
000000000071cb40 T _ZN4llvm22report_bad_alloc_errorEPKcb
000000000071cd10 T _ZN4llvm33install_out_of_memory_new_handlerEv
000000000071cd20 T _ZN4llvm25llvm_unreachable_internalEPKcS1_j
000000000071cdc0 T LLVMInstallFatalErrorHandler
000000000071cde0 T LLVMResetFatalErrorHandler
000000000071cfc0 T _ZNK4llvm18NumericVariableUse4evalEv
000000000071df30 T _ZN4llvm7Pattern19isValidVarNameStartEc
000000000071df60 T _ZNK4llvm7Pattern20computeMatchDistanceENS_9StringRefE
000000000071e030 T _ZN4llvm7Pattern15FindRegexVarEndENS_9StringRefERNS_9SourceMgrE
000000000071e140 T _ZN4llvm9FileCheck16CanonicalizeFileERNS_12MemoryBufferERNS_15SmallVectorImplIcEE
000000000071e300 T _ZN4llvm13FileCheckDiagC2ERKNS_9SourceMgrERKNS_5Check13FileCheckTypeENS_5SMLocENS0_9MatchTypeENS_7SMRangeE
000000000071e370 T _ZN4llvm5Check13FileCheckType8setCountEi
000000000071e380 T _ZN4llvm9FileCheckC2ENS_16FileCheckRequestE
000000000071e840 T _ZNK4llvm15FileCheckString9CheckNextERKNS_9SourceMgrENS_9StringRefE
000000000071eb40 T _ZNK4llvm15FileCheckString9CheckSameERKNS_9SourceMgrENS_9StringRefE
000000000071ecd0 T _ZNK4llvm19NumericSubstitution9getResultB5cxx11Ev
000000000071ef50 w _ZNSt6vectorIN4llvm13FileCheckDiagESaIS1_EE12emplace_backIJRKNS0_9SourceMgrERNS0_5Check13FileCheckTypeERNS0_5SMLocERNS1_9MatchTypeERNS0_7SMRangeEEEEvDpOT_
000000000071f110 T _ZNK4llvm7Pattern15printFuzzyMatchERKNS_9SourceMgrENS_9StringRefEPSt6vectorINS_13FileCheckDiagESaIS6_EE
000000000071f850 w _ZN4llvm15SmallVectorImplINS_7SMFixItEEaSERKS2_
0000000000720000 T _ZN4llvm7Pattern13parseVariableERNS_9StringRefERKNS_9SourceMgrE
0000000000720190 w _ZNSt8_Rb_treeIN4llvm9StringRefESt4pairIKS1_jESt10_Select1stIS4_ESt4lessIS1_ESaIS4_EE8_M_eraseEPSt13_Rb_tree_nodeIS4_E
00000000007202a0 T _ZN4llvm9FileCheckD1Ev
0000000000720810 w _ZNSt6vectorIPN4llvm12SubstitutionESaIS2_EE17_M_realloc_insertIJRKS2_EEEvN9__gnu_cxx17__normal_iteratorIPS2_S4_EEDpOT_
0000000000720970 w _ZN4llvm23SmallVectorTemplateBaseISt4pairImmELb0EE4growEm
0000000000720f50 T _ZNK4llvm15BinaryOperation4evalEv
0000000000721140 T _ZNK4llvm7Pattern18printSubstitutionsERKNS_9SourceMgrENS_9StringRefENS_7SMRangeE
0000000000721750 w _ZNSt6vectorIN4llvm9SourceMgr9SrcBufferESaIS2_EE17_M_realloc_insertIJS2_EEEvN9__gnu_cxx17__normal_iteratorIPS2_S4_EEDpOT_
0000000000721ce0 T _ZNK4llvm7Pattern5matchENS_9StringRefERmRKNS_9SourceMgrE
00000000007223e0 T _ZN4llvm23FileCheckPatternContext18getPatternVarValueENS_9StringRefE
00000000007224e0 T _ZNK4llvm18StringSubstitution9getResultB5cxx11Ev
00000000007225d0 T _ZN4llvm23FileCheckPatternContext14clearLocalVarsEv
00000000007229f0 w _ZNSt6vectorISt10unique_ptrIN4llvm12SubstitutionESt14default_deleteIS2_EESaIS5_EE17_M_realloc_insertIJS5_EEEvN9__gnu_cxx17__normal_iteratorIPS5_S7_EEDpOT_
0000000000722c10 T _ZN4llvm23FileCheckPatternContext23makeNumericSubstitutionENS_9StringRefESt10unique_ptrINS_13ExpressionASTESt14default_deleteIS3_EEm
0000000000722d00 T _ZN4llvm23FileCheckPatternContext22makeStringSubstitutionENS_9StringRefEm
0000000000722de0 w _ZNSt6vectorIPKN4llvm7PatternESaIS3_EE17_M_realloc_insertIJS3_EEEvN9__gnu_cxx17__normal_iteratorIPS3_S5_EEDpOT_
0000000000722f40 T _ZN4llvm7Pattern15AddRegExToRegExENS_9StringRefERjRNS_9SourceMgrE
0000000000723160 T _ZN4llvm7Pattern17AddBackrefToRegExEj
00000000007232e0 T _ZN4llvm9FileCheck21buildCheckPrefixRegexEv
0000000000723550 T _ZNK4llvm5Check13FileCheckType14getDescriptionB5cxx11ENS_9StringRefE
00000000007251d0 T _ZNK4llvm15FileCheckString8CheckNotERKNS_9SourceMgrENS_9StringRefERKSt6vectorIPKNS_7PatternESaIS8_EERKNS_16FileCheckRequestEPS5_INS_13FileCheckDiagESaISG_EE
0000000000725dd0 T _ZNK4llvm15FileCheckString8CheckDagERKNS_9SourceMgrENS_9StringRefERSt6vectorIPKNS_7PatternESaIS8_EERKNS_16FileCheckRequestEPS5_INS_13FileCheckDiagESaISF_EE
0000000000726450 T _ZNK4llvm15FileCheckString5CheckERKNS_9SourceMgrENS_9StringRefEbRmRNS_16FileCheckRequestEPSt6vectorINS_13FileCheckDiagESaIS9_EE
00000000007269a0 T _ZN4llvm9FileCheck10checkInputERNS_9SourceMgrENS_9StringRefEPSt6vectorINS_13FileCheckDiagESaIS5_EE
0000000000726bc0 w _ZNSt8_Rb_treeIN4llvm9StringRefESt4pairIKS1_jESt10_Select1stIS4_ESt4lessIS1_ESaIS4_EE7_M_copyINSA_11_Alloc_nodeEEEPSt13_Rb_tree_nodeIS4_EPKSE_PSt18_Rb_tree_node_baseRT_
00000000007270b0 w _ZNSt6vectorIN4llvm7PatternESaIS1_EE17_M_realloc_insertIJRKS1_EEEvN9__gnu_cxx17__normal_iteratorIPS1_S3_EEDpOT_
0000000000727af0 w _ZNSt6vectorIN4llvm7PatternESaIS1_EE17_M_realloc_insertIJS1_EEEvN9__gnu_cxx17__normal_iteratorIPS1_S3_EEDpOT_
0000000000728680 w _ZNSt6vectorIN4llvm15FileCheckStringESaIS1_EE17_M_realloc_insertIJRNS0_7PatternERNS0_9StringRefERNS0_5SMLocEEEEvN9__gnu_cxx17__normal_iteratorIPS1_S3_EEDpOT_
0000000000729b30 w _ZNSt6vectorIN4llvm15FileCheckStringESaIS1_EE17_M_realloc_insertIJNS0_7PatternERNSt7__cxx1112basic_stringIcSt11char_traitsIcESaIcEEENS0_5SMLocEEEEvN9__gnu_cxx17__normal_iteratorIPS1_S3_EEDpOT_
000000000072afe0 w _ZNSt6vectorISt10unique_ptrIN4llvm15NumericVariableESt14default_deleteIS2_EESaIS5_EE17_M_realloc_insertIJS5_EEEvN9__gnu_cxx17__normal_iteratorIPS5_S7_EEDpOT_
000000000072b210 T _ZN4llvm7Pattern30parseNumericVariableDefinitionERNS_9StringRefEPNS_23FileCheckPatternContextENS_8OptionalImEERKNS_9SourceMgrE
000000000072b630 T _ZN4llvm7Pattern23parseNumericVariableUseENS_9StringRefEbNS_8OptionalImEEPNS_23FileCheckPatternContextERKNS_9SourceMgrE
000000000072b9b0 T _ZN4llvm7Pattern19parseNumericOperandERNS_9StringRefENS0_14AllowedOperandENS_8OptionalImEEPNS_23FileCheckPatternContextERKNS_9SourceMgrE
000000000072bc20 T _ZN4llvm7Pattern10parseBinopERNS_9StringRefESt10unique_ptrINS_13ExpressionASTESt14default_deleteIS4_EEbNS_8OptionalImEEPNS_23FileCheckPatternContextERKNS_9SourceMgrE
000000000072bfb0 T _ZN4llvm7Pattern29parseNumericSubstitutionBlockENS_9StringRefERNS_8OptionalIPNS_15NumericVariableEEEbNS2_ImEEPNS_23FileCheckPatternContextERKNS_9SourceMgrE
000000000072c470 T _ZN4llvm23FileCheckPatternContext22defineCmdlineVariablesERSt6vectorINSt7__cxx1112basic_stringIcSt11char_traitsIcESaIcEEESaIS7_EERNS_9SourceMgrE
000000000072d880 T _ZN4llvm23FileCheckPatternContext18createLineVariableEv
000000000072da70 w _ZNSt8_Rb_treeIN4llvm9StringRefESt4pairIKS1_jESt10_Select1stIS4_ESt4lessIS1_ESaIS4_EE24_M_get_insert_unique_posERS3_
000000000072dc40 w _ZNSt8_Rb_treeIN4llvm9StringRefESt4pairIKS1_jESt10_Select1stIS4_ESt4lessIS1_ESaIS4_EE29_M_get_insert_hint_unique_posESt23_Rb_tree_const_iteratorIS4_ERS3_
000000000072df60 w _ZNSt3mapIN4llvm9StringRefEjSt4lessIS1_ESaISt4pairIKS1_jEEEixERS5_
000000000072e1a0 T _ZN4llvm7Pattern12parsePatternENS_9StringRefES1_RNS_9SourceMgrERKNS_16FileCheckRequestE
000000000072f590 T _ZN4llvm9FileCheck21ValidateCheckPrefixesEv
000000000072f810 w _ZNSt6vectorIPN4llvm12SubstitutionESaIS2_EEaSERKS4_
000000000072f960 w _ZNSt8_Rb_treeIN4llvm9StringRefESt4pairIKS1_jESt10_Select1stIS4_ESt4lessIS1_ESaIS4_EE7_M_copyINSA_20_Reuse_or_alloc_nodeEEEPSt13_Rb_tree_nodeIS4_EPKSE_PSt18_Rb_tree_node_baseRT_
000000000072fbd0 w _ZNSt6vectorIN4llvm7PatternESaIS1_EEaSERKS3_
0000000000730740 T _ZN4llvm9FileCheck13readCheckFileERNS_9SourceMgrENS_9StringRefERNS_5RegexE
0000000000732bd0 T _ZN4llvm13FileCollectorC1ENSt7__cxx1112basic_stringIcSt11char_traitsIcESaIcEEES6_
0000000000732d60 T _ZN4llvm13FileCollector9copyFilesEb
0000000000733170 T _ZN4llvm13FileCollector18createCollectorVFSENS_18IntrusiveRefCntPtrINS_3vfs10FileSystemEEESt10shared_ptrIS0_E
00000000007331f0 w _ZN4llvm15SmallVectorImplIcEaSERKS1_
0000000000733300 T _ZN4llvm13FileCollector11getRealPathENS_9StringRefERNS_15SmallVectorImplIcEE
0000000000733cc0 T _ZN4llvm13FileCollector11addFileImplENS_9StringRefE
00000000007340f0 T _ZN4llvm13FileCollector7addFileERKNS_5TwineE
00000000007346a0 T _ZN4llvm13FileCollector12writeMappingENS_9StringRefE
0000000000734b10 T _ZNK4llvm20AtomicFileWriteError3logERNS_11raw_ostreamE
0000000000735870 T _ZN4llvm22DiffFilesWithToleranceENS_9StringRefES0_ddPNSt7__cxx1112basic_stringIcSt11char_traitsIcESaIcEEE
0000000000736140 T _ZN4llvm19writeFileAtomicallyENS_9StringRefES0_St8functionIFNS_5ErrorERNS_11raw_ostreamEEE
00000000007366f0 T _ZN4llvm19writeFileAtomicallyENS_9StringRefES0_S0_
0000000000736e70 T _ZN4llvm16FileOutputBuffer6createENS_9StringRefEmj
0000000000737580 T _ZN4llvm14FoldingSetBase6anchorEv
00000000007375f0 T _ZNK4llvm19FoldingSetNodeIDRefeqES0_
0000000000737630 T _ZNK4llvm19FoldingSetNodeIDRefltES0_
0000000000737660 T _ZN4llvm16FoldingSetNodeID10AddIntegerEi
00000000007376c0 T _ZN4llvm16FoldingSetNodeID10AddIntegerEj
0000000000737720 T _ZN4llvm16FoldingSetNodeID10AddIntegerEy
0000000000737750 T _ZN4llvm16FoldingSetNodeID10AddIntegerEm
0000000000737760 T _ZN4llvm16FoldingSetNodeID10AddPointerEPKv
0000000000737770 T _ZN4llvm16FoldingSetNodeID10AddIntegerEl
0000000000737780 T _ZN4llvm16FoldingSetNodeID10AddIntegerEx
0000000000737790 T _ZN4llvm16FoldingSetNodeID9AddStringENS_9StringRefE
00000000007379a0 T _ZN4llvm16FoldingSetNodeID9AddNodeIDERKS0_
0000000000737a20 T _ZNK4llvm16FoldingSetNodeIDeqENS_19FoldingSetNodeIDRefE
0000000000737a70 T _ZNK4llvm16FoldingSetNodeIDeqERKS0_
0000000000737a80 T _ZNK4llvm16FoldingSetNodeIDltENS_19FoldingSetNodeIDRefE
0000000000737ad0 T _ZNK4llvm16FoldingSetNodeIDltERKS0_
0000000000737ae0 T _ZNK4llvm16FoldingSetNodeID6InternERNS_20BumpPtrAllocatorImplINS_15MallocAllocatorELm4096ELm4096EEE
0000000000737dc0 T _ZN4llvm14FoldingSetBaseC1Ej
0000000000737e50 T _ZN4llvm14FoldingSetBaseC2EOS0_
0000000000737e90 T _ZN4llvm14FoldingSetBaseaSEOS0_
0000000000737ee0 T _ZN4llvm14FoldingSetBaseD1Ev
0000000000737ef0 T _ZN4llvm14FoldingSetBase5clearEv
0000000000737f30 T _ZN4llvm14FoldingSetBase10InsertNodeEPNS0_4NodeEPv
0000000000738010 T _ZN4llvm14FoldingSetBase15GrowBucketCountEj
00000000007381b0 T _ZN4llvm14FoldingSetBase13GrowHashTableEv
00000000007381c0 T _ZN4llvm14FoldingSetBase7reserveEj
0000000000738200 T _ZN4llvm14FoldingSetBase10RemoveNodeEPNS0_4NodeE
0000000000738260 T _ZN4llvm22FoldingSetIteratorImplC1EPPv
0000000000738290 T _ZN4llvm22FoldingSetIteratorImpl7advanceEv
00000000007382e0 T _ZN4llvm28FoldingSetBucketIteratorImplC1EPPv
0000000000738300 w _ZN4llvm7hashing6detail23hash_combine_range_implIKjEENSt9enable_ifIXsrNS1_16is_hashable_dataIT_EE5valueENS_9hash_codeEE4typeEPS6_SB_
00000000007389f0 T _ZNK4llvm19FoldingSetNodeIDRef11ComputeHashEv
0000000000738a10 T _ZNK4llvm16FoldingSetNodeID11ComputeHashEv
0000000000738a60 T _ZN4llvm14FoldingSetBase19FindNodeOrInsertPosERKNS_16FoldingSetNodeIDERPv
0000000000738b90 T _ZN4llvm14FoldingSetBase15GetOrInsertNodeEPNS0_4NodeE
0000000000738eb0 T _ZN4llvm21formatted_raw_ostream15ComputePositionEPKcm
0000000000738fa0 T _ZN4llvm21formatted_raw_ostream10write_implEPKcm
0000000000738fe0 T _ZN4llvm21formatted_raw_ostream11PadToColumnEj
0000000000739030 T _ZN4llvm5foutsEv
00000000007391e0 T _ZN4llvm5ferrsEv
0000000000739390 T _ZN4llvm5fdbgsEv
0000000000739540 T _ZN4llvm6detail14format_adapter6anchorEv
0000000000739560 T _ZN4llvm19formatv_object_base18consumeFieldLayoutERNS_9StringRefERNS_10AlignStyleERmRc
00000000007396a0 T _ZN4llvm19formatv_object_base20parseReplacementItemENS_9StringRefE
0000000000739b70 T _ZN4llvm19formatv_object_base26splitLiteralAndReplacementENS_9StringRefE
0000000000739f00 w _ZNSt6vectorIN4llvm15ReplacementItemESaIS1_EE17_M_realloc_insertIJRKS1_EEEvN9__gnu_cxx17__normal_iteratorIPS1_S3_EEDpOT_
000000000073a0b0 T _ZN4llvm19formatv_object_base17parseFormatStringENS_9StringRefE
000000000073a3b0 T _ZNK4llvm11GlobPattern8matchOneENS_8ArrayRefINS_9BitVectorEEENS_9StringRefE
000000000073a490 T _ZNK4llvm11GlobPattern5matchENS_9StringRefE
000000000073a5a0 w _ZNSt6vectorIN4llvm9BitVectorESaIS1_EE17_M_realloc_insertIJRKS1_EEEvN9__gnu_cxx17__normal_iteratorIPS1_S3_EEDpOT_
000000000073a9f0 T _ZN4llvm11GlobPattern6createENS_9StringRefE
000000000073b7d0 T _ZN4llvm3DOT12EscapeStringERKNSt7__cxx1112basic_stringIcSt11char_traitsIcESaIcEEE
000000000073b9e0 T _ZN4llvm3DOT14getColorStringEj
000000000073ba20 T _ZN4llvm19createGraphFilenameB5cxx11ERKNS_5TwineERi
000000000073bd30 T _ZN4llvm12DisplayGraphENS_9StringRefEbNS_12GraphProgram4NameE
000000000073e3b0 T _ZN4llvm29set_fixed_execution_hash_seedEm
000000000073e3c0 T _ZN4llvm8InitLLVMC2ERiRPPKcb
000000000073e490 T _ZN4llvm8InitLLVMD1Ev
000000000073e550 T _ZN4llvm12IntEqClasses4growEj
000000000073e5e0 T _ZN4llvm12IntEqClasses4joinEjj
000000000073e650 T _ZNK4llvm12IntEqClasses10findLeaderEj
000000000073e670 T _ZN4llvm12IntEqClasses8compressEv
000000000073e6d0 T _ZN4llvm12IntEqClasses10uncompressEv
000000000073e7f0 T _ZN4llvm15IntervalMapImpl4Path11replaceRootEPvjSt4pairIjjE
000000000073e980 T _ZNK4llvm15IntervalMapImpl4Path14getLeftSiblingEj
000000000073ea10 T _ZN4llvm15IntervalMapImpl4Path8moveLeftEj
000000000073ebc0 T _ZNK4llvm15IntervalMapImpl4Path15getRightSiblingEj
000000000073ec70 T _ZN4llvm15IntervalMapImpl4Path9moveRightEj
000000000073edb0 T _ZN4llvm15IntervalMapImpl10distributeEjjjPKjPjjb
0000000000743480 T _ZN4llvm28ItaniumManglingCanonicalizerC1Ev
0000000000743690 T _ZN4llvm28ItaniumManglingCanonicalizerD1Ev
0000000000753420 T _ZN4llvm28ItaniumManglingCanonicalizer6lookupENS_9StringRefE
0000000000753650 T _ZN4llvm28ItaniumManglingCanonicalizer12canonicalizeENS_9StringRefE
0000000000753d20 T _ZN4llvm28ItaniumManglingCanonicalizer14addEquivalenceENS0_12FragmentKindENS_9StringRefES2_
0000000000756640 T _ZN4llvm4json5Value8moveFromEOKS1_
0000000000756740 T _ZN4llvm4json6isUTF8ENS_9StringRefEPm
00000000007567e0 T _ZN4llvm4json7OStream7newlineEv
0000000000756820 T _ZN4llvm4json7OStream10valueBeginEv
00000000007568b0 T _ZN4llvm4json7OStream10arrayBeginEv
0000000000756940 T _ZN4llvm4json7OStream8arrayEndEv
00000000007569a0 T _ZN4llvm4json7OStream11objectBeginEv
0000000000756a30 T _ZN4llvm4json7OStream9objectEndEv
0000000000756a90 T _ZN4llvm4json7OStream12attributeEndEv
0000000000756aa0 T _ZN4llvm4json7fixUTF8B5cxx11ENS_9StringRefE
0000000000756c60 T _ZN4llvm4json7OStream14attributeBeginENS_9StringRefE
0000000000757520 T _ZN4llvm4json6Object3getENS_9StringRefE
0000000000757cf0 T _ZN4llvm4json6Object9getObjectENS_9StringRefE
0000000000757d20 T _ZN4llvm4json6Object8getArrayENS_9StringRefE
0000000000757d50 T _ZNK4llvm4json6Object3getENS_9StringRefE
0000000000758520 T _ZNK4llvm4json6Object7getNullENS_9StringRefE
0000000000758560 T _ZNK4llvm4json6Object10getBooleanENS_9StringRefE
00000000007585a0 T _ZNK4llvm4json6Object9getNumberENS_9StringRefE
0000000000758610 T _ZNK4llvm4json6Object10getIntegerENS_9StringRefE
00000000007586d0 T _ZNK4llvm4json6Object9getStringENS_9StringRefE
0000000000758750 T _ZNK4llvm4json6Object9getObjectENS_9StringRefE
0000000000758780 T _ZNK4llvm4json6Object8getArrayENS_9StringRefE
00000000007587b0 T _ZN4llvm4jsoneqERKNS0_6ObjectES3_
0000000000759d90 T _ZN4llvm4jsoneqERKNS0_5ValueES3_
000000000075a100 T _ZN4llvm4json5Value7destroyEv
000000000075b650 w _ZNSt6vectorIPKN4llvm6detail12DenseMapPairINS0_4json9ObjectKeyENS3_5ValueEEESaIS8_EE17_M_realloc_insertIJS8_EEEvN9__gnu_cxx17__normal_iteratorIPS8_SA_EEDpOT_
000000000075b7b0 T _ZN4llvm4json7OStream5valueERKNS0_5ValueE
000000000075c340 T _ZN4llvm15format_providerINS_4json5ValueEvE6formatERKS2_RNS_11raw_ostreamENS_9StringRefE
000000000075cc70 T _ZN4llvm4json5Value8copyFromERKS1_
000000000075cee0 w _ZNSt6vectorIN4llvm4json5ValueESaIS2_EE17_M_realloc_insertIJDnEEEvN9__gnu_cxx17__normal_iteratorIPS2_S4_EEDpOT_
000000000075d0b0 T _ZN4llvm4json5ArrayC2ESt16initializer_listINS0_5ValueEE
000000000075d1f0 T _ZN4llvm4json5ValueC2ESt16initializer_listIS1_E
000000000075e990 T _ZN4llvm4json6ObjectixEONS0_9ObjectKeyE
00000000007604a0 T _ZN4llvm4json5parseENS_9StringRefE
0000000000760630 T _ZN4llvm4json6ObjectixERKNS0_9ObjectKeyE
0000000000761d40 T _ZN4llvm9KnownBits18computeForAddCarryERKS0_S2_S2_
0000000000761e10 T _ZN4llvm9KnownBits16computeForAddSubEbbRKS0_S0_
0000000000762100 T _ZN4llvm14getULEB128SizeEm
0000000000762120 T _ZN4llvm14getSLEB128SizeEl
0000000000762160 T _ZN4llvm13line_iterator7advanceEv
0000000000762340 T _ZN4llvm13line_iteratorC1ERKNS_12MemoryBufferEbc
00000000007623c0 T _ZN4llvm3sys6locale11columnWidthENS_9StringRefE
00000000007623d0 T _ZN4llvm3sys6locale7isPrintEi
00000000007623e0 T _ZN4llvm15LockFileManager21processStillExecutingENS_9StringRefEi
0000000000762640 T _ZNK4llvm15LockFileManager8getStateEv
0000000000762670 T _ZNK4llvm15LockFileManager15getErrorMessageB5cxx11Ev
0000000000762950 T _ZN4llvm15LockFileManagerD1Ev
0000000000762a80 T _ZN4llvm15LockFileManager13waitForUnlockEj
0000000000762c70 T _ZN4llvm15LockFileManager20unsafeRemoveLockFileEv
0000000000762cd0 T _ZN4llvm15LockFileManager12readLockFileB5cxx11ENS_9StringRefE
0000000000763050 T _ZN4llvm15LockFileManagerC1ENS_9StringRefE
00000000007651e0 T _ZN4llvm3LLTC1ENS_3MVTE
0000000000765410 T _ZNK4llvm3LLT5printERNS_11raw_ostreamE
0000000000765710 w _ZZSt9call_onceIRFvvEJEEvRSt9once_flagOT_DpOT0_ENUlvE0_4_FUNEv
0000000000765780 T _ZNK4llvm17ManagedStaticBase21RegisterManagedStaticEPFPvvEPFvS1_E
00000000007658b0 T _ZNK4llvm17ManagedStaticBase7destroyEv
00000000007658f0 T _ZN4llvm13llvm_shutdownEv
0000000000765c00 T _ZN4llvm12MemoryBufferD1Ev
0000000000765e00 T _ZN4llvm23SmallVectorMemoryBufferD1Ev
0000000000765e50 T _ZN4llvm23SmallVectorMemoryBufferD0Ev
0000000000765e70 T _ZN4llvm12MemoryBufferD0Ev
0000000000765e90 T _ZN4llvm12MemoryBuffer4initEPKcS2_b
0000000000765eb0 T _ZN4llvm12MemoryBuffer12getMemBufferENS_9StringRefES1_b
0000000000765f60 T _ZN4llvm12MemoryBuffer12getMemBufferENS_15MemoryBufferRefEb
0000000000765fc0 T _ZN4llvm20WritableMemoryBuffer21getNewUninitMemBufferEmRKNS_5TwineE
00000000007661b0 T _ZN4llvm20WritableMemoryBuffer15getNewMemBufferEmRKNS_5TwineE
0000000000766230 T _ZNK4llvm12MemoryBuffer15getMemBufferRefEv
0000000000766540 T _ZN4llvm24WriteThroughMemoryBuffer7getFileERKNS_5TwineEl
0000000000766590 T _ZN4llvm24WriteThroughMemoryBuffer12getFileSliceERKNS_5TwineEmm
0000000000766640 T _ZN4llvm12MemoryBuffer16getMemBufferCopyENS_9StringRefERKNS_5TwineE
00000000007668e0 T _ZN4llvm12MemoryBuffer8getSTDINEv
00000000007669a0 T _ZN4llvm12MemoryBuffer15getFileAsStreamERKNS_5TwineE
00000000007670d0 T _ZN4llvm20WritableMemoryBuffer12getFileSliceERKNS_5TwineEmmb
0000000000767130 T _ZN4llvm20WritableMemoryBuffer7getFileERKNS_5TwineElb
0000000000767740 T _ZN4llvm12MemoryBuffer7getFileERKNS_5TwineElbb
00000000007678a0 T _ZN4llvm12MemoryBuffer14getFileOrSTDINERKNS_5TwineElb
00000000007679e0 T _ZN4llvm12MemoryBuffer11getOpenFileEiRKNS_5TwineEmbb
0000000000767a40 T _ZN4llvm12MemoryBuffer16getOpenFileSliceEiRKNS_5TwineEmlb
0000000000767aa0 T _ZN4llvm12MemoryBuffer12getFileSliceERKNS_5TwineEmmb
0000000000767c30 T _ZN4llvm3MD54bodyENS_8ArrayRefIhEE
0000000000768400 T _ZN4llvm3MD5C1Ev
0000000000768420 T _ZN4llvm3MD56updateENS_8ArrayRefIhEE
0000000000768640 T _ZN4llvm3MD56updateENS_9StringRefE
0000000000768650 T _ZN4llvm3MD55finalERNS0_9MD5ResultE
0000000000768800 T _ZNK4llvm3MD59MD5Result6digestEv
0000000000768920 T _ZN4llvm3MD515stringifyResultERNS0_9MD5ResultERNS_11SmallStringILj32EEE
0000000000768a80 T _ZN4llvm3MD54hashENS_8ArrayRefIhEE
00000000007691f0 T _ZN4llvm13write_integerERNS_11raw_ostreamEjmNS_12IntegerStyleE
0000000000769200 T _ZN4llvm13write_integerERNS_11raw_ostreamEimNS_12IntegerStyleE
0000000000769220 T _ZN4llvm13write_integerERNS_11raw_ostreamEmmNS_12IntegerStyleE
0000000000769230 T _ZN4llvm13write_integerERNS_11raw_ostreamElmNS_12IntegerStyleE
0000000000769260 T _ZN4llvm13write_integerERNS_11raw_ostreamEymNS_12IntegerStyleE
0000000000769270 T _ZN4llvm13write_integerERNS_11raw_ostreamExmNS_12IntegerStyleE
00000000007692a0 T _ZN4llvm9write_hexERNS_11raw_ostreamEmNS_13HexPrintStyleENS_8OptionalImEE
00000000007693f0 T _ZN4llvm18isPrefixedHexStyleENS_13HexPrintStyleE
0000000000769400 T _ZN4llvm19getDefaultPrecisionENS_10FloatStyleE
0000000000769420 T _ZN4llvm12write_doubleERNS_11raw_ostreamEdNS_10FloatStyleENS_8OptionalImEE
0000000000769860 T _ZN4llvmlsERNS_11raw_ostreamENS_8NoneTypeE
00000000007698d0 w _ZZSt9call_onceIMNSt13__future_base13_State_baseV2EFvPSt8functionIFSt10unique_ptrINS0_12_Result_baseENS4_8_DeleterEEvEEPbEJPS1_S9_SA_EEvRSt9once_flagOT_DpOT0_ENUlvE0_4_FUNEv
0000000000769920 w _ZNSt17_Function_handlerIFSt10unique_ptrINSt13__future_base12_Result_baseENS2_8_DeleterEEvENS1_13_State_baseV27_SetterIvvEEE9_M_invokeERKSt9_Any_data
0000000000769940 w _ZNSt14_Function_base13_Base_managerINSt13__future_base13_State_baseV27_SetterIvvEEE10_M_managerERSt9_Any_dataRKS6_St18_Manager_operation
0000000000769980 w _ZNSt23_Sp_counted_ptr_inplaceINSt13__future_base13_State_baseV2ESaIS1_ELN9__gnu_cxx12_Lock_policyE2EED1Ev
0000000000769990 w _ZNSt23_Sp_counted_ptr_inplaceINSt13__future_base13_State_baseV2ESaIS1_ELN9__gnu_cxx12_Lock_policyE2EE10_M_disposeEv
00000000007699b0 w _ZNSt23_Sp_counted_ptr_inplaceINSt13__future_base13_State_baseV2ESaIS1_ELN9__gnu_cxx12_Lock_policyE2EED0Ev
0000000000769a10 w _ZNSt23_Sp_counted_ptr_inplaceINSt13__future_base13_State_baseV2ESaIS1_ELN9__gnu_cxx12_Lock_policyE2EE14_M_get_deleterERKSt9type_info
0000000000769a60 w _ZNSt23_Sp_counted_ptr_inplaceINSt13__future_base13_State_baseV2ESaIS1_ELN9__gnu_cxx12_Lock_policyE2EE10_M_destroyEv
000000000076aae0 T _ZN4llvm8parallel6detail9TaskGroupC1Ev
000000000076ab30 T _ZN4llvm8parallel6detail9TaskGroupD1Ev
000000000076ac00 T _ZN4llvm8parallel6detail9TaskGroup5spawnESt8functionIFvvEE
000000000076b0e0 w _ZNSt6vectorISt6threadSaIS0_EE17_M_default_appendEm
000000000076b5d0 w _ZNSt5dequeISt8functionIFvvEESaIS2_EE19_M_destroy_data_auxESt15_Deque_iteratorIS2_RS2_PS2_ES8_
000000000076be00 T _ZN4llvm12PluginLoader13getNumPluginsEv
000000000076bf10 T _ZN4llvm12PluginLoader9getPluginB5cxx11Ej
000000000076c010 w _ZNSt6vectorINSt7__cxx1112basic_stringIcSt11char_traitsIcESaIcEEESaIS5_EE17_M_realloc_insertIJRKS5_EEEvN9__gnu_cxx17__normal_iteratorIPS5_S7_EEDpOT_
000000000076c2f0 T _ZN4llvm12PluginLoaderaSERKNSt7__cxx1112basic_stringIcSt11char_traitsIcESaIcEEE
000000000076c660 T _ZNK4llvm23PrettyStackTraceProgram5printERNS_11raw_ostreamE
000000000076c7e0 T _ZNK4llvm22PrettyStackTraceString5printERNS_11raw_ostreamE
000000000076c880 T _ZNK4llvm22PrettyStackTraceFormat5printERNS_11raw_ostreamE
000000000076c8d0 T _ZN4llvm17ReverseStackTraceEPNS_21PrettyStackTraceEntryE
000000000076cac0 T _ZN4llvm21PrettyStackTraceEntryC1Ev
000000000076cb40 T _ZN4llvm21PrettyStackTraceEntryD1Ev
000000000076ccd0 T _ZN4llvm21PrettyStackTraceEntryD0Ev
000000000076ccf0 T _ZN4llvm22PrettyStackTraceFormatC2EPKcz
000000000076cec0 T _ZN4llvm22EnablePrettyStackTraceEv
000000000076cf10 T _ZN4llvm44EnablePrettyStackTraceOnSigInfoForThisThreadEb
000000000076cf90 T _ZN4llvm20SavePrettyStackStateEv
000000000076cfb0 T _ZN4llvm23RestorePrettyStackStateEPKv
000000000076cfd0 T LLVMEnablePrettyStackTrace
000000000076d2d0 T _ZN4llvm14getRandomBytesEPvm
000000000076d380 w _ZNSt23mersenne_twister_engineImLm64ELm312ELm156ELm31ELm13043109905998158313ELm29ELm6148914691236517205ELm17ELm8202884508482404352ELm37ELm18444473444759240704ELm43ELm6364136223846793005EE4seedISt8seed_seqEENSt9enable_ifIXsrSt6__and_IJSt6__not_ISt7is_sameINSt9remove_cvINSt16remove_referenceIT_E4typeEE4typeES0_EESt11is_unsignedINS9_11result_typeEES5_ISt14is_convertibleIS9_mEEEE5valueEvE4typeERS9_
000000000076d680 w _ZNSt23mersenne_twister_engineImLm64ELm312ELm156ELm31ELm13043109905998158313ELm29ELm6148914691236517205ELm17ELm8202884508482404352ELm37ELm18444473444759240704ELm43ELm6364136223846793005EEclEv
000000000076d800 T _ZN4llvm21RandomNumberGeneratorclEv
000000000076d810 T _ZN4llvm21RandomNumberGeneratorC2ENS_9StringRefE
000000000076dc50 T _ZN4llvm5RegexC1Ev
000000000076dc70 T _ZN4llvm5RegexC1ENS_9StringRefEj
000000000076dd00 T _ZN4llvm5RegexC2EOS0_
000000000076dd20 T _ZN4llvm5RegexD1Ev
000000000076dd60 T _ZNK4llvm5Regex7isValidERNSt7__cxx1112basic_stringIcSt11char_traitsIcESaIcEEE
000000000076ddc0 T _ZNK4llvm5Regex13getNumMatchesEv
000000000076ddd0 T _ZNK4llvm5Regex5matchENS_9StringRefEPNS_15SmallVectorImplIS1_EEPNSt7__cxx1112basic_stringIcSt11char_traitsIcESaIcEEE
000000000076e170 T _ZNK4llvm5Regex3subENS_9StringRefES1_PNSt7__cxx1112basic_stringIcSt11char_traitsIcESaIcEEE
000000000076ea50 T _ZN4llvm5Regex12isLiteralEREENS_9StringRefE
000000000076ea90 T _ZN4llvm5Regex6escapeB5cxx11ENS_9StringRefE
000000000076ed00 T _ZN4llvm13ScaledNumbers10multiply64Emm
000000000076edc0 T _ZN4llvm13ScaledNumbers8divide32Ejj
000000000076ee90 T _ZN4llvm13ScaledNumbers8divide64Emm
000000000076ef80 T _ZN4llvm13ScaledNumbers11compareImplEmmi
000000000076efb0 T _ZN4llvm16ScaledNumberBase8toStringB5cxx11Emsij
000000000076fcd0 T _ZN4llvm16ScaledNumberBase5printERNS_11raw_ostreamEmsij
000000000076fd40 T _ZN4llvm16ScaledNumberBase4dumpEmsi
000000000076fe90 T _ZN4llvm12to_hexStringB5cxx11Emb
0000000000770040 T _ZN4llvmlsERNS_11raw_ostreamERKNS_9HexNumberE
0000000000770100 T _ZN4llvm13ScopedPrinter15printBinaryImplENS_9StringRefES1_NS_8ArrayRefIhEEbj
0000000000770820 T _ZN4llvm4SHA14initEv
0000000000770840 T _ZN4llvm4SHA19hashBlockEv
0000000000771960 T _ZN4llvm4SHA112addUncountedEh
0000000000771990 T _ZN4llvm4SHA19writebyteEh
00000000007719b0 T _ZN4llvm4SHA16updateENS_8ArrayRefIhEE
0000000000771b20 T _ZN4llvm4SHA13padEv
0000000000771bd0 T _ZN4llvm4SHA15finalEv
0000000000771c10 T _ZN4llvm4SHA16resultEv
0000000000771cd0 T _ZN4llvm4SHA14hashENS_8ArrayRefIhEE
0000000000771d60 T _ZN4llvm15SignpostEmitterC1Ev
0000000000771d70 T _ZN4llvm15SignpostEmitterD1Ev
0000000000771d80 T _ZNK4llvm15SignpostEmitter9isEnabledEv
0000000000771d90 T _ZN4llvm15SignpostEmitter18startTimerIntervalEPNS_5TimerE
0000000000771da0 T _ZN4llvm15SignpostEmitter16endTimerIntervalEPNS_5TimerE
0000000000771db0 T _ZN4llvm19SmallPtrSetImplBase16shrink_and_clearEv
0000000000771e90 T _ZNK4llvm19SmallPtrSetImplBase13FindBucketForEPKv
0000000000771f20 T _ZN4llvm19SmallPtrSetImplBase4GrowEj
0000000000772040 T _ZN4llvm19SmallPtrSetImplBase14insert_imp_bigEPKv
00000000007720f0 T _ZN4llvm19SmallPtrSetImplBase10CopyHelperERKS0_
0000000000772150 T _ZN4llvm19SmallPtrSetImplBaseC2EPPKvRKS0_
00000000007721e0 T _ZN4llvm19SmallPtrSetImplBase8CopyFromERKS0_
00000000007722d0 T _ZN4llvm19SmallPtrSetImplBase10MoveHelperEjOS0_
0000000000772340 T _ZN4llvm19SmallPtrSetImplBaseC2EPPKvjOS0_
0000000000772360 T _ZN4llvm19SmallPtrSetImplBase8MoveFromEjOS0_
00000000007723a0 T _ZN4llvm19SmallPtrSetImplBase4swapERS0_
0000000000772620 T _ZN4llvm15SmallVectorBase8grow_podEPvmm
0000000000772990 T _ZNK4llvm9SourceMgr23FindBufferContainingLocENS_5SMLocE
00000000007729f0 T _ZN4llvm9SourceMgr9SrcBufferC2EOS1_
0000000000772a20 T _ZN4llvm9SourceMgr9SrcBufferD1Ev
0000000000772a80 T _ZN4llvm9SourceMgr14AddIncludeFileERKNSt7__cxx1112basic_stringIcSt11char_traitsIcESaIcEEENS_5SMLocERS6_
0000000000772fb0 w _ZNSt6vectorIhSaIhEE17_M_realloc_insertIJhEEEvN9__gnu_cxx17__normal_iteratorIPhS1_EEDpOT_
00000000007730f0 w _ZNK4llvm9SourceMgr9SrcBuffer13getLineNumberIhEEjPKc
0000000000773260 w _ZNSt6vectorItSaItEE17_M_realloc_insertIJtEEEvN9__gnu_cxx17__normal_iteratorIPtS1_EEDpOT_
00000000007733d0 w _ZNK4llvm9SourceMgr9SrcBuffer13getLineNumberItEEjPKc
0000000000773550 w _ZNSt6vectorIjSaIjEE17_M_realloc_insertIJjEEEvN9__gnu_cxx17__normal_iteratorIPjS1_EEDpOT_
00000000007736b0 w _ZNK4llvm9SourceMgr9SrcBuffer13getLineNumberIjEEjPKc
0000000000773820 w _ZNSt6vectorImSaImEE17_M_realloc_insertIJmEEEvN9__gnu_cxx17__normal_iteratorIPmS1_EEDpOT_
0000000000773980 w _ZNK4llvm9SourceMgr9SrcBuffer13getLineNumberImEEjPKc
0000000000773af0 T _ZNK4llvm9SourceMgr16getLineAndColumnENS_5SMLocEj
0000000000773c10 T _ZNK4llvm9SourceMgr17PrintIncludeStackENS_5SMLocERNS_11raw_ostreamE
0000000000773df0 w _ZSt9__find_ifIN9__gnu_cxx17__normal_iteratorIPKcNSt7__cxx1112basic_stringIcSt11char_traitsIcESaIcEEEEENS0_5__ops10_Iter_predIPFbcEEEET_SG_SG_T0_St26random_access_iterator_tag
0000000000773ef0 T _ZNK4llvm12SMDiagnostic5printEPKcRNS_11raw_ostreamEbb
0000000000774880 T _ZNK4llvm9SourceMgr12PrintMessageERNS_11raw_ostreamERKNS_12SMDiagnosticEb
0000000000774910 w _ZSt22__move_median_to_firstIPN4llvm7SMFixItEN9__gnu_cxx5__ops15_Iter_less_iterEEvT_S6_S6_S6_T0_
00000000007756a0 w _ZSt25__unguarded_linear_insertIPN4llvm7SMFixItEN9__gnu_cxx5__ops14_Val_less_iterEEvT_T0_
00000000007759b0 w _ZSt16__insertion_sortIPN4llvm7SMFixItEN9__gnu_cxx5__ops15_Iter_less_iterEEvT_S6_T0_
0000000000775d70 w _ZSt13__adjust_heapIPN4llvm7SMFixItElS1_N9__gnu_cxx5__ops15_Iter_less_iterEEvT_T0_S7_T1_T2_
00000000007764a0 w _ZSt11__make_heapIPN4llvm7SMFixItEN9__gnu_cxx5__ops15_Iter_less_iterEEvT_S6_RT0_
0000000000776cc0 T _ZN4llvm12SMDiagnosticC2ERKNS_9SourceMgrENS_5SMLocENS_9StringRefEiiNS1_8DiagKindES5_S5_NS_8ArrayRefISt4pairIjjEEENS7_INS_7SMFixItEEE
0000000000777320 T _ZNK4llvm9SourceMgr10GetMessageENS_5SMLocENS0_8DiagKindERKNS_5TwineENS_8ArrayRefINS_7SMRangeEEENS6_INS_7SMFixItEEE
0000000000777af0 T _ZNK4llvm9SourceMgr12PrintMessageERNS_11raw_ostreamENS_5SMLocENS0_8DiagKindERKNS_5TwineENS_8ArrayRefINS_7SMRangeEEENS8_INS_7SMFixItEEEb
0000000000777c50 T _ZNK4llvm9SourceMgr12PrintMessageENS_5SMLocENS0_8DiagKindERKNS_5TwineENS_8ArrayRefINS_7SMRangeEEENS6_INS_7SMFixItEEEb
0000000000777cc0 T _ZN4llvm15SpecialCaseListD1Ev
00000000007780e0 w _ZNSt6vectorISt4pairISt10unique_ptrIN4llvm5RegexESt14default_deleteIS3_EEjESaIS7_EE17_M_realloc_insertIJS7_EEEvN9__gnu_cxx17__normal_iteratorIPS7_S9_EEDpOT_
00000000007782d0 w _ZNSt6vectorIN4llvm15SpecialCaseList7SectionESaIS2_EE17_M_realloc_insertIJSt10unique_ptrINS1_7MatcherESt14default_deleteIS7_EEEEEvN9__gnu_cxx17__normal_iteratorIPS2_S4_EEDpOT_
0000000000778920 T _ZNK4llvm15SpecialCaseList7Matcher5matchENS_9StringRefE
0000000000778af0 T _ZNK4llvm15SpecialCaseList14inSectionBlameERKNS_9StringMapINS1_INS0_7MatcherENS_15MallocAllocatorEEES3_EENS_9StringRefES8_S8_
0000000000778c70 T _ZNK4llvm15SpecialCaseList14inSectionBlameENS_9StringRefES1_S1_S1_
0000000000778d20 T _ZNK4llvm15SpecialCaseList9inSectionENS_9StringRefES1_S1_S1_
0000000000778d90 T _ZN4llvm15SpecialCaseList7Matcher6insertENSt7__cxx1112basic_stringIcSt11char_traitsIcESaIcEEEjRS7_
00000000007793d0 T _ZN4llvm15SpecialCaseList5parseEPKNS_12MemoryBufferERNS_9StringMapImNS_15MallocAllocatorEEERNSt7__cxx1112basic_stringIcSt11char_traitsIcESaIcEEE
000000000077aff0 T _ZN4llvm15SpecialCaseList14createInternalERKSt6vectorINSt7__cxx1112basic_stringIcSt11char_traitsIcESaIcEEESaIS7_EERNS_3vfs10FileSystemERS7_
000000000077b4f0 T _ZN4llvm15SpecialCaseList6createERKSt6vectorINSt7__cxx1112basic_stringIcSt11char_traitsIcESaIcEEESaIS7_EERNS_3vfs10FileSystemERS7_
000000000077b580 T _ZN4llvm15SpecialCaseList11createOrDieERKSt6vectorINSt7__cxx1112basic_stringIcSt11char_traitsIcESaIcEEESaIS7_EERNS_3vfs10FileSystemE
000000000077b620 T _ZN4llvm15SpecialCaseList14createInternalEPKNS_12MemoryBufferERNSt7__cxx1112basic_stringIcSt11char_traitsIcESaIcEEE
000000000077b6e0 T _ZN4llvm15SpecialCaseList6createEPKNS_12MemoryBufferERNSt7__cxx1112basic_stringIcSt11char_traitsIcESaIcEEE
000000000077c020 T _ZN4llvm16EnableStatisticsEb
000000000077c040 T _ZN4llvm20AreStatisticsEnabledEv
000000000077c060 T _ZN4llvm15PrintStatisticsEv
000000000077c200 T _ZN4llvm15ResetStatisticsEv
000000000077c320 w _ZNSt6vectorIPN4llvm17TrackingStatisticESaIS2_EE17_M_realloc_insertIJRKS2_EEEvN9__gnu_cxx17__normal_iteratorIPS2_S4_EEDpOT_
000000000077c480 T _ZN4llvm17TrackingStatistic17RegisterStatisticEv
000000000077c610 w _ZNSt6vectorISt4pairIN4llvm9StringRefEjESaIS3_EE17_M_realloc_insertIJPKcjEEEvN9__gnu_cxx17__normal_iteratorIPS3_S5_EEDpOT_
000000000077c7e0 T _ZN4llvm13GetStatisticsEv
000000000077c9a0 w _ZNSt3_V28__rotateIN9__gnu_cxx17__normal_iteratorIPPN4llvm17TrackingStatisticESt6vectorIS5_SaIS5_EEEEEET_SB_SB_SB_St26random_access_iterator_tag
000000000077d6b0 T _ZN4llvm19PrintStatisticsJSONERNS_11raw_ostreamE
000000000077ed40 T _ZN4llvm15PrintStatisticsERNS_11raw_ostreamE
0000000000780880 T _ZN4llvm14StrInStrNoCaseENS_9StringRefES0_
0000000000780950 T _ZN4llvm8getTokenENS_9StringRefES0_
0000000000780a00 T _ZN4llvm11SplitStringENS_9StringRefERNS_15SmallVectorImplIS0_EES0_
0000000000780ae0 T _ZN4llvm18printEscapedStringENS_9StringRefERNS_11raw_ostreamE
0000000000780c80 T _ZN4llvm16printHTMLEscapedENS_9StringRefERNS_11raw_ostreamE
0000000000780e80 T _ZN4llvm14printLowerCaseENS_9StringRefERNS_11raw_ostreamE
0000000000780ef0 T _ZN4llvm13StringMapImpl4initEj
0000000000780fb0 T _ZN4llvm13StringMapImplC1Ejj
0000000000781030 T _ZN4llvm13StringMapImpl15LookupBucketForENS_9StringRefE
00000000007811a0 T _ZNK4llvm13StringMapImpl7FindKeyENS_9StringRefE
00000000007812d0 T _ZN4llvm13StringMapImpl9RemoveKeyENS_9StringRefE
0000000000781310 T _ZN4llvm13StringMapImpl9RemoveKeyEPNS_18StringMapEntryBaseE
0000000000781330 T _ZN4llvm13StringMapImpl11RehashTableEj
0000000000781530 T _ZN4llvm10StringPoolC1Ev
0000000000781550 T _ZN4llvm10StringPoolD1Ev
00000000007815f0 T _ZN4llvm10StringPool6internENS_9StringRefE
00000000007817a0 T _ZN4llvm11StringSaver4saveENS_9StringRefE
0000000000781a50 T _ZN4llvm17UniqueStringSaver4saveENS_9StringRefE
0000000000782310 T _ZNK4llvm9StringRef13compare_lowerES0_
0000000000782390 T _ZNK4llvm9StringRef16startswith_lowerES0_
0000000000782400 T _ZNK4llvm9StringRef14endswith_lowerES0_
0000000000782480 T _ZNK4llvm9StringRef10find_lowerEcm
0000000000782500 T _ZNK4llvm9StringRef15compare_numericES0_
0000000000782690 T _ZNK4llvm9StringRef5lowerB5cxx11Ev
0000000000782710 T _ZNK4llvm9StringRef5upperB5cxx11Ev
0000000000782790 T _ZNK4llvm9StringRef4findES0_m
0000000000782a40 T _ZNK4llvm9StringRef10find_lowerES0_m
0000000000782b10 T _ZNK4llvm9StringRef11rfind_lowerEcm
0000000000782b70 T _ZNK4llvm9StringRef5rfindES0_
0000000000782bf0 T _ZNK4llvm9StringRef11rfind_lowerES0_
0000000000782cb0 T _ZNK4llvm9StringRef13find_first_ofES0_m
0000000000782d80 T _ZNK4llvm9StringRef17find_first_not_ofEcm
0000000000782dc0 T _ZNK4llvm9StringRef17find_first_not_ofES0_m
0000000000782e90 T _ZNK4llvm9StringRef12find_last_ofES0_m
0000000000782f50 T _ZNK4llvm9StringRef16find_last_not_ofEcm
0000000000782f90 T _ZNK4llvm9StringRef16find_last_not_ofES0_m
0000000000783050 T _ZNK4llvm9StringRef5splitERNS_15SmallVectorImplIS0_EES0_ib
00000000007831e0 T _ZNK4llvm9StringRef5splitERNS_15SmallVectorImplIS0_EEcib
0000000000783330 T _ZNK4llvm9StringRef5countES0_
00000000007833e0 T _ZN4llvm22consumeUnsignedIntegerERNS_9StringRefEjRy
00000000007834b0 T _ZN4llvm20consumeSignedIntegerERNS_9StringRefEjRx
0000000000783570 T _ZN4llvm20getAsUnsignedIntegerENS_9StringRefEjRy
00000000007835a0 T _ZN4llvm18getAsSignedIntegerENS_9StringRefEjRx
00000000007835d0 T _ZNK4llvm9StringRef12getAsIntegerEjRNS_5APIntE
0000000000783a70 w _ZN4llvm19ComputeEditDistanceIcEEjNS_8ArrayRefIT_EES3_bj
0000000000783c80 T _ZNK4llvm9StringRef13edit_distanceES0_bj
0000000000783cb0 w _ZN4llvm7hashing6detail23hash_combine_range_implIKcEENSt9enable_ifIXsrNS1_16is_hashable_dataIT_EE5valueENS_9hash_codeEE4typeEPS6_SB_
00000000007843a0 T _ZN4llvm10hash_valueENS_9StringRefE
00000000007843b0 T _ZNK4llvm9StringRef11getAsDoubleERdb
0000000000784760 T _ZN4llvm21SymbolRemappingReader4readERNS_12MemoryBufferE
0000000000785040 T _ZN4llvm27CheckBitcodeOutputToConsoleERNS_11raw_ostreamEb
00000000007853a0 T _ZN4llvm9TarWriterC1EiNS_9StringRefE
00000000007854a0 T _ZN4llvm9TarWriter6createENS_9StringRefES1_
00000000007855d0 T _ZN4llvm9TarWriter6appendENS_9StringRefES1_
0000000000785f70 T _ZN4llvm6AMDGPU17getArchNameAMDGCNENS0_7GPUKindE
0000000000785fe0 T _ZN4llvm6AMDGPU15getArchNameR600ENS0_7GPUKindE
0000000000786050 T _ZN4llvm6AMDGPU15parseArchAMDGCNENS_9StringRefE
00000000007860c0 T _ZN4llvm6AMDGPU13parseArchR600ENS_9StringRefE
0000000000786130 T _ZN4llvm6AMDGPU17getArchAttrAMDGCNENS0_7GPUKindE
00000000007861a0 T _ZN4llvm6AMDGPU15getArchAttrR600ENS0_7GPUKindE
0000000000786210 T _ZN4llvm6AMDGPU23fillValidArchListAMDGCNERNS_15SmallVectorImplINS_9StringRefEEE
00000000007862a0 T _ZN4llvm6AMDGPU21fillValidArchListR600ERNS_15SmallVectorImplINS_9StringRefEEE
0000000000786330 T _ZN4llvm6AMDGPU13getIsaVersionENS_9StringRefE
00000000007865e0 w _ZNSt23_Sp_counted_ptr_inplaceINSt13__future_base11_Task_stateISt8functionIFvvEESaIiES3_EES5_LN9__gnu_cxx12_Lock_policyE2EED2Ev
00000000007865f0 w _ZNSt14_Function_base13_Base_managerINSt13__future_base12_Task_setterISt10unique_ptrINS1_7_ResultIvEENS1_12_Result_base8_DeleterEEZNS1_11_Task_stateISt8functionIFvvEESaIiESB_E6_M_runEvEUlvE_vEEE10_M_managerERSt9_Any_dataRKSI_St18_Manager_operation
0000000000786630 w _ZNSt14_Function_base13_Base_managerINSt13__future_base12_Task_setterISt10unique_ptrINS1_7_ResultIvEENS1_12_Result_base8_DeleterEEZNS1_11_Task_stateISt8functionIFvvEESaIiESB_E14_M_run_delayedESt8weak_ptrINS1_13_State_baseV2EEEUlvE_vEEE10_M_managerERSt9_Any_dataRKSL_St18_Manager_operation
0000000000786670 w _ZNSt23_Sp_counted_ptr_inplaceINSt13__future_base11_Task_stateISt8functionIFvvEESaIiES3_EES5_LN9__gnu_cxx12_Lock_policyE2EE10_M_destroyEv
0000000000786680 w _ZNSt23_Sp_counted_ptr_inplaceINSt13__future_base11_Task_stateISt8functionIFvvEESaIiES3_EES5_LN9__gnu_cxx12_Lock_policyE2EED0Ev
0000000000786690 w _ZNSt23_Sp_counted_ptr_inplaceINSt13__future_base11_Task_stateISt8functionIFvvEESaIiES3_EES5_LN9__gnu_cxx12_Lock_policyE2EE14_M_get_deleterERKSt9type_info
0000000000786730 w _ZNSt17_Function_handlerIFSt10unique_ptrINSt13__future_base12_Result_baseENS2_8_DeleterEEvENS1_12_Task_setterIS0_INS1_7_ResultIvEES3_EZNS1_11_Task_stateISt8functionIFvvEESaIiESC_E6_M_runEvEUlvE_vEEE9_M_invokeERKSt9_Any_data
0000000000786780 w _ZNSt17_Function_handlerIFSt10unique_ptrINSt13__future_base12_Result_baseENS2_8_DeleterEEvENS1_12_Task_setterIS0_INS1_7_ResultIvEES3_EZNS1_11_Task_stateISt8functionIFvvEESaIiESC_E14_M_run_delayedESt8weak_ptrINS1_13_State_baseV2EEEUlvE_vEEE9_M_invokeERKSt9_Any_data
00000000007867d0 w _ZNSt13__future_base11_Task_stateISt8functionIFvvEESaIiES2_E8_M_resetEv
00000000007868f0 w _ZNSt13__future_base11_Task_stateISt8functionIFvvEESaIiES2_E6_M_runEv
0000000000786a70 w _ZNSt13__future_base11_Task_stateISt8functionIFvvEESaIiES2_E14_M_run_delayedESt8weak_ptrINS_13_State_baseV2EE
0000000000786c60 w _ZNSt23_Sp_counted_ptr_inplaceINSt13__future_base11_Task_stateISt8functionIFvvEESaIiES3_EES5_LN9__gnu_cxx12_Lock_policyE2EE10_M_disposeEv
00000000007874f0 T _ZN4llvm10ThreadPoolC1Ej
00000000007878d0 T _ZN4llvm10ThreadPoolC1Ev
00000000007878f0 T _ZN4llvm10ThreadPool4waitEv
00000000007879c0 T _ZN4llvm10ThreadPool9asyncImplESt8functionIFvvEE
0000000000787e70 T _ZN4llvm10ThreadPoolD1Ev
0000000000789af0 T _ZN4llvm27timeTraceProfilerInitializeEjNS_9StringRefE
0000000000789c80 T _ZN4llvm24timeTraceProfilerCleanupEv
0000000000789e40 w _ZN4llvm23SmallVectorTemplateBaseINS_5EntryELb0EE4growEm
000000000078a170 T _ZN4llvm22timeTraceProfilerBeginENS_9StringRefES0_
000000000078a3a0 T _ZN4llvm22timeTraceProfilerBeginENS_9StringRefENS_12function_refIFNSt7__cxx1112basic_stringIcSt11char_traitsIcESaIcEEEvEEE
000000000078a5c0 w _ZNSt6vectorISt4pairINSt7__cxx1112basic_stringIcSt11char_traitsIcESaIcEEES0_ImNSt6chrono8durationIlSt5ratioILl1ELl1000000000EEEEEESaISD_EE17_M_realloc_insertIJN4llvm9StringRefERKSC_EEEvN9__gnu_cxx17__normal_iteratorIPSD_SF_EEDpOT_
000000000078a9c0 T _ZN4llvm20timeTraceProfilerEndEv
000000000078afe0 w _ZSt25__unguarded_linear_insertIN9__gnu_cxx17__normal_iteratorIPSt4pairINSt7__cxx1112basic_stringIcSt11char_traitsIcESaIcEEES2_ImNSt6chrono8durationIlSt5ratioILl1ELl1000000000EEEEEESt6vectorISF_SaISF_EEEENS0_5__ops14_Val_comp_iterIZN4llvm17TimeTraceProfiler5WriteERNSN_17raw_pwrite_streamEEUlRKSF_SS_E0_EEEvT_T0_
000000000078b270 w _ZSt16__insertion_sortIN9__gnu_cxx17__normal_iteratorIPSt4pairINSt7__cxx1112basic_stringIcSt11char_traitsIcESaIcEEES2_ImNSt6chrono8durationIlSt5ratioILl1ELl1000000000EEEEEESt6vectorISF_SaISF_EEEENS0_5__ops15_Iter_comp_iterIZN4llvm17TimeTraceProfiler5WriteERNSN_17raw_pwrite_streamEEUlRKSF_SS_E0_EEEvT_SV_T0_
000000000078b5b0 w _ZSt13__adjust_heapIN9__gnu_cxx17__normal_iteratorIPSt4pairINSt7__cxx1112basic_stringIcSt11char_traitsIcESaIcEEES2_ImNSt6chrono8durationIlSt5ratioILl1ELl1000000000EEEEEESt6vectorISF_SaISF_EEEElSF_NS0_5__ops15_Iter_comp_iterIZN4llvm17TimeTraceProfiler5WriteERNSN_17raw_pwrite_streamEEUlRKSF_SS_E0_EEEvT_T0_SW_T1_T2_
000000000078bb30 w _ZSt11__make_heapIN9__gnu_cxx17__normal_iteratorIPSt4pairINSt7__cxx1112basic_stringIcSt11char_traitsIcESaIcEEES2_ImNSt6chrono8durationIlSt5ratioILl1ELl1000000000EEEEEESt6vectorISF_SaISF_EEEENS0_5__ops15_Iter_comp_iterIZN4llvm17TimeTraceProfiler5WriteERNSN_17raw_pwrite_streamEEUlRKSF_SS_E0_EEEvT_SV_RT0_
000000000078bce0 w _ZSt16__introsort_loopIN9__gnu_cxx17__normal_iteratorIPSt4pairINSt7__cxx1112basic_stringIcSt11char_traitsIcESaIcEEES2_ImNSt6chrono8durationIlSt5ratioILl1ELl1000000000EEEEEESt6vectorISF_SaISF_EEEElNS0_5__ops15_Iter_comp_iterIZN4llvm17TimeTraceProfiler5WriteERNSN_17raw_pwrite_streamEEUlRKSF_SS_E0_EEEvT_SV_T0_T1_
000000000078d780 T _ZN4llvm22timeTraceProfilerWriteERNS_17raw_pwrite_streamE
000000000078d7a0 w _ZNSt17_Function_handlerIFvRKNSt7__cxx1112basic_stringIcSt11char_traitsIcESaIcEEEEN4llvm2cl3optIS5_Lb1ENSA_6parserIS5_EEE8CallbackMUlS7_E_EE9_M_invokeERKSt9_Any_dataS7_
000000000078d7b0 w _ZNSt14_Function_base13_Base_managerIN4llvm2cl3optINSt7__cxx1112basic_stringIcSt11char_traitsIcESaIcEEELb1ENS2_6parserIS9_EEE8CallbackMUlRKS9_E_EE10_M_managerERSt9_Any_dataRKSH_St18_Manager_operation
000000000078ddd0 T _ZN4llvm20CreateInfoOutputFileEv
000000000078dff0 T _ZN4llvm10TimeRecord14getCurrentTimeEb
000000000078e120 T _ZN4llvm5Timer10startTimerEv
000000000078e1d0 T _ZN4llvm5Timer9stopTimerEv
000000000078e2a0 T _ZN4llvm5Timer5clearEv
000000000078e2e0 T _ZNK4llvm10TimeRecord5printERKS0_RNS_11raw_ostreamE
000000000078e780 T _ZN4llvm10TimerGroupC2ENS_9StringRefES1_
000000000078ea20 T _ZN4llvm10TimerGroup8addTimerERNS_5TimerE
000000000078eaf0 T _ZN4llvm5Timer4initENS_9StringRefES1_RNS_10TimerGroupE
000000000078eb60 T _ZN4llvm5Timer4initENS_9StringRefES1_
000000000078ebd0 T _ZN4llvm10TimerGroup5clearEv
000000000078eca0 T _ZN4llvm10TimerGroup8clearAllEv
000000000078ed70 T _ZN4llvm10TimerGroup14printJSONValueERNS_11raw_ostreamERKNS0_11PrintRecordEPKcd
000000000078ef50 T _ZN4llvm10TimerGroup19ConstructTimerListsEv
000000000078efa0 T _ZN4llvm10TimerGroup18aquireDefaultGroupEv
000000000078f1d0 w _ZNSt6vectorIN4llvm10TimerGroup11PrintRecordESaIS2_EE12emplace_backIJRNS0_10TimeRecordERNSt7__cxx1112basic_stringIcSt11char_traitsIcESaIcEEESE_EEEvDpOT_
000000000078f800 T _ZN4llvm10TimerGroup18prepareToPrintListEb
000000000078f910 T _ZN4llvm10TimerGroup15printJSONValuesERNS_11raw_ostreamEPKc
000000000078fc30 T _ZN4llvm10TimerGroup18printAllJSONValuesERNS_11raw_ostreamEPKc
000000000078fda0 T _ZN4llvm10TimerGroupC1ENS_9StringRefES1_RKNS_9StringMapINS_10TimeRecordENS_15MallocAllocatorEEE
0000000000790b80 T _ZN4llvm16NamedRegionTimerC2ENS_9StringRefES1_S1_S1_b
00000000007910b0 w _ZSt16__insertion_sortIN9__gnu_cxx17__normal_iteratorIPN4llvm10TimerGroup11PrintRecordESt6vectorIS4_SaIS4_EEEENS0_5__ops15_Iter_less_iterEEvT_SC_T0_
0000000000791690 w _ZSt25__unguarded_linear_insertIN9__gnu_cxx17__normal_iteratorIPN4llvm10TimerGroup11PrintRecordESt6vectorIS4_SaIS4_EEEENS0_5__ops14_Val_less_iterEEvT_T0_
0000000000791950 w _ZSt13__adjust_heapIN9__gnu_cxx17__normal_iteratorIPN4llvm10TimerGroup11PrintRecordESt6vectorIS4_SaIS4_EEEElS4_NS0_5__ops15_Iter_less_iterEEvT_T0_SD_T1_T2_
0000000000793ad0 T _ZN4llvm10TimerGroup17PrintQueuedTimersERNS_11raw_ostreamE
0000000000794320 T _ZN4llvm10TimerGroup11removeTimerERNS_5TimerE
00000000007944a0 T _ZN4llvm5TimerD1Ev
0000000000794500 T _ZN4llvm10TimerGroupD1Ev
0000000000794870 T _ZN4llvm10TimerGroup5printERNS_11raw_ostreamEb
0000000000794950 T _ZN4llvm10TimerGroup8printAllERNS_11raw_ostreamE
0000000000794a20 T _ZN4llvm14ToolOutputFile16CleanupInstallerC1ENS_9StringRefE
0000000000794b20 T _ZN4llvm14ToolOutputFile16CleanupInstallerD1Ev
0000000000794be0 T _ZN4llvm14ToolOutputFileC1ENS_9StringRefERSt10error_codeNS_3sys2fs9OpenFlagsE
0000000000794c30 T _ZN4llvm14ToolOutputFileC1ENS_9StringRefEi
0000000000794c60 T _ZNK4llvm12TrigramIndex15isDefinitelyOutENS_9StringRefE
0000000000794de0 w _ZNSt8_Rb_treeIjjSt9_IdentityIjESt4lessIjESaIjEE16_M_insert_uniqueIRKjEESt4pairISt17_Rb_tree_iteratorIjEbEOT_
0000000000794f00 w _ZNSt10_HashtableIjSt4pairIKjN4llvm11SmallVectorImLj4EEEESaIS5_ENSt8__detail10_Select1stESt8equal_toIjESt4hashIjENS7_18_Mod_range_hashingENS7_20_Default_ranged_hashENS7_20_Prime_rehash_policyENS7_17_Hashtable_traitsILb0ELb0ELb1EEEE21_M_insert_unique_nodeEmmPNS7_10_Hash_nodeIS5_Lb0EEEm
00000000007950b0 w _ZNSt8__detail9_Map_baseIjSt4pairIKjN4llvm11SmallVectorImLj4EEEESaIS6_ENS_10_Select1stESt8equal_toIjESt4hashIjENS_18_Mod_range_hashingENS_20_Default_ranged_hashENS_20_Prime_rehash_policyENS_17_Hashtable_traitsILb0ELb0ELb1EEELb1EEixERS2_
0000000000795180 T _ZN4llvm12TrigramIndex6insertENSt7__cxx1112basic_stringIcSt11char_traitsIcESaIcEEE
00000000007983f0 T _ZN4llvm6Triple15getArchTypeNameENS0_8ArchTypeE
0000000000798750 T _ZN4llvm6Triple17getArchTypePrefixENS0_8ArchTypeE
0000000000798920 T _ZN4llvm6Triple17getVendorTypeNameENS0_10VendorTypeE
0000000000798a50 T _ZN4llvm6Triple13getOSTypeNameENS0_6OSTypeE
0000000000798cb0 T _ZN4llvm6Triple22getEnvironmentTypeNameENS0_15EnvironmentTypeE
0000000000798e10 T _ZN4llvm6Triple22getArchTypeForLLVMNameENS_9StringRefE
0000000000799c70 T _ZN4llvm6TripleC2ERKNS_5TwineE
0000000000799f40 T _ZN4llvm6TripleC2ERKNS_5TwineES3_S3_
000000000079a3d0 T _ZN4llvm6TripleC2ERKNS_5TwineES3_S3_S3_
000000000079aad0 T _ZN4llvm6Triple9normalizeB5cxx11ENS_9StringRefE
000000000079ba40 T _ZNK4llvm6Triple11getArchNameEv
000000000079bae0 T _ZNK4llvm6Triple13getVendorNameEv
000000000079bbd0 T _ZNK4llvm6Triple9getOSNameEv
000000000079bd10 T _ZNK4llvm6Triple18getEnvironmentNameEv
000000000079be40 T _ZNK4llvm6Triple23getOSAndEnvironmentNameEv
000000000079bf20 T _ZNK4llvm6Triple21getEnvironmentVersionERjS1_S1_
000000000079bfc0 T _ZNK4llvm6Triple12getOSVersionERjS1_S1_
000000000079c0a0 T _ZNK4llvm6Triple16getMacOSXVersionERjS1_S1_
000000000079c180 T _ZNK4llvm6Triple13getiOSVersionERjS1_S1_
000000000079c1f0 T _ZNK4llvm6Triple17getWatchOSVersionERjS1_S1_
000000000079c240 T _ZN4llvm6Triple9setTripleERKNS_5TwineE
000000000079c380 T _ZN4llvm6Triple11setArchNameENS_9StringRefE
000000000079c5c0 T _ZN4llvm6Triple7setArchENS0_8ArchTypeE
000000000079c5e0 T _ZN4llvm6Triple13setVendorNameENS_9StringRefE
000000000079c9b0 T _ZN4llvm6Triple9setVendorENS0_10VendorTypeE
000000000079c9d0 T _ZN4llvm6Triple9setOSNameENS_9StringRefE
000000000079d390 T _ZN4llvm6Triple5setOSENS0_6OSTypeE
000000000079d3b0 T _ZN4llvm6Triple18setEnvironmentNameENS_9StringRefE
000000000079da00 T _ZN4llvm6Triple14setEnvironmentENS0_15EnvironmentTypeE
000000000079dcb0 T _ZN4llvm6Triple15setObjectFormatENS0_16ObjectFormatTypeE
000000000079dfc0 T _ZN4llvm6Triple23setOSAndEnvironmentNameENS_9StringRefE
000000000079e390 T _ZNK4llvm6Triple11isArch64BitEv
000000000079e3b0 T _ZNK4llvm6Triple11isArch32BitEv
000000000079e3d0 T _ZNK4llvm6Triple11isArch16BitEv
000000000079e3f0 T _ZNK4llvm6Triple19get32BitArchVariantEv
000000000079e680 T _ZNK4llvm6Triple19get64BitArchVariantEv
000000000079e900 T _ZNK4llvm6Triple14isLittleEndianEv
000000000079e940 T _ZNK4llvm6Triple23getBigEndianArchVariantEv
000000000079eb10 T _ZNK4llvm6Triple26getLittleEndianArchVariantEv
000000000079ece0 T _ZNK4llvm6Triple16isCompatibleWithERKS0_
000000000079edf0 T _ZNK4llvm6Triple5mergeB5cxx11ERKS0_
000000000079f000 T _ZNK4llvm6Triple16getARMCPUForArchENS_9StringRefE
000000000079f1c0 T _ZNK4llvm5Twine5printERNS_11raw_ostreamE
000000000079f200 T _ZNK4llvm5Twine13printOneChildERNS_11raw_ostreamENS0_5ChildENS0_8NodeKindE
000000000079f3d0 T _ZNK4llvm5Twine8toVectorERNS_15SmallVectorImplIcEE
000000000079f480 T _ZNK4llvm5Twine3strB5cxx11Ev
000000000079f780 T _ZNK4llvm5Twine25toNullTerminatedStringRefERNS_15SmallVectorImplIcEE
000000000079f810 T _ZNK4llvm5Twine9printReprERNS_11raw_ostreamE
000000000079f900 T _ZNK4llvm5Twine17printOneChildReprERNS_11raw_ostreamENS0_5ChildENS0_8NodeKindE
00000000007a0010 T _ZN4llvm3sys7unicode11isPrintableEi
00000000007a0080 T _ZN4llvm3sys7unicode15columnWidthUTF8ENS_9StringRefE
00000000007a0220 T _ZN4llvm3sys7unicode14foldCharSimpleEi
00000000007a14a0 T _ZN4llvmlsERNS_11raw_ostreamERKNS_12VersionTupleE
00000000007a15c0 T _ZNK4llvm12VersionTuple11getAsStringB5cxx11Ev
00000000007a1660 T _ZN4llvm12VersionTuple8tryParseENS_9StringRefE
00000000007a1990 T _ZNK4llvm3vfs17OverlayFileSystem26getCurrentWorkingDirectoryB5cxx11Ev
00000000007a19e0 T _ZN4llvm3vfs15ProxyFileSystem6anchorEv
00000000007a19f0 T _ZN4llvm3vfs21RedirectingFileSystem7isLocalERKNS_5TwineERb
00000000007a1a60 w _ZNSt23_Sp_counted_ptr_inplaceIN4llvm3vfs6detail15RecDirIterStateESaIS3_ELN9__gnu_cxx12_Lock_policyE2EED1Ev
00000000007a1a70 w _ZNSt23_Sp_counted_ptr_inplaceIN4llvm3vfs22VFSFromYamlDirIterImplESaIS2_ELN9__gnu_cxx12_Lock_policyE2EED1Ev
00000000007a1a80 w _ZNSt23_Sp_counted_ptr_inplaceIN4llvm3vfs22VFSFromYamlDirIterImplESaIS2_ELN9__gnu_cxx12_Lock_policyE2EE10_M_disposeEv
00000000007a1b00 w _ZNSt23_Sp_counted_ptr_inplaceIN4llvm3vfs22VFSFromYamlDirIterImplESaIS2_ELN9__gnu_cxx12_Lock_policyE2EED0Ev
00000000007a1b10 w _ZNSt23_Sp_counted_ptr_inplaceIN4llvm3vfs6detail15RecDirIterStateESaIS3_ELN9__gnu_cxx12_Lock_policyE2EED0Ev
00000000007a1b40 T _ZN4llvm3vfs18InMemoryFileSystem7isLocalERKNS_5TwineERb
00000000007a1d60 w _ZNSt23_Sp_counted_ptr_inplaceIN4llvm3vfs6detail15RecDirIterStateESaIS3_ELN9__gnu_cxx12_Lock_policyE2EE10_M_destroyEv
00000000007a1d70 w _ZNSt23_Sp_counted_ptr_inplaceIN4llvm3vfs22VFSFromYamlDirIterImplESaIS2_ELN9__gnu_cxx12_Lock_policyE2EE10_M_destroyEv
00000000007a1d80 T _ZN4llvm3vfs10FileSystem7isLocalERKNS_5TwineERb
00000000007a1e90 w _ZNSt23_Sp_counted_ptr_inplaceIN4llvm3vfs22VFSFromYamlDirIterImplESaIS2_ELN9__gnu_cxx12_Lock_policyE2EE14_M_get_deleterERKSt9type_info
00000000007a1ee0 w _ZNSt23_Sp_counted_ptr_inplaceIN4llvm3vfs6detail15RecDirIterStateESaIS3_ELN9__gnu_cxx12_Lock_policyE2EE14_M_get_deleterERKSt9type_info
00000000007a1fa0 T _ZN4llvm3vfs17OverlayFileSystem26setCurrentWorkingDirectoryERKNS_5TwineE
00000000007a20e0 T _ZNK4llvm3vfs10FileSystem12makeAbsoluteERNS_15SmallVectorImplIcEE
00000000007a2630 T _ZN4llvm3vfs17OverlayFileSystem6statusERKNS_5TwineE
00000000007a2b30 w _ZNSt23_Sp_counted_ptr_inplaceIN4llvm3vfs6detail15RecDirIterStateESaIS3_ELN9__gnu_cxx12_Lock_policyE2EE10_M_disposeEv
00000000007a4510 T _ZNK4llvm3vfs21RedirectingFileSystem26getCurrentWorkingDirectoryB5cxx11Ev
00000000007a4fd0 T _ZN4llvm3vfs18InMemoryFileSystem26setCurrentWorkingDirectoryERKNS_5TwineE
00000000007a5680 T _ZNK4llvm3vfs18InMemoryFileSystem11getRealPathERKNS_5TwineERNS_15SmallVectorImplIcEE
00000000007a58c0 T _ZN4llvm3vfs6StatusC1ERKNS_3sys2fs11file_statusE
00000000007a5930 T _ZN4llvm3vfs6StatusC2ERKNS_5TwineENS_3sys2fs8UniqueIDENSt6chrono10time_pointINS8_3_V212system_clockENS8_8durationIlSt5ratioILl1ELl1000000000EEEEEEjjmNS6_9file_typeENS6_5permsE
00000000007a59c0 T _ZN4llvm3vfs6Status15copyWithNewNameERKS1_RKNS_5TwineE
00000000007a5b10 T _ZN4llvm3vfs6Status15copyWithNewNameERKNS_3sys2fs11file_statusERKNS_5TwineE
00000000007a5dc0 T _ZNK4llvm3vfs6Status10equivalentERKS1_
00000000007a5de0 T _ZNK4llvm3vfs6Status11isDirectoryEv
00000000007a5df0 T _ZNK4llvm3vfs6Status13isRegularFileEv
00000000007a5e00 T _ZNK4llvm3vfs6Status9isSymlinkEv
00000000007a5e10 T _ZNK4llvm3vfs6Status13isStatusKnownEv
00000000007a6080 T _ZNK4llvm3vfs6Status6existsEv
00000000007a60a0 T _ZNK4llvm3vfs6Status7isOtherEv
00000000007a60e0 T _ZN4llvm3vfs4FileD1Ev
00000000007a62c0 T _ZN4llvm3vfs4FileD0Ev
00000000007a62e0 T _ZN4llvm3vfs10FileSystemD1Ev
00000000007a6350 T _ZN4llvm3vfs18InMemoryFileSystemD1Ev
00000000007a6390 T _ZN4llvm3vfs18InMemoryFileSystemD0Ev
00000000007a6740 T _ZN4llvm3vfs10FileSystemD0Ev
00000000007a6760 T _ZN4llvm3vfs10FileSystem6existsERKNS_5TwineE
00000000007a67f0 T _ZN4llvm3vfs17OverlayFileSystem7isLocalERKNS_5TwineERb
00000000007a6870 T _ZNK4llvm3vfs17OverlayFileSystem11getRealPathERKNS_5TwineERNS_15SmallVectorImplIcEE
00000000007a68f0 T _ZN4llvm3vfs21RedirectingFileSystem26setCurrentWorkingDirectoryERKNS_5TwineE
00000000007a6b00 T _ZN4llvm3vfs17getRealFileSystemEv
00000000007a6ba0 T _ZN4llvm3vfs6detail11DirIterImplD1Ev
00000000007a73d0 T _ZN4llvm3vfs6detail11DirIterImplD0Ev
00000000007a73f0 T _ZN4llvm3vfs21RedirectingFileSystemC2ENS_18IntrusiveRefCntPtrINS0_10FileSystemEEE
00000000007a74f0 T _ZN4llvm3vfs21RedirectingFileSystem28setExternalContentsPrefixDirENS_9StringRefE
00000000007a7640 T _ZNK4llvm3vfs21RedirectingFileSystem28getExternalContentsPrefixDirEv
00000000007a7650 T _ZNK4llvm3vfs21RedirectingFileSystem9dumpEntryERNS_11raw_ostreamEPNS1_5EntryEi
00000000007a78f0 T _ZNK4llvm3vfs21RedirectingFileSystem4dumpERNS_11raw_ostreamE
00000000007a7cd0 T _ZNK4llvm3vfs21RedirectingFileSystem10lookupPathENS_3sys4path14const_iteratorES4_PNS1_5EntryE
00000000007a7f80 T _ZNK4llvm3vfs21RedirectingFileSystem10lookupPathERKNS_5TwineE
00000000007a8240 T _ZNK4llvm3vfs21RedirectingFileSystem11getRealPathERKNS_5TwineERNS_15SmallVectorImplIcEE
00000000007a8370 T _ZN4llvm3vfs22getNextVirtualUniqueIDEv
00000000007a83c0 T _ZN4llvm3vfs18InMemoryFileSystemC1Eb
00000000007a88a0 T _ZN4llvm3vfs10FileSystem16getBufferForFileERKNS_5TwineElbb
00000000007a8950 T _ZN4llvm3vfs17OverlayFileSystem15openFileForReadERKNS_5TwineE
00000000007a8a70 w _ZNSt6vectorISt10unique_ptrIN4llvm3vfs21RedirectingFileSystem5EntryESt14default_deleteIS4_EESaIS7_EED1Ev
00000000007a8ae0 w _ZNSt16_Sp_counted_baseILN9__gnu_cxx12_Lock_policyE2EE10_M_releaseEv
00000000007a8b60 T _ZN4llvm3vfs22VFSFromYamlDirIterImpl17incrementExternalEv
00000000007a8d60 T _ZN4llvm3vfs22VFSFromYamlDirIterImpl16incrementContentEb
00000000007a9170 w _ZN4llvm23SmallVectorTemplateBaseINS_18IntrusiveRefCntPtrINS_3vfs10FileSystemEEELb0EE4growEm
00000000007a9360 T _ZN4llvm3vfs17OverlayFileSystemC2ENS_18IntrusiveRefCntPtrINS0_10FileSystemEEE
00000000007a93a0 T _ZN4llvm3vfs17OverlayFileSystem11pushOverlayENS_18IntrusiveRefCntPtrINS0_10FileSystemEEE
00000000007a9620 w _ZN4llvm15SmallVectorImplIcEaSEOS1_
00000000007a9e50 T _ZN4llvm3vfs24createPhysicalFileSystemEv
00000000007a9ea0 w _ZN4llvm23SmallVectorTemplateBaseINS_3vfs12YAMLVFSEntryELb0EE4growEm
00000000007aa4d0 w _ZNSt6vectorIN4llvm3vfs12YAMLVFSEntryESaIS2_EE17_M_realloc_insertIJRNS0_9StringRefES7_EEEvN9__gnu_cxx17__normal_iteratorIPS2_S4_EEDpOT_
00000000007aa870 T _ZN4llvm3vfs13YAMLVFSWriter14addFileMappingENS_9StringRefES2_
00000000007aa930 w _ZNSt6vectorISt10unique_ptrIN4llvm3vfs21RedirectingFileSystem5EntryESt14default_deleteIS4_EESaIS7_EE17_M_realloc_insertIJS7_EEEvN9__gnu_cxx17__normal_iteratorIPS7_S9_EEDpOT_
00000000007aab50 w _ZNSt6vectorISt10unique_ptrIN4llvm3vfs21RedirectingFileSystem5EntryESt14default_deleteIS4_EESaIS7_EE12emplace_backIJS7_EEEvDpOT_
00000000007ab400 T _ZN4llvm3vfs18InMemoryFileSystem15openFileForReadERKNS_5TwineE
00000000007ab520 T _ZN4llvm3vfs18InMemoryFileSystem6statusERKNS_5TwineE
00000000007ab670 T _ZN4llvm3vfs18InMemoryFileSystem7addFileERKNS_5TwineElSt10unique_ptrINS_12MemoryBufferESt14default_deleteIS6_EENS_8OptionalIjEESB_NSA_INS_3sys2fs9file_typeEEENSA_INSD_5permsEEEPKNS0_6detail12InMemoryFileE
00000000007ac610 T _ZN4llvm3vfs18InMemoryFileSystem7addFileERKNS_5TwineElSt10unique_ptrINS_12MemoryBufferESt14default_deleteIS6_EENS_8OptionalIjEESB_NSA_INS_3sys2fs9file_typeEEENSA_INSD_5permsEEE
00000000007ac690 T _ZN4llvm3vfs18InMemoryFileSystem12addFileNoOwnERKNS_5TwineElPNS_12MemoryBufferENS_8OptionalIjEES8_NS7_INS_3sys2fs9file_typeEEENS7_INSA_5permsEEE
00000000007ac780 T _ZN4llvm3vfs18InMemoryFileSystem11addHardLinkERKNS_5TwineES4_
00000000007acb90 T _ZN4llvm3vfs18InMemoryFileSystem9dir_beginERKNS_5TwineERSt10error_code
00000000007ace70 T _ZNK4llvm3vfs18InMemoryFileSystem8toStringB5cxx11Ev
00000000007ad220 w _ZNSt6vectorIN4llvm3vfs18directory_iteratorESaIS2_EE17_M_realloc_insertIJRKS2_EEEvN9__gnu_cxx17__normal_iteratorIPS2_S4_EEDpOT_
00000000007ad500 T _ZN4llvm3vfs28recursive_directory_iterator9incrementERSt10error_code
00000000007ad7f0 T _ZN4llvm3vfs28recursive_directory_iteratorC1ERNS0_10FileSystemERKNS_5TwineERSt10error_code
00000000007ad920 w _ZNSt7__cxx1112basic_stringIcSt11char_traitsIcESaIcEE12_M_constructIPcEEvT_S7_St20forward_iterator_tag
00000000007ae2d0 T _ZNK4llvm3vfs21RedirectingFileSystem12makeAbsoluteERNS_15SmallVectorImplIcEE
00000000007ae450 T _ZN4llvm3vfs21RedirectingFileSystem6statusERKNS_5TwineEPNS1_5EntryE
00000000007ae990 T _ZN4llvm3vfs21RedirectingFileSystem6statusERKNS_5TwineE
00000000007aea50 T _ZN4llvm3vfs21RedirectingFileSystem15openFileForReadERKNS_5TwineE
00000000007af550 T _ZN4llvm3vfs17OverlayFileSystem9dir_beginERKNS_5TwineERSt10error_code
00000000007af7c0 T _ZN4llvm3vfs22VFSFromYamlDirIterImpl13incrementImplEb
00000000007af9b0 T _ZN4llvm3vfs22VFSFromYamlDirIterImplC1ERKNS_5TwineEN9__gnu_cxx17__normal_iteratorIPSt10unique_ptrINS0_21RedirectingFileSystem5EntryESt14default_deleteIS9_EESt6vectorISC_SaISC_EEEESH_bRNS0_10FileSystemERSt10error_code
00000000007afa90 T _ZN4llvm3vfs21RedirectingFileSystem9dir_beginERKNS_5TwineERSt10error_code
00000000007afcc0 T _ZN4llvm3vfs22VFSFromYamlDirIterImpl9incrementEv
00000000007b2200 T _ZN4llvm3vfs21RedirectingFileSystem6createESt10unique_ptrINS_12MemoryBufferESt14default_deleteIS3_EEPFvRKNS_12SMDiagnosticEPvENS_9StringRefESA_NS_18IntrusiveRefCntPtrINS0_10FileSystemEEE
00000000007b25e0 T _ZN4llvm3vfs14getVFSFromYAMLESt10unique_ptrINS_12MemoryBufferESt14default_deleteIS2_EEPFvRKNS_12SMDiagnosticEPvENS_9StringRefES9_NS_18IntrusiveRefCntPtrINS0_10FileSystemEEE
00000000007b26a0 T _ZN4llvm3vfs18collectVFSFromYAMLESt10unique_ptrINS_12MemoryBufferESt14default_deleteIS2_EEPFvRKNS_12SMDiagnosticEPvENS_9StringRefERNS_15SmallVectorImplINS0_12YAMLVFSEntryEEES9_NS_18IntrusiveRefCntPtrINS0_10FileSystemEEE
00000000007b27f0 w _ZSt4swapIN4llvm3vfs12YAMLVFSEntryEENSt9enable_ifIXsrSt6__and_IJSt6__not_ISt15__is_tuple_likeIT_EESt21is_move_constructibleIS7_ESt18is_move_assignableIS7_EEE5valueEvE4typeERS7_SH_
00000000007b3ec0 T _ZN4llvm3vfs13YAMLVFSWriter5writeERNS_11raw_ostreamE
00000000007b47c0 w _ZNSt17_Function_handlerIFvRKN4llvm2cl13boolOrDefaultEENS1_3optIS2_Lb0ENS1_6parserIS2_EEE8CallbackMUlS4_E_EE9_M_invokeERKSt9_Any_dataS4_
00000000007b47d0 w _ZNSt14_Function_base13_Base_managerIN4llvm2cl3optINS2_13boolOrDefaultELb0ENS2_6parserIS4_EEE8CallbackMUlRKS4_E_EE10_M_managerERSt9_Any_dataRKSC_St18_Manager_operation
00000000007b4a80 T _ZN4llvm9WithColor13colorsEnabledEv
00000000007b4af0 T _ZN4llvm9WithColorC1ERNS_11raw_ostreamENS_14HighlightColorEb
00000000007b4ca0 T _ZN4llvm9WithColor11changeColorENS_11raw_ostream6ColorsEbb
00000000007b4d10 T _ZN4llvm9WithColor10resetColorEv
00000000007b4d50 T _ZN4llvm9WithColorD1Ev
00000000007b4d60 T _ZN4llvm9WithColor5errorERNS_11raw_ostreamENS_9StringRefEb
00000000007b4eb0 T _ZN4llvm9WithColor5errorEv
00000000007b4ee0 T _ZN4llvm9WithColor7warningERNS_11raw_ostreamENS_9StringRefEb
00000000007b5030 T _ZN4llvm9WithColor7warningEv
00000000007b5060 T _ZN4llvm9WithColor4noteERNS_11raw_ostreamENS_9StringRefEb
00000000007b51b0 T _ZN4llvm9WithColor4noteEv
00000000007b51e0 T _ZN4llvm9WithColor6remarkERNS_11raw_ostreamENS_9StringRefEb
00000000007b5330 T _ZN4llvm9WithColor6remarkEv
00000000007b5380 T _ZN4llvm4yaml12SequenceNode6anchorEv
00000000007b5550 T _ZN4llvm4yaml7Scanner12skip_nb_charEPKc
00000000007b55f0 T _ZN4llvm4yaml7Scanner12skip_s_spaceEPKc
00000000007b5610 T _ZN4llvm4yaml7Scanner12skip_s_whiteEPKc
00000000007b5640 T _ZN4llvm4yaml7Scanner12skip_ns_charEPKc
00000000007b5860 T _ZN4llvm4yaml6escapeB5cxx11ENS_9StringRefEb
00000000007b64f0 T _ZN4llvm4yaml7Scanner12skip_b_breakEPKc
00000000007b6540 T _ZN4llvm4yaml7Scanner10skip_whileEMS1_FPKcS3_ES3_
00000000007b6590 T _ZN4llvm4yaml7Scanner12advanceWhileEMS1_FPKcS3_E
00000000007b65c0 T _ZN4llvm4yaml7Scanner16scan_ns_uri_charEv
00000000007b66c0 T _ZN4llvm4yaml7Scanner7consumeEj
00000000007b6820 T _ZN4llvm4yaml7Scanner4skipEj
00000000007b6830 T _ZN4llvm4yaml7Scanner14isBlankOrBreakEPKc
00000000007b6860 T _ZN4llvm4yaml7Scanner25consumeLineBreakIfPresentEv
00000000007b68a0 T _ZN4llvm4yaml7Scanner22saveSimpleKeyCandidateENS_13AllocatorListINS0_5TokenENS_20BumpPtrAllocatorImplINS_15MallocAllocatorELm4096ELm4096EEEE12IteratorImplIS3_NS_14ilist_iteratorINS_12ilist_detail12node_optionsINS7_4NodeELb0ELb0EvEELb0ELb0EEEEEjb
00000000007b6960 T _ZN4llvm4yaml7Scanner30removeStaleSimpleKeyCandidatesEv
00000000007b6b10 T _ZN4llvm4yaml7Scanner36removeSimpleKeyCandidatesOnFlowLevelEj
00000000007b6b50 T _ZN4llvm4yaml7Scanner12unrollIndentEi
00000000007b6e10 T _ZN4llvm4yaml7Scanner10rollIndentEiNS0_5Token9TokenKindENS_13AllocatorListIS2_NS_20BumpPtrAllocatorImplINS_15MallocAllocatorELm4096ELm4096EEEE12IteratorImplIS2_NS_14ilist_iteratorINS_12ilist_detail12node_optionsINS8_4NodeELb0ELb0EvEELb0ELb0EEEEE
00000000007b70e0 T _ZN4llvm4yaml7Scanner11skipCommentEv
00000000007b7120 T _ZN4llvm4yaml7Scanner15scanToNextTokenEv
00000000007b71a0 T _ZN4llvm4yaml7Scanner15scanStreamStartEv
00000000007b7550 T _ZN4llvm4yaml7Scanner13scanStreamEndEv
00000000007b77f0 T _ZN4llvm4yaml7Scanner21scanDocumentIndicatorEb
00000000007b7a90 T _ZN4llvm4yaml7Scanner23scanFlowCollectionStartEb
00000000007b7d30 T _ZN4llvm4yaml7Scanner21scanFlowCollectionEndEb
00000000007b7fd0 T _ZN4llvm4yaml7Scanner13scanFlowEntryEv
00000000007b8260 T _ZN4llvm4yaml7Scanner14scanBlockEntryEv
00000000007b8500 T _ZN4llvm4yaml7Scanner7scanKeyEv
00000000007b87c0 T _ZN4llvm4yaml7Scanner9scanValueEv
00000000007b8d50 T _ZN4llvm4yaml7Scanner14scanFlowScalarEb
00000000007b91c0 T _ZN4llvm4yaml7Scanner17scanAliasOrAnchorEb
00000000007b9550 T _ZN4llvm4yaml7Scanner26scanBlockChompingIndicatorEv
00000000007b9590 T _ZN4llvm4yaml7Scanner29scanBlockIndentationIndicatorEv
00000000007b95d0 T _ZN4llvm4yaml7Scanner21findBlockScalarIndentERjjS2_Rb
00000000007b9750 T _ZN4llvm4yaml7Scanner21scanBlockScalarIndentEjjRb
00000000007b98e0 T _ZN4llvm4yaml7Scanner7scanTagEv
00000000007b9c10 T _ZN4llvm4yaml6Stream6failedEv
00000000007b9c20 T _ZN4llvm4yaml6Stream10printErrorEPNS0_4NodeERKNS_5TwineE
00000000007b9ca0 T _ZN4llvm4yaml6Stream3endEv
00000000007b9cb0 T _ZN4llvm4yaml4Node12getAllocatorEv
00000000007b9cc0 T _ZNK4llvm4yaml8Document8setErrorERKNS_5TwineERNS0_5TokenE
00000000007b9d50 T _ZNK4llvm4yaml4Node8setErrorERKNS_5TwineERNS0_5TokenE
00000000007b9d60 T _ZNK4llvm4yaml10ScalarNode20unescapeDoubleQuotedENS_9StringRefEmRNS_15SmallVectorImplIcEE
00000000007ba800 T _ZNK4llvm4yaml10ScalarNode8getValueERNS_15SmallVectorImplIcEE
00000000007bab10 T _ZNK4llvm4yaml8Document6failedEv
00000000007bab20 T _ZNK4llvm4yaml4Node6failedEv
00000000007bad60 T _ZN4llvm4yaml7Scanner15scanPlainScalarEv
00000000007bb420 T _ZN4llvm4yaml7Scanner21scanBlockScalarHeaderERcRjRb
00000000007bb6d0 T _ZN4llvm4yaml7Scanner15scanBlockScalarEb
00000000007bbfc0 T _ZN4llvm4yaml7Scanner13scanDirectiveEv
00000000007bc2b0 T _ZN4llvm4yaml7Scanner15fetchMoreTokensEv
00000000007bc810 T _ZN4llvm4yaml7Scanner8peekNextEv
00000000007bcbc0 T _ZN4llvm4yaml7Scanner7getNextEv
00000000007bcdb0 T _ZN4llvm4yaml8Document7getNextEv
00000000007bce00 T _ZN4llvm4yaml4Node7getNextEv
00000000007bce50 T _ZN4llvm4yaml8Document18parseYAMLDirectiveEv
00000000007bceb0 T _ZN4llvm4yaml8Document11expectTokenEi
00000000007bcf60 T _ZN4llvm4yaml8Document8peekNextEv
00000000007bcf70 T _ZN4llvm4yaml4Node8peekNextEv
00000000007bcf80 T _ZN4llvm4yaml4NodeC2EjRSt10unique_ptrINS0_8DocumentESt14default_deleteIS3_EENS_9StringRefES8_
00000000007bcfe0 T _ZN4llvm4yaml8Document14parseBlockNodeEv
00000000007bde30 T _ZN4llvm4yaml4Node14parseBlockNodeEv
00000000007bde40 T _ZN4llvm4yaml12KeyValueNode6getKeyEv
00000000007be070 T _ZN4llvm4yaml12KeyValueNode8getValueEv
00000000007be360 T _ZN4llvm4yaml11MappingNode9incrementEv
00000000007be6d0 T _ZN4llvm4yaml12SequenceNode9incrementEv
00000000007bea10 T _ZN4llvm4yaml8Document4skipEv
00000000007bead0 w _ZNKSt8_Rb_treeIN4llvm9StringRefESt4pairIKS1_S1_ESt10_Select1stIS4_ESt4lessIS1_ESaIS4_EE4findERS3_
00000000007bec00 T _ZNK4llvm4yaml4Node14getVerbatimTagB5cxx11Ev
00000000007bf660 w _ZNSt8_Rb_treeIN4llvm9StringRefESt4pairIKS1_S1_ESt10_Select1stIS4_ESt4lessIS1_ESaIS4_EE8_M_eraseEPSt13_Rb_tree_nodeIS4_E
00000000007bf6b0 T _ZN4llvm4yaml6StreamD1Ev
00000000007bf8b0 T _ZN4llvm4yaml7Scanner4initENS_15MemoryBufferRefE
00000000007bf9e0 T _ZN4llvm4yaml7ScannerC2ENS_9StringRefERNS_9SourceMgrEbPSt10error_code
00000000007bfae0 T _ZN4llvm4yaml10dumpTokensENS_9StringRefERNS_11raw_ostreamE
00000000007c0690 T _ZN4llvm4yaml10scanTokensENS_9StringRefE
00000000007c0940 T _ZN4llvm4yaml6StreamC2ENS_9StringRefERNS_9SourceMgrEbPSt10error_code
00000000007c09b0 T _ZN4llvm4yaml7ScannerC1ENS_15MemoryBufferRefERNS_9SourceMgrEbPSt10error_code
00000000007c0a70 T _ZN4llvm4yaml6StreamC1ENS_15MemoryBufferRefERNS_9SourceMgrEbPSt10error_code
00000000007c0af0 w _ZNSt8_Rb_treeIN4llvm9StringRefESt4pairIKS1_S1_ESt10_Select1stIS4_ESt4lessIS1_ESaIS4_EE24_M_get_insert_unique_posERS3_
00000000007c0cc0 w _ZNSt8_Rb_treeIN4llvm9StringRefESt4pairIKS1_S1_ESt10_Select1stIS4_ESt4lessIS1_ESaIS4_EE29_M_get_insert_hint_unique_posESt23_Rb_tree_const_iteratorIS4_ERS3_
00000000007c0fe0 w _ZNSt8_Rb_treeIN4llvm9StringRefESt4pairIKS1_S1_ESt10_Select1stIS4_ESt4lessIS1_ESaIS4_EE22_M_emplace_hint_uniqueIJRKSt21piecewise_construct_tSt5tupleIJOS1_EESF_IJEEEEESt17_Rb_tree_iteratorIS4_ESt23_Rb_tree_const_iteratorIS4_EDpOT_
00000000007c1110 T _ZN4llvm4yaml8Document17parseTAGDirectiveEv
00000000007c14f0 T _ZN4llvm4yaml8Document15parseDirectivesEv
00000000007c1670 T _ZN4llvm4yaml8DocumentC1ERNS0_6StreamE
00000000007c1980 T _ZN4llvm4yaml6Stream5beginEv
00000000007c1ae0 T _ZN4llvm4yaml6Stream4skipEv
00000000007c1d20 T _ZNK4llvm4yaml5Input10outputtingEv
00000000007c1d30 T _ZN4llvm4yaml5Input21postflightFlowElementEPv
00000000007c1d40 T _ZN4llvm4yaml5Input15endFlowSequenceEv
00000000007c1d50 T _ZN4llvm4yaml5Input15beginEnumScalarEv
00000000007c1d60 T _ZN4llvm4yaml5Input17matchEnumFallbackEv
00000000007c1d80 T _ZNK4llvm4yaml6Output10outputtingEv
00000000007c1d90 T _ZN4llvm4yaml6Output16preflightElementEjRPv
00000000007c1da0 T _ZN4llvm4yaml6Output21postflightFlowElementEPv
00000000007c1db0 T _ZN4llvm4yaml6Output15beginEnumScalarEv
00000000007c1dc0 T _ZN4llvm4yaml6Output17matchEnumFallbackEv
00000000007c1de0 T _ZN4llvm4yaml6Output8setErrorERKNS_5TwineE
00000000007c1ec0 T _ZN4llvm4yaml5Input6mapTagENS_9StringRefEb
00000000007c1f80 T _ZN4llvm4yaml6Output13endEnumScalarEv
00000000007c1f90 T _ZN4llvm4yaml5Input11getNodeKindEv
00000000007c1fc0 T _ZN4llvm4yaml6Output4keysEv
00000000007c1fe0 T _ZN4llvm4yaml6Output11getNodeKindEv
00000000007c21f0 T _ZN4llvm4yaml5Input15matchEnumScalarEPKcb
00000000007c22a0 T _ZN4llvm4yaml5Input12beginMappingEv
00000000007c2310 T _ZN4llvm4yaml5Input20preflightFlowElementEjRPv
00000000007c2350 T _ZN4llvm4yaml5Input16preflightElementEjRPv
00000000007c2390 T _ZN4llvm4yaml5Input16beginFlowMappingEv
00000000007c2590 T _ZN4llvm4yaml5Input9scalarTagERNSt7__cxx1112basic_stringIcSt11char_traitsIcESaIcEEE
00000000007c26c0 T _ZN4llvm4yaml6Output13beginSequenceEv
00000000007c2720 T _ZN4llvm4yaml6Output12beginMappingEv
00000000007c2780 T _ZN4llvm4yaml6Output13postflightKeyEPv
00000000007c2820 T _ZN4llvm4yaml6Output17postflightElementEPv
00000000007c28c0 T _ZN4llvm4yaml2IOC1EPv
00000000007c28e0 T _ZN4llvm4yaml2IOD1Ev
00000000007c28f0 T _ZN4llvm4yaml6OutputD1Ev
00000000007c2930 T _ZN4llvm4yaml6OutputD0Ev
00000000007c2950 T _ZN4llvm4yaml5InputD1Ev
00000000007c2ac0 T _ZN4llvm4yaml5InputD0Ev
00000000007c2ae0 T _ZN4llvm4yaml2IOD0Ev
00000000007c2b00 T _ZNK4llvm4yaml2IO10getContextEv
00000000007c2b10 T _ZN4llvm4yaml2IO10setContextEPv
00000000007c2b20 T _ZN4llvm4yaml5InputC2ENS_9StringRefEPvPFvRKNS_12SMDiagnosticES3_ES3_
00000000007c2c80 T _ZN4llvm4yaml5InputC1ENS_15MemoryBufferRefEPvPFvRKNS_12SMDiagnosticES3_ES3_
00000000007c2df0 T _ZN4llvm4yaml5Input5errorEv
00000000007c2e00 T _ZNK4llvm4yaml5Input14getCurrentNodeEv
00000000007c2e20 T _ZN4llvm4yaml5Input8setErrorEPNS0_4NodeERKNS_5TwineE
00000000007c2e50 T _ZN4llvm4yaml5Input8setErrorEPNS1_5HNodeERKNS_5TwineE
00000000007c2e60 T _ZN4llvm4yaml5Input13endEnumScalarEv
00000000007c2ee0 T _ZN4llvm4yaml5Input8setErrorERKNS_5TwineE
00000000007c2f00 T _ZN4llvm4yaml5Input12scalarStringERNS_9StringRefENS0_11QuotingTypeE
00000000007c2f90 T _ZN4llvm4yaml5Input13beginSequenceEv
00000000007c3070 T _ZN4llvm4yaml5Input11bitSetMatchEPKcb
00000000007c3250 T _ZN4llvm4yaml5Input15endBitSetScalarEv
00000000007c3320 T _ZN4llvm4yaml5Input17blockScalarStringERNS_9StringRefE
00000000007c33d0 T _ZN4llvm4yaml5Input17beginFlowSequenceEv
00000000007c34d0 T _ZN4llvm4yaml6OutputC1ERNS_11raw_ostreamEPvi
00000000007c3550 T _ZN4llvm4yaml6Output6outputENS_9StringRefE
00000000007c35b0 T _ZN4llvm4yaml6Output12endDocumentsEv
00000000007c35d0 T _ZN4llvm4yaml6Output20preflightFlowElementEjRPv
00000000007c3680 T _ZN4llvm4yaml6Output11bitSetMatchEPKcb
00000000007c36f0 T _ZN4llvm4yaml6Output13outputNewLineEv
00000000007c3740 T _ZN4llvm4yaml6Output9paddedKeyENS_9StringRefE
00000000007c37c0 T _ZN4llvm4yaml6Output7flowKeyENS_9StringRefE
00000000007c38a0 T _ZN4llvm4yaml6Output15inSeqAnyElementENS1_7InStateE
00000000007c38b0 T _ZN4llvm4yaml6Output21canElideEmptySequenceEv
00000000007c38f0 T _ZN4llvm4yaml6Output19inFlowSeqAnyElementENS1_7InStateE
00000000007c3900 T _ZN4llvm4yaml6Output12newLineCheckEv
00000000007c3a30 T _ZN4llvm4yaml6Output17beginBitSetScalarERb
00000000007c3a70 T _ZN4llvm4yaml6Output9scalarTagERNSt7__cxx1112basic_stringIcSt11char_traitsIcESaIcEEE
00000000007c3ac0 T _ZN4llvm4yaml6Output10endMappingEv
00000000007c3b30 T _ZN4llvm4yaml6Output11endSequenceEv
00000000007c3ba0 T _ZN4llvm4yaml6Output12preflightKeyEPKcbbRbRPv
00000000007c3c50 T _ZN4llvm4yaml6Output17blockScalarStringERNS_9StringRefE
00000000007c3d80 T _ZN4llvm4yaml6Output16beginFlowMappingEv
00000000007c3df0 T _ZN4llvm4yaml6Output17beginFlowSequenceEv
00000000007c3e60 T _ZN4llvm4yaml6Output6mapTagENS_9StringRefEb
00000000007c3fa0 T _ZN4llvm4yaml6Output11inMapAnyKeyENS1_7InStateE
00000000007c3fb0 T _ZN4llvm4yaml6Output15inFlowMapAnyKeyENS1_7InStateE
00000000007c3fc0 T _ZN4llvm4yaml6Output19outputUpToEndOfLineENS_9StringRefE
00000000007c4020 T _ZN4llvm4yaml6Output14endFlowMappingEv
00000000007c4040 T _ZN4llvm4yaml6Output14beginDocumentsEv
00000000007c4060 T _ZN4llvm4yaml6Output17preflightDocumentEj
00000000007c4090 T _ZN4llvm4yaml6Output15endFlowSequenceEv
00000000007c40b0 T _ZN4llvm4yaml6Output15endBitSetScalarEv
00000000007c40d0 T _ZN4llvm4yaml6Output15matchEnumScalarEPKcb
00000000007c4130 T _ZN4llvm4yaml6Output12scalarStringERNS_9StringRefENS0_11QuotingTypeE
00000000007c4330 T _ZN4llvm4yaml12ScalarTraitsIbvE6outputERKbPvRNS_11raw_ostreamE
00000000007c43b0 T _ZN4llvm4yaml12ScalarTraitsIbvE5inputENS_9StringRefEPvRb
00000000007c4400 T _ZN4llvm4yaml12ScalarTraitsINS_9StringRefEvE6outputERKS2_PvRNS_11raw_ostreamE
00000000007c4470 T _ZN4llvm4yaml12ScalarTraitsINS_9StringRefEvE5inputES2_PvRS2_
00000000007c4480 T _ZN4llvm4yaml12ScalarTraitsINSt7__cxx1112basic_stringIcSt11char_traitsIcESaIcEEEvE6outputERKS7_PvRNS_11raw_ostreamE
00000000007c44a0 T _ZN4llvm4yaml12ScalarTraitsINSt7__cxx1112basic_stringIcSt11char_traitsIcESaIcEEEvE5inputENS_9StringRefEPvRS7_
00000000007c46a0 T _ZN4llvm4yaml12ScalarTraitsIhvE6outputERKhPvRNS_11raw_ostreamE
00000000007c46c0 T _ZN4llvm4yaml12ScalarTraitsIhvE5inputENS_9StringRefEPvRh
00000000007c4740 T _ZN4llvm4yaml12ScalarTraitsItvE6outputERKtPvRNS_11raw_ostreamE
00000000007c4760 T _ZN4llvm4yaml12ScalarTraitsItvE5inputENS_9StringRefEPvRt
00000000007c47e0 T _ZN4llvm4yaml12ScalarTraitsIjvE6outputERKjPvRNS_11raw_ostreamE
00000000007c4800 T _ZN4llvm4yaml12ScalarTraitsIjvE5inputENS_9StringRefEPvRj
00000000007c4880 T _ZN4llvm4yaml12ScalarTraitsImvE6outputERKmPvRNS_11raw_ostreamE
00000000007c48a0 T _ZN4llvm4yaml12ScalarTraitsImvE5inputENS_9StringRefEPvRm
00000000007c4900 T _ZN4llvm4yaml12ScalarTraitsIavE6outputERKaPvRNS_11raw_ostreamE
00000000007c4920 T _ZN4llvm4yaml12ScalarTraitsIavE5inputENS_9StringRefEPvRa
00000000007c49b0 T _ZN4llvm4yaml12ScalarTraitsIsvE6outputERKsPvRNS_11raw_ostreamE
00000000007c49d0 T _ZN4llvm4yaml12ScalarTraitsIsvE5inputENS_9StringRefEPvRs
00000000007c4a60 T _ZN4llvm4yaml12ScalarTraitsIivE6outputERKiPvRNS_11raw_ostreamE
00000000007c4a80 T _ZN4llvm4yaml12ScalarTraitsIivE5inputENS_9StringRefEPvRi
00000000007c4b10 T _ZN4llvm4yaml12ScalarTraitsIlvE6outputERKlPvRNS_11raw_ostreamE
00000000007c4b30 T _ZN4llvm4yaml12ScalarTraitsIlvE5inputENS_9StringRefEPvRl
00000000007c4b90 T _ZN4llvm4yaml12ScalarTraitsIdvE6outputERKdPvRNS_11raw_ostreamE
00000000007c4c00 T _ZN4llvm4yaml12ScalarTraitsIdvE5inputENS_9StringRefEPvRd
00000000007c4d00 T _ZN4llvm4yaml12ScalarTraitsIfvE6outputERKfPvRNS_11raw_ostreamE
00000000007c4d70 T _ZN4llvm4yaml12ScalarTraitsIfvE5inputENS_9StringRefEPvRf
00000000007c4e70 T _ZN4llvm4yaml12ScalarTraitsINS0_4Hex8EvE6outputERKS2_PvRNS_11raw_ostreamE
00000000007c4ee0 T _ZN4llvm4yaml12ScalarTraitsINS0_4Hex8EvE5inputENS_9StringRefEPvRS2_
00000000007c4f60 T _ZN4llvm4yaml12ScalarTraitsINS0_5Hex16EvE6outputERKS2_PvRNS_11raw_ostreamE
00000000007c4fd0 T _ZN4llvm4yaml12ScalarTraitsINS0_5Hex16EvE5inputENS_9StringRefEPvRS2_
00000000007c5050 T _ZN4llvm4yaml12ScalarTraitsINS0_5Hex32EvE6outputERKS2_PvRNS_11raw_ostreamE
00000000007c50c0 T _ZN4llvm4yaml12ScalarTraitsINS0_5Hex32EvE5inputENS_9StringRefEPvRS2_
00000000007c5140 T _ZN4llvm4yaml12ScalarTraitsINS0_5Hex64EvE6outputERKS2_PvRNS_11raw_ostreamE
00000000007c51b0 T _ZN4llvm4yaml12ScalarTraitsINS0_5Hex64EvE5inputENS_9StringRefEPvRS2_
00000000007c5210 w _ZNSt6vectorIbSaIbEE14_M_fill_insertESt13_Bit_iteratormb
00000000007c58c0 T _ZN4llvm4yaml5Input17beginBitSetScalarERb
00000000007c59d0 T _ZN4llvm4yaml5Input4keysEv
00000000007c5b60 T _ZN4llvm4yaml5Input12preflightKeyEPKcbbRbRPv
00000000007c6200 w _ZNSt6vectorISt10unique_ptrIN4llvm4yaml5Input5HNodeESt14default_deleteIS4_EESaIS7_EE17_M_realloc_insertIJS7_EEEvN9__gnu_cxx17__normal_iteratorIPS7_S9_EEDpOT_
00000000007c6430 T _ZN4llvm4yaml5Input12createHNodesEPNS0_4NodeE
00000000007c7200 T _ZN4llvm4yaml5Input12nextDocumentEv
00000000007c7420 T _ZN4llvm4yaml5Input18setCurrentDocumentEv
00000000007c7710 w _ZSt9__find_ifIPNSt7__cxx1112basic_stringIcSt11char_traitsIcESaIcEEEN9__gnu_cxx5__ops16_Iter_equals_valIKN4llvm9StringRefEEEET_SE_SE_T0_St26random_access_iterator_tag
00000000007c7b10 T _ZN4llvm4yaml5Input10endMappingEv
00000000007c7b30 T _ZN4llvm4yaml5Input14endFlowMappingEv
00000000007c7b70 T _ZN4llvm14raw_os_ostreamD1Ev
00000000007c7ba0 T _ZN4llvm14raw_os_ostreamD0Ev
00000000007c7bc0 T _ZN4llvm14raw_os_ostream10write_implEPKcm
00000000007c7bd0 T _ZNK4llvm14raw_os_ostream11current_posEv
00000000007c7c30 T _ZNK4llvm11raw_ostream21preferred_buffer_sizeEv
00000000007c7c40 T _ZN4llvm14raw_fd_ostream6anchorEv
00000000007c7c50 T _ZNK4llvm19raw_svector_ostream11current_posEv
00000000007c7c60 T _ZN4llvm16raw_null_ostream10write_implEPKcm
00000000007c7c70 T _ZNK4llvm16raw_null_ostream11current_posEv
00000000007c7c80 T _ZN4llvm16raw_null_ostream11pwrite_implEPKcmm
00000000007c7c90 T _ZN4llvm19raw_svector_ostream11pwrite_implEPKcmm
00000000007c7cb0 T _ZN4llvm19raw_svector_ostream10write_implEPKcm
00000000007c7d20 T _ZN4llvm14raw_fd_ostream10write_implEPKcm
00000000007c7db0 T _ZNK4llvm14raw_fd_ostream21preferred_buffer_sizeEv
00000000007c7e40 T _ZNK4llvm14raw_fd_ostream12is_displayedEv
00000000007c7e50 T _ZNK4llvm14raw_fd_ostream10has_colorsEv
00000000007c7e60 T _ZN4llvm18raw_string_ostream10write_implEPKcm
00000000007c7e90 T _ZN4llvm11raw_ostreamD1Ev
00000000007c7f10 T _ZN4llvm16raw_null_ostreamD1Ev
00000000007c7f30 T _ZN4llvm16raw_null_ostreamD0Ev
00000000007c7f50 T _ZN4llvm11raw_ostreamD0Ev
00000000007c7f70 T _ZN4llvm11raw_ostream16SetBufferAndModeEPcmNS0_10BufferKindE
00000000007c7fc0 T _ZN4llvm11raw_ostreamlsEm
00000000007c7fe0 T _ZN4llvm11raw_ostreamlsEl
00000000007c8000 T _ZN4llvm11raw_ostreamlsEy
00000000007c8020 T _ZN4llvm11raw_ostreamlsEx
00000000007c8040 T _ZN4llvm11raw_ostream9write_hexEy
00000000007c8060 T _ZN4llvm11raw_ostreamlsENS0_6ColorsE
00000000007c8090 T _ZN4llvm11raw_ostreamlsEPKv
00000000007c80b0 T _ZN4llvm11raw_ostreamlsEd
00000000007c80d0 T _ZN4llvm11raw_ostream14flush_nonemptyEv
00000000007c80f0 T _ZN4llvm18raw_string_ostreamD1Ev
00000000007c8120 T _ZN4llvm18raw_string_ostreamD0Ev
00000000007c8140 T _ZN4llvm14raw_fd_ostreamD1Ev
00000000007c8260 T _ZN4llvm14raw_fd_ostreamD0Ev
00000000007c8280 T _ZN4llvm11raw_ostream11SetBufferedEv
00000000007c8300 T _ZN4llvm11raw_ostream5writeEh
00000000007c8390 T _ZN4llvm11raw_ostream13write_escapedENS_9StringRefEb
00000000007c8780 T _ZN4llvm11raw_ostream14copy_to_bufferEPKcm
00000000007c8800 T _ZN4llvm11raw_ostream5writeEPKcm
00000000007c8920 T _ZN4llvm14raw_fd_ostream11changeColorENS_11raw_ostream6ColorsEbb
00000000007c89d0 T _ZN4llvm14raw_fd_ostream10resetColorEv
00000000007c8a40 T _ZN4llvm14raw_fd_ostream12reverseColorEv
00000000007c8be0 T _ZN4llvm11raw_ostreamlsERKNS_18format_object_baseE
00000000007c8e10 T _ZN4llvm11raw_ostream10write_uuidEPKh
00000000007c8f10 T _ZN4llvm11raw_ostreamlsERKNS_19formatv_object_baseE
00000000007c9300 T _ZN4llvm11raw_ostream6indentEj
00000000007c9370 T _ZN4llvm11raw_ostreamlsERKNS_15FormattedStringE
00000000007c9510 T _ZN4llvm11raw_ostreamlsERKNS_14FormattedBytesE
00000000007c98f0 T _ZN4llvm11raw_ostreamlsERKNS_15FormattedNumberE
00000000007c9a60 T _ZN4llvm11raw_ostream11write_zerosEj
00000000007c9ad0 T _ZN4llvm14raw_fd_ostreamC2Eibb
00000000007c9b90 T _ZN4llvm14raw_fd_ostreamC2ENS_9StringRefERSt10error_codeNS_3sys2fs19CreationDispositionENS5_10FileAccessENS5_9OpenFlagsE
00000000007c9ca0 T _ZN4llvm14raw_fd_ostreamC2ENS_9StringRefERSt10error_code
00000000007c9cc0 T _ZN4llvm14raw_fd_ostreamC2ENS_9StringRefERSt10error_codeNS_3sys2fs19CreationDispositionE
00000000007c9ce0 T _ZN4llvm14raw_fd_ostreamC1ENS_9StringRefERSt10error_codeNS_3sys2fs10FileAccessE
00000000007c9d00 T _ZN4llvm14raw_fd_ostreamC1ENS_9StringRefERSt10error_codeNS_3sys2fs9OpenFlagsE
00000000007c9d20 T _ZN4llvm14raw_fd_ostream5closeEv
00000000007c9d60 T _ZN4llvm14raw_fd_ostream4seekEm
00000000007c9dc0 T _ZN4llvm14raw_fd_ostream11pwrite_implEPKcmm
00000000007c9e40 T _ZN4llvm4outsEv
00000000007c9ef0 T _ZN4llvm4errsEv
00000000007c9f80 T _ZN4llvm5nullsEv
00000000007cdb50 T llvm_regcomp
00000000007ce480 T llvm_regerror
00000000007d1040 T llvm_regexec
00000000007d25b0 T llvm_regfree
00000000007d2630 T llvm_strlcpy
00000000007d26a0 T _ZN4llvm8xxHash64ENS_9StringRefE
00000000007d2960 T _ZN4llvm8xxHash64ENS_8ArrayRefIhEE
00000000007d2970 T _ZN4llvm14CreateZ3SolverEv
00000000007d2990 T _ZNK4llvm7SMTSort4dumpEv
00000000007d29c0 T _ZNK4llvm7SMTExpr4dumpEv
00000000007d29f0 T _ZNK4llvm9SMTSolver4dumpEv
00000000007d2a20 T _ZN4llvm3sys11MemoryFenceEv
00000000007d2a30 T _ZN4llvm3sys14CompareAndSwapEPVjjj
00000000007d2b20 T _ZN4llvm3sys14DynamicLibrary9HandleSetD1Ev
00000000007d2bc0 T _ZN4llvm3sys14DynamicLibrary9HandleSet6DLOpenEPKcPNSt7__cxx1112basic_stringIcSt11char_traitsIcESaIcEEE
00000000007d2c30 T _ZN4llvm3sys14DynamicLibrary9HandleSet7DLCloseEPv
00000000007d2c40 T _ZN4llvm3sys14DynamicLibrary9HandleSet5DLSymEPvPKc
00000000007d2c50 T _ZN4llvm31SearchForAddressOfSpecialSymbolEPKc
00000000007d2cd0 T _ZN4llvm3sys14DynamicLibrary18getAddressOfSymbolEPKc
00000000007d2cf0 w _ZNSt6vectorIPvSaIS0_EE17_M_realloc_insertIJRKS0_EEEvN9__gnu_cxx17__normal_iteratorIPS0_S2_EEDpOT_
00000000007d2e50 T _ZN4llvm3sys14DynamicLibrary19getPermanentLibraryEPKcPNSt7__cxx1112basic_stringIcSt11char_traitsIcESaIcEEE
00000000007d3100 T LLVMLoadLibraryPermanently
00000000007d3130 T _ZN4llvm3sys14DynamicLibrary19addPermanentLibraryEPvPNSt7__cxx1112basic_stringIcSt11char_traitsIcESaIcEEE
00000000007d33d0 T _ZN4llvm3sys14DynamicLibrary9AddSymbolENS_9StringRefEPv
00000000007d3660 T LLVMAddSymbol
00000000007d36a0 T _ZN4llvm3sys14DynamicLibrary24SearchForAddressOfSymbolEPKc
00000000007d3a80 T LLVMSearchForAddressOfSymbol
00000000007d3a90 T _ZN4llvm3sys8StrErrorB5cxx11Ei
00000000007d3b30 T _ZN4llvm3sys8StrErrorB5cxx11Ev
00000000007d43e0 T _ZN4llvm3sys22getDefaultTargetTripleB5cxx11Ev
00000000007d4490 T _ZN4llvm3sys6detail24getHostCPUNameForPowerPCENS_9StringRefE
00000000007d4880 T _ZN4llvm3sys6detail20getHostCPUNameForARMENS_9StringRefE
00000000007d5570 T _ZN4llvm3sys6detail22getHostCPUNameForS390xENS_9StringRefE
00000000007d58c0 T _ZN4llvm3sys6detail20getHostCPUNameForBPFEv
00000000007d5a20 T _ZN4llvm3sys14getHostCPUNameEv
00000000007d6660 T _ZN4llvm3sys16getProcessTripleB5cxx11Ev
00000000007d69c0 w _ZNSt8_Rb_treeISt4pairIiiES1_St9_IdentityIS1_ESt4lessIS1_ESaIS1_EE8_M_eraseEPSt13_Rb_tree_nodeIS1_E
00000000007d6a10 w _ZNSt8_Rb_treeISt4pairIiiES1_St9_IdentityIS1_ESt4lessIS1_ESaIS1_EE16_M_insert_uniqueIRKS1_EES0_ISt17_Rb_tree_iteratorIS1_EbEOT_
00000000007d7500 T _ZN4llvm3sys23getHostNumPhysicalCoresEv
00000000007d7570 T _ZN4llvm3sys18getHostCPUFeaturesERNS_9StringMapIbNS_15MallocAllocatorEEE
00000000007da240 T _ZN4llvm3sys6Memory19releaseMappedMemoryERNS0_11MemoryBlockE
00000000007da2b0 T _ZN4llvm3sys6Memory26InvalidateInstructionCacheEPKvm
00000000007da2c0 T _ZN4llvm3sys6Memory19protectMappedMemoryERKNS0_11MemoryBlockEj
00000000007da510 T _ZN4llvm3sys6Memory20allocateMappedMemoryEmPKNS0_11MemoryBlockEjRSt10error_code
00000000007dacc0 T _ZN4llvm3sys4path3endENS_9StringRefE
00000000007dacf0 T _ZNK4llvm3sys4path14const_iteratoreqERKS2_
00000000007dad10 T _ZNK4llvm3sys4path14const_iteratormiERKS2_
00000000007dad20 T _ZN4llvm3sys4path4rendENS_9StringRefE
00000000007dad50 T _ZNK4llvm3sys4path16reverse_iteratoreqERKS2_
00000000007dadb0 T _ZNK4llvm3sys4path16reverse_iteratormiERKS2_
00000000007dadc0 T _ZN4llvm3sys4path16convert_to_slashB5cxx11ENS_9StringRefENS1_5StyleE
00000000007dafd0 T _ZN4llvm3sys4path12is_separatorEcNS1_5StyleE
00000000007db000 T _ZN4llvm3sys4path5beginENS_9StringRefENS1_5StyleE
00000000007db1b0 T _ZN4llvm3sys4path14const_iteratorppEv
00000000007db620 T _ZN4llvm3sys4path17replace_extensionERNS_15SmallVectorImplIcEERKNS_5TwineENS1_5StyleE
00000000007db880 T _ZN4llvm3sys4path16reverse_iteratorppEv
00000000007db9c0 T _ZN4llvm3sys4path6rbeginENS_9StringRefENS1_5StyleE
00000000007dba00 T _ZN4llvm3sys4path8filenameENS_9StringRefENS1_5StyleE
00000000007dba60 T _ZN4llvm3sys4path4stemENS_9StringRefENS1_5StyleE
00000000007dbad0 T _ZN4llvm3sys4path9extensionENS_9StringRefENS1_5StyleE
00000000007dbc00 T _ZN4llvm3sys4path11parent_pathENS_9StringRefENS1_5StyleE
00000000007dbc40 T _ZN4llvm3sys4path15remove_filenameERNS_15SmallVectorImplIcEENS1_5StyleE
00000000007dbc80 T _ZN4llvm3sys4path9root_pathENS_9StringRefENS1_5StyleE
00000000007dbe10 T _ZN4llvm3sys4path13relative_pathENS_9StringRefENS1_5StyleE
00000000007dbe50 T _ZN4llvm3sys4path9root_nameENS_9StringRefENS1_5StyleE
00000000007dbf30 T _ZN4llvm3sys4path14root_directoryENS_9StringRefENS1_5StyleE
00000000007dc100 T _ZN4llvm3sys4path13get_separatorENS1_5StyleE
00000000007dc120 T _ZN4llvm3sys4path13has_root_nameERKNS_5TwineENS1_5StyleE
00000000007dc240 T _ZN4llvm3sys4path6appendERNS_15SmallVectorImplIcEENS1_5StyleERKNS_5TwineES8_S8_S8_
00000000007dc9f0 T _ZN4llvm3sys4path6appendERNS_15SmallVectorImplIcEERKNS_5TwineES7_S7_S7_
00000000007dca10 T _ZN4llvm3sys4path6appendERNS_15SmallVectorImplIcEENS1_14const_iteratorES5_NS1_5StyleE
00000000007dcaf0 T _ZN4llvm3sys4path18has_root_directoryERKNS_5TwineENS1_5StyleE
00000000007dcc10 T _ZN4llvm3sys4path13has_root_pathERKNS_5TwineENS1_5StyleE
00000000007dcd30 T _ZN4llvm3sys4path17has_relative_pathERKNS_5TwineENS1_5StyleE
00000000007dce50 T _ZN4llvm3sys4path12has_filenameERKNS_5TwineENS1_5StyleE
00000000007dcf70 T _ZN4llvm3sys4path15has_parent_pathERKNS_5TwineENS1_5StyleE
00000000007dd090 T _ZN4llvm3sys4path8has_stemERKNS_5TwineENS1_5StyleE
00000000007dd1b0 T _ZN4llvm3sys4path13has_extensionERKNS_5TwineENS1_5StyleE
00000000007dd2d0 T _ZN4llvm3sys4path11is_absoluteERKNS_5TwineENS1_5StyleE
00000000007dd460 T _ZN4llvm3sys4path11is_relativeERKNS_5TwineENS1_5StyleE
00000000007dd480 T _ZN4llvm3sys4path23remove_leading_dotslashENS_9StringRefENS1_5StyleE
00000000007dd4f0 T _ZN4llvm3sys2fs12md5_contentsEi
00000000007dd610 T _ZN4llvm3sys2fs12status_knownERKNS1_17basic_file_statusE
00000000007dd620 T _ZN4llvm3sys2fs6existsERKNS1_17basic_file_statusE
00000000007dd640 T _ZN4llvm3sys2fs12is_directoryERKNS1_17basic_file_statusE
00000000007dd650 T _ZN4llvm3sys2fs15is_regular_fileERKNS1_17basic_file_statusE
00000000007dd660 T _ZN4llvm3sys2fs15is_symlink_fileERKNS1_17basic_file_statusE
00000000007dd670 T _ZN4llvm3sys2fs8is_otherERKNS1_17basic_file_statusE
00000000007dd6b0 T _ZN4llvm3sys2fs15directory_entry16replace_filenameERKNS_5TwineENS1_9file_typeENS1_17basic_file_statusE
00000000007dda30 T _ZNK4llvm3sys2fs17basic_file_status19getLastAccessedTimeEv
00000000007dda50 T _ZNK4llvm3sys2fs17basic_file_status23getLastModificationTimeEv
00000000007dda70 T _ZNK4llvm3sys2fs11file_status11getUniqueIDEv
00000000007dda80 T _ZNK4llvm3sys2fs11file_status12getLinkCountEv
00000000007dda90 T _ZN4llvm3sys2fs10disk_spaceERKNS_5TwineE
00000000007ddb70 T _ZN4llvm3sys2fs16set_current_pathERKNS_5TwineE
00000000007ddc20 T _ZN4llvm3sys2fs16create_directoryERKNS_5TwineEbNS1_5permsE
00000000007ddce0 T _ZN4llvm3sys2fs18create_directoriesERKNS_5TwineEbNS1_5permsE
00000000007ddf20 T _ZN4llvm3sys2fs11create_linkERKNS_5TwineES4_
00000000007de020 T _ZN4llvm3sys2fs16create_hard_linkERKNS_5TwineES4_
00000000007de120 T _ZN4llvm3sys2fs6removeERKNS_5TwineEb
00000000007de230 T _ZN4llvm3sys2fs8is_localERKNS_5TwineERb
00000000007de300 T _ZN4llvm3sys2fs8is_localEiRb
00000000007de390 T _ZN4llvm3sys2fs6renameERKNS_5TwineES4_
00000000007de490 T _ZN4llvm3sys2fs11resize_fileEim
00000000007de510 T _ZN4llvm3sys2fs6accessERKNS_5TwineENS1_10AccessModeE
00000000007de620 T _ZN4llvm3sys2fs17getMainExecutableB5cxx11EPKcPv
00000000007deb40 T _ZN4llvm3sys2fs11can_executeERKNS_5TwineE
00000000007deb60 T _ZN4llvm3sys2fs10equivalentENS1_11file_statusES2_
00000000007deba0 T _ZN4llvm3sys2fs6statusERKNS_5TwineERNS1_11file_statusEb
00000000007dedf0 T _ZN4llvm3sys2fs11getUniqueIDENS_5TwineERNS1_8UniqueIDE
00000000007dee90 T _ZN4llvm3sys2fs13get_file_typeERKNS_5TwineEb
00000000007def10 T _ZN4llvm3sys2fs12is_directoryERKNS_5TwineERb
00000000007defb0 T _ZN4llvm3sys2fs15is_regular_fileERKNS_5TwineERb
00000000007df050 T _ZN4llvm3sys2fs15is_symlink_fileERKNS_5TwineERb
00000000007df0f0 T _ZN4llvm3sys2fs8is_otherERKNS_5TwineERb
00000000007df190 T _ZN4llvm3sys2fs14getPermissionsERKNS_5TwineE
00000000007df230 T _ZN4llvm3sys2fs12current_pathERNS_15SmallVectorImplIcEE
00000000007df500 T _ZN4llvm3sys2fs10equivalentERKNS_5TwineES4_Rb
00000000007df680 T _ZN4llvm3sys2fs6statusEiRNS1_11file_statusE
00000000007df850 T _ZN4llvm3sys2fs8getUmaskEv
00000000007df870 T _ZN4llvm3sys2fs14setPermissionsERKNS_5TwineENS1_5permsE
00000000007df920 T _ZN4llvm3sys2fs14setPermissionsEiNS1_5permsE
00000000007df970 T _ZN4llvm3sys2fs32setLastAccessAndModificationTimeEiNSt6chrono10time_pointINS2_3_V212system_clockENS2_8durationIlSt5ratioILl1ELl1000000000EEEEEESA_
00000000007dfa40 T _ZN4llvm3sys2fs18mapped_file_region4initEimNS2_7mapmodeE
00000000007dfac0 T _ZN4llvm3sys2fs18mapped_file_regionC1EiNS2_7mapmodeEmmRSt10error_code
00000000007dfb10 T _ZN4llvm3sys2fs18mapped_file_regionD1Ev
00000000007dfb40 T _ZNK4llvm3sys2fs18mapped_file_region4sizeEv
00000000007dfb50 T _ZNK4llvm3sys2fs18mapped_file_region4dataEv
00000000007dfb60 T _ZNK4llvm3sys2fs18mapped_file_region10const_dataEv
00000000007dfb70 T _ZN4llvm3sys2fs6detail27directory_iterator_destructERNS2_12DirIterStateE
00000000007dfc80 T _ZN4llvm3sys2fs6detail28directory_iterator_incrementERNS2_12DirIterStateE
00000000007dfe40 T _ZN4llvm3sys2fs6detail28directory_iterator_constructERNS2_12DirIterStateENS_9StringRefEb
00000000007e0220 T _ZNK4llvm3sys2fs15directory_entry6statusEv
00000000007e0a40 T _ZN4llvm3sys2fs8openFileERKNS_5TwineERiNS1_19CreationDispositionENS1_10FileAccessENS1_9OpenFlagsEj
00000000007e0cb0 T _ZN4llvm3sys2fs14openNativeFileERKNS_5TwineENS1_19CreationDispositionENS1_10FileAccessENS1_9OpenFlagsEj
00000000007e0d40 T _ZN4llvm3sys2fs15openFileForReadERKNS_5TwineERiNS1_9OpenFlagsEPNS_15SmallVectorImplIcEE
00000000007e0db0 T _ZN4llvm3sys2fs9copy_fileERKNS_5TwineES4_
00000000007e0e70 T _ZN4llvm3sys2fs9copy_fileERKNS_5TwineEi
00000000007e0ef0 T _ZN4llvm3sys2fs12md5_contentsERKNS_5TwineE
00000000007e0fb0 T _ZN4llvm3sys2fs21openNativeFileForReadERKNS_5TwineENS1_9OpenFlagsEPNS_15SmallVectorImplIcEE
00000000007e1040 T _ZN4llvm3sys2fs14getStdinHandleEv
00000000007e1050 T _ZN4llvm3sys2fs15getStdoutHandleEv
00000000007e1060 T _ZN4llvm3sys2fs15getStderrHandleEv
00000000007e1070 T _ZN4llvm3sys2fs14readNativeFileEiNS_15MutableArrayRefIcEE
00000000007e1130 T _ZN4llvm3sys2fs19readNativeFileSliceEiNS_15MutableArrayRefIcEEm
00000000007e1200 T _ZN4llvm3sys2fs9closeFileERi
00000000007e1220 T _ZN4llvm3sys2fs18remove_directoriesERKNS_5TwineEb
00000000007e1290 T _ZN4llvm3sys4path14home_directoryERNS_15SmallVectorImplIcEE
00000000007e1ae0 T _ZN4llvm3sys2fs12expand_tildeERKNS_5TwineERNS_15SmallVectorImplIcEE
00000000007e1b10 T _ZN4llvm3sys2fs9real_pathERKNS_5TwineERNS_15SmallVectorImplIcEEb
00000000007e1db0 T _ZN4llvm3sys4path21system_temp_directoryEbRNS_15SmallVectorImplIcEE
00000000007e1f10 T _ZN4llvm3sys2fs8TempFileC1ENS_9StringRefEi
00000000007e2000 T _ZN4llvm3sys2fs8TempFileaSEOS2_
00000000007e20f0 T _ZN4llvm3sys2fs8TempFileC2EOS2_
00000000007e2120 T _ZN4llvm3sys2fs8TempFileD1Ev
00000000007e2150 T _ZN4llvm3sys2fs8TempFile7discardEv
00000000007e2280 T _ZN4llvm3sys2fs8TempFile4keepERKNS_5TwineE
00000000007e2410 T _ZN4llvm3sys2fs8TempFile4keepEv
00000000007e24c0 w _ZN4llvm15SmallVectorImplIcE4swapERS1_
00000000007e2660 T _ZN4llvm3sys2fs13make_absoluteERKNS_5TwineERNS_15SmallVectorImplIcEE
00000000007e29c0 T _ZN4llvm3sys2fs13make_absoluteERNS_15SmallVectorImplIcEE
00000000007e2ae0 T _ZN4llvm3sys4path11remove_dotsERNS_15SmallVectorImplIcEEbNS1_5StyleE
00000000007e2ff0 T _ZN4llvm3sys4path19replace_path_prefixERNS_15SmallVectorImplIcEERKNS_9StringRefES7_NS1_5StyleEb
00000000007e33e0 T _ZN4llvm3sys4path6nativeERNS_15SmallVectorImplIcEENS1_5StyleE
00000000007e3580 T _ZN4llvm3sys4path6nativeERKNS_5TwineERNS_15SmallVectorImplIcEENS1_5StyleE
00000000007e35b0 T _ZN4llvm3sys2fs16createUniquePathERKNS_5TwineERNS_15SmallVectorImplIcEEb
00000000007e3b00 T _ZN4llvm3sys2fs19createTemporaryFileERKNS_5TwineENS_9StringRefERiRNS_15SmallVectorImplIcEE
00000000007e3b10 T _ZN4llvm3sys2fs19createTemporaryFileERKNS_5TwineENS_9StringRefERNS_15SmallVectorImplIcEE
00000000007e3b90 T _ZN4llvm3sys2fs32getPotentiallyUniqueTempFileNameERKNS_5TwineENS_9StringRefERNS_15SmallVectorImplIcEE
00000000007e3be0 T _ZN4llvm3sys2fs28getPotentiallyUniqueFileNameERKNS_5TwineERNS_15SmallVectorImplIcEE
00000000007e3cb0 T _ZN4llvm3sys2fs21createUniqueDirectoryERKNS_5TwineERNS_15SmallVectorImplIcEE
00000000007e3e10 T _ZN4llvm3sys2fs16createUniqueFileERKNS_5TwineERiRNS_15SmallVectorImplIcEEj
00000000007e3f00 T _ZN4llvm3sys2fs16createUniqueFileERKNS_5TwineERNS_15SmallVectorImplIcEEj
00000000007e3f80 T _ZN4llvm3sys2fs8TempFile6createERKNS_5TwineEj
00000000007e4210 T _ZN4llvm3sys2fs18mapped_file_region9alignmentEv
00000000007e42e0 T _ZN4llvm3sys7Process21AreCoreFilesPreventedEv
00000000007e42f0 T _ZN4llvm3sys7Process4ExitEi
00000000007e4320 T _ZN4llvm3sys7Process11getPageSizeEv
00000000007e43f0 T _ZN4llvm3sys7Process14GetMallocUsageEv
00000000007e4430 T _ZN4llvm3sys7Process12GetTimeUsageERNSt6chrono10time_pointINS2_3_V212system_clockENS2_8durationIlSt5ratioILl1ELl1000000000EEEEEERS9_SC_
00000000007e44d0 T _ZN4llvm3sys7Process16PreventCoreFilesEv
00000000007e4520 T _ZN4llvm3sys7Process6GetEnvB5cxx11ENS_9StringRefE
00000000007e4760 T _ZN4llvm3sys7Process13FindInEnvPathENS_9StringRefES2_NS_8ArrayRefINSt7__cxx1112basic_stringIcSt11char_traitsIcESaIcEEEEE
00000000007e51c0 T _ZN4llvm3sys7Process13FindInEnvPathB5cxx11ENS_9StringRefES2_
00000000007e5210 T _ZN4llvm3sys7Process28FixupStandardFileDescriptorsEv
00000000007e53b0 T _ZN4llvm3sys7Process25SafelyCloseFileDescriptorEi
00000000007e5490 T _ZN4llvm3sys7Process25FileDescriptorIsDisplayedEi
00000000007e54b0 T _ZN4llvm3sys7Process21StandardInIsUserInputEv
00000000007e54c0 T _ZN4llvm3sys7Process22StandardOutIsDisplayedEv
00000000007e54d0 T _ZN4llvm3sys7Process22StandardErrIsDisplayedEv
00000000007e54e0 T _ZN4llvm3sys7Process18StandardOutColumnsEv
00000000007e5530 T _ZN4llvm3sys7Process18StandardErrColumnsEv
00000000007e5580 T _ZN4llvm3sys7Process23FileDescriptorHasColorsEi
00000000007e56a0 T _ZN4llvm3sys7Process20StandardOutHasColorsEv
00000000007e56b0 T _ZN4llvm3sys7Process20StandardErrHasColorsEv
00000000007e56c0 T _ZN4llvm3sys7Process18UseANSIEscapeCodesEb
00000000007e56d0 T _ZN4llvm3sys7Process15ColorNeedsFlushEv
00000000007e56e0 T _ZN4llvm3sys7Process11OutputColorEcbb
00000000007e5720 T _ZN4llvm3sys7Process10OutputBoldEb
00000000007e5730 T _ZN4llvm3sys7Process13OutputReverseEv
00000000007e5740 T _ZN4llvm3sys7Process10ResetColorEv
00000000007e5750 w _ZN4llvm12hash_combineIJliEEENS_9hash_codeEDpRKT_
00000000007e5870 T _ZN4llvm3sys7Process15GetRandomNumberEv
00000000007e6a80 T _ZN4llvm3sys11ProcessInfoC1Ev
00000000007e6aa0 T _ZN4llvm3sys17findProgramByNameB5cxx11ENS_9StringRefENS_8ArrayRefIS1_EE
00000000007e7030 T _ZN4llvm3sys4WaitERKNS0_11ProcessInfoEjbPNSt7__cxx1112basic_stringIcSt11char_traitsIcESaIcEEE
00000000007e7f80 T _ZN4llvm3sys19ChangeStdinToBinaryEv
00000000007e7fa0 T _ZN4llvm3sys20ChangeStdoutToBinaryEv
00000000007e7fc0 T _ZN4llvm3sys33commandLineFitsWithinSystemLimitsENS_9StringRefENS_8ArrayRefIS1_EE
00000000007e80b0 T _ZN4llvm3sys33commandLineFitsWithinSystemLimitsENS_9StringRefENS_8ArrayRefIPKcEE
00000000007e8220 w _ZNSt6vectorIPKcSaIS1_EE17_M_realloc_insertIJS1_EEEvN9__gnu_cxx17__normal_iteratorIPS1_S3_EEDpOT_
00000000007ea8a0 T _ZN4llvm3sys14ExecuteAndWaitENS_9StringRefENS_8ArrayRefIS1_EENS_8OptionalIS3_EENS2_INS4_IS1_EEEEjjPNSt7__cxx1112basic_stringIcSt11char_traitsIcESaIcEEEPb
00000000007ea9c0 T _ZN4llvm3sys13ExecuteNoWaitENS_9StringRefENS_8ArrayRefIS1_EENS_8OptionalIS3_EENS2_INS4_IS1_EEEEjPNSt7__cxx1112basic_stringIcSt11char_traitsIcESaIcEEEPb
00000000007eab00 T _ZN4llvm3sys21writeFileWithEncodingENS_9StringRefES1_NS0_21WindowsEncodingMethodE
00000000007eb560 T _ZN4llvm3sys17RunSignalHandlersEv
00000000007eb750 T _ZN4llvm3sys15CleanupOnSignalEm
00000000007eb860 T _ZN4llvm3sys20RunInterruptHandlersEv
00000000007eb920 T _ZN4llvm3sys20SetInterruptFunctionEPFvvE
00000000007eb930 T _ZN4llvm3sys21SetInfoSignalFunctionEPFvvE
00000000007eb940 T _ZN4llvm3sys28SetOneShotPipeSignalFunctionEPFvvE
00000000007eb950 T _ZN4llvm3sys31DefaultOneShotPipeSignalHandlerEv
00000000007eb970 T _ZN4llvm3sys18RemoveFileOnSignalENS_9StringRefEPNSt7__cxx1112basic_stringIcSt11char_traitsIcESaIcEEE
00000000007ebb10 T _ZN4llvm3sys22DontRemoveFileOnSignalENS_9StringRefE
00000000007ebd10 T _ZN4llvm3sys16AddSignalHandlerEPFvPvES1_
00000000007ebe50 T _ZN4llvm3sys27DisableSystemDialogsOnCrashEv
00000000007ebe60 T _ZN4llvm3sys28PrintStackTraceOnErrorSignalENS_9StringRefEb
00000000007ed830 T _ZN4llvm3sys15PrintStackTraceERNS_11raw_ostreamE
00000000007ed9d0 T _ZN4llvm14TargetRegistry7targetsEv
00000000007ed9e0 T _ZN4llvm14TargetRegistry12lookupTargetERKNSt7__cxx1112basic_stringIcSt11char_traitsIcESaIcEEERS6_
00000000007ee180 T _ZN4llvm14TargetRegistry12lookupTargetERKNSt7__cxx1112basic_stringIcSt11char_traitsIcESaIcEEERNS_6TripleERS6_
00000000007ee680 T _ZN4llvm14TargetRegistry14RegisterTargetERNS_6TargetEPKcS4_S4_PFbNS_6Triple8ArchTypeEEb
00000000007ee6d0 w _ZNSt6vectorISt4pairIN4llvm9StringRefEPKNS1_6TargetEESaIS6_EE17_M_realloc_insertIJS6_EEEvN9__gnu_cxx17__normal_iteratorIPS6_S8_EEDpOT_
00000000007ee860 T _ZN4llvm14TargetRegistry32printRegisteredTargetsForVersionERNS_11raw_ostreamE
00000000007eec80 T _ZN4llvm3sys15ThreadLocalImplD1Ev
00000000007eeca0 T _ZN4llvm3sys15ThreadLocalImplD0Ev
00000000007eecc0 T _ZN4llvm3sys15ThreadLocalImplC1Ev
00000000007eecf0 T _ZN4llvm3sys15ThreadLocalImpl11setInstanceEPKv
00000000007eed00 T _ZN4llvm3sys15ThreadLocalImpl11getInstanceEv
00000000007eed10 T _ZN4llvm3sys15ThreadLocalImpl14removeInstanceEv
00000000007ef0c0 T _ZN4llvm21llvm_is_multithreadedEv
00000000007ef0d0 T _ZN4llvm32heavyweight_hardware_concurrencyEv
00000000007ef100 T _ZN4llvm20hardware_concurrencyEv
00000000007ef180 T _ZN4llvm12get_threadidEv
00000000007ef190 T _ZN4llvm26get_max_thread_name_lengthEv
00000000007ef1a0 T _ZN4llvm15set_thread_nameERKNS_5TwineE
00000000007ef250 T _ZN4llvm15get_thread_nameERNS_15SmallVectorImplIcEE
00000000007ef3f0 T _ZN4llvm19set_thread_priorityENS_14ThreadPriorityE
00000000007ef450 T _ZN4llvm22llvm_execute_on_threadEPFvPvES0_NS_8OptionalIjEE
00000000007ef5e0 T _ZN4llvm28llvm_execute_on_thread_asyncENS_15unique_functionIFvvEEENS_8OptionalIjEE
00000000007ef6d0 T _ZN4llvm3sys17RunningOnValgrindEv
00000000007ef770 T _ZN4llvm3sys27ValgrindDiscardTranslationsEPKvm
00000000007ef810 T _ZN4llvm3sys8WatchdogC2Ej
00000000007ef820 T _ZN4llvm3sys8WatchdogD1Ev
00000000007ef830 T _ZN4llvm16AbstractCallSite15getCallbackUsesENS_17ImmutableCallSiteERNS_15SmallVectorImplIPKNS_3UseEEE
00000000007ef910 T _ZN4llvm16AbstractCallSiteC1EPKNS_3UseE
00000000007effd0 T _ZN4llvm24AssemblyAnnotationWriterD1Ev
00000000007f00a0 T _ZN4llvm24AssemblyAnnotationWriterD0Ev
00000000007f3910 T _ZN4llvm26printLLVMNameWithoutPrefixERNS_11raw_ostreamENS_9StringRefE
00000000007f3c40 T _ZN4llvm17ModuleSlotTrackerC2ERNS_11SlotTrackerEPKNS_6ModuleEPKNS_8FunctionE
00000000007f3c70 T _ZN4llvm17ModuleSlotTrackerC1EPKNS_6ModuleEb
00000000007f3ca0 T _ZN4llvm11SlotTrackerC1EPKNS_6ModuleEb
00000000007f3db0 T _ZN4llvm11SlotTrackerC2EPKNS_8FunctionEb
00000000007f3f80 T _ZN4llvm11SlotTrackerC1EPKNS_18ModuleSummaryIndexE
00000000007f4090 T _ZN4llvm11SlotTracker13purgeFunctionEv
00000000007f4390 T _ZN4llvm17ModuleSlotTrackerD1Ev
00000000007f43c0 T _ZN4llvm17ModuleSlotTracker10getMachineEv
00000000007f4450 T _ZN4llvm17ModuleSlotTracker19incorporateFunctionERKNS_8FunctionE
00000000007f4600 T _ZNK4llvm6Comdat5printERNS_11raw_ostreamEb
00000000007f4830 w _ZNSt6vectorIN4llvm12UseListOrderESaIS1_EE17_M_realloc_insertIJRPKNS0_5ValueERPKNS0_8FunctionEmEEEvN9__gnu_cxx17__normal_iteratorIPS1_S3_EEDpOT_
00000000007f5500 w _ZNSt6vectorIPN4llvm10StructTypeESaIS2_EE17_M_default_appendEm
00000000007f5630 w _ZNSt8_Rb_treeImSt4pairIKmN4llvm9StringRefEESt10_Select1stIS4_ESt4lessImESaIS4_EE8_M_eraseEPSt13_Rb_tree_nodeIS4_E
00000000007f5680 w _ZNSt6vectorISt4pairINSt7__cxx1112basic_stringIcSt11char_traitsIcESaIcEEESt5arrayIjLm5EEESaIS9_EE17_M_default_appendEm
00000000007f5880 w _ZNSt6vectorISt4pairIN4llvm12AttributeSetEjESaIS3_EE17_M_default_appendEm
00000000007f5c90 T _ZN4llvm11SlotTracker16CreateTypeIdSlotENS_9StringRefE
00000000007f5e90 w _ZNSt6vectorIPKN4llvm6ComdatESaIS3_EE17_M_realloc_insertIJRKS3_EEEvN9__gnu_cxx17__normal_iteratorIPS3_S5_EEDpOT_
00000000007f5ff0 w _ZNSt8_Rb_treeImSt4pairIKmN4llvm9StringRefEESt10_Select1stIS4_ESt4lessImESaIS4_EE24_M_get_insert_unique_posERS1_
00000000007f6090 w _ZNSt8_Rb_treeImSt4pairIKmN4llvm9StringRefEESt10_Select1stIS4_ESt4lessImESaIS4_EE29_M_get_insert_hint_unique_posESt23_Rb_tree_const_iteratorIS4_ERS1_
00000000007f87a0 T _ZNK4llvm4Type5printERNS_11raw_ostreamEbb
00000000007f8b10 T _ZN4llvm11SlotTracker16CreateModuleSlotEPKNS_11GlobalValueE
00000000007f8d70 T _ZN4llvm11SlotTracker18CreateFunctionSlotEPKNS_5ValueE
00000000007f9180 T _ZN4llvm11SlotTracker18CreateMetadataSlotEPKNS_6MDNodeE
00000000007f93a0 T _ZN4llvm11SlotTracker27processGlobalObjectMetadataERKNS_12GlobalObjectE
00000000007f9450 T _ZN4llvm11SlotTracker26processInstructionMetadataERKNS_11InstructionE
00000000007f95a0 T _ZN4llvm11SlotTracker23processFunctionMetadataERKNS_8FunctionE
00000000007f97f0 T _ZN4llvm11SlotTracker22CreateAttributeSetSlotENS_12AttributeSetE
00000000007f9a80 T _ZN4llvm11SlotTracker13processModuleEv
00000000007f9ce0 T _ZN4llvm11SlotTracker15processFunctionEv
00000000007f9ea0 T _ZN4llvm11SlotTracker15getMetadataSlotEPKNS_6MDNodeE
00000000007fa220 T _ZNK4llvm11NamedMDNode5printERNS_11raw_ostreamEb
00000000007fa4c0 T _ZNK4llvm11NamedMDNode5printERNS_11raw_ostreamERNS_17ModuleSlotTrackerEb
00000000007fa7d0 T _ZN4llvm11SlotTracker12getLocalSlotEPKNS_5ValueE
00000000007fa960 T _ZN4llvm17ModuleSlotTracker12getLocalSlotEPKNS_5ValueE
00000000007fa970 T _ZN4llvm11SlotTracker21getAttributeGroupSlotENS_12AttributeSetE
00000000007fab00 T _ZN4llvm11SlotTracker13getGlobalSlotEPKNS_11GlobalValueE
00000000007fc560 T _ZNK4llvm5Value14printAsOperandERNS_11raw_ostreamEbPKNS_6ModuleE
0000000000800490 T _ZNK4llvm8Metadata14printAsOperandERNS_11raw_ostreamEPKNS_6ModuleE
0000000000800520 T _ZNK4llvm8Metadata14printAsOperandERNS_11raw_ostreamERNS_17ModuleSlotTrackerEPKNS_6ModuleE
0000000000800540 T _ZNK4llvm8Metadata5printERNS_11raw_ostreamEPKNS_6ModuleEb
00000000008005d0 T _ZNK4llvm8Metadata5printERNS_11raw_ostreamERNS_17ModuleSlotTrackerEPKNS_6ModuleEb
00000000008005f0 T _ZNK4llvm5Value14printAsOperandERNS_11raw_ostreamEbRNS_17ModuleSlotTrackerE
0000000000803dc0 T _ZNK4llvm8Function5printERNS_11raw_ostreamEPNS_24AssemblyAnnotationWriterEbb
0000000000804070 T _ZNK4llvm6Module5printERNS_11raw_ostreamEPNS_24AssemblyAnnotationWriterEbb
0000000000806de0 T _ZNK4llvm5Value5printERNS_11raw_ostreamERNS_17ModuleSlotTrackerEb
00000000008072d0 T _ZNK4llvm5Value5printERNS_11raw_ostreamEb
00000000008075f0 T _ZN4llvm11SlotTracker14CreateGUIDSlotEm
0000000000807860 T _ZN4llvm11SlotTracker12processIndexEv
0000000000807d60 T _ZN4llvm11SlotTracker23initializeIndexIfNeededEv
0000000000807d90 T _ZN4llvm11SlotTracker17getModulePathSlotENS_9StringRefE
0000000000807e60 T _ZN4llvm11SlotTracker11getGUIDSlotEm
0000000000807fb0 T _ZN4llvm11SlotTracker13getTypeIdSlotENS_9StringRefE
0000000000809cf0 T _ZNK4llvm18ModuleSummaryIndex5printERNS_11raw_ostreamEb
000000000080c970 T _ZN4llvm13AttributeImplD1Ev
000000000080c9a0 T _ZN4llvm19StringAttributeImpl6anchorEv
000000000080ca40 T _ZN4llvm13AttributeImplD0Ev
000000000080cd70 T _ZN4llvm9Attribute3getERNS_11LLVMContextENS0_8AttrKindEm
000000000080cee0 T _ZN4llvm9Attribute3getERNS_11LLVMContextENS_9StringRefES3_
000000000080d160 T _ZN4llvm9Attribute3getERNS_11LLVMContextENS0_8AttrKindEPNS_4TypeE
000000000080d270 T _ZN4llvm9Attribute16getWithAlignmentERNS_11LLVMContextENS_5AlignE
000000000080d290 T _ZN4llvm9Attribute21getWithStackAlignmentERNS_11LLVMContextENS_5AlignE
000000000080d2b0 T _ZN4llvm9Attribute27getWithDereferenceableBytesERNS_11LLVMContextEm
000000000080d2d0 T _ZN4llvm9Attribute33getWithDereferenceableOrNullBytesERNS_11LLVMContextEm
000000000080d2f0 T _ZN4llvm9Attribute16getWithByValTypeERNS_11LLVMContextEPNS_4TypeE
000000000080d310 T _ZN4llvm9Attribute20getWithAllocSizeArgsERNS_11LLVMContextEjRKNS_8OptionalIjEE
000000000080d340 T _ZNK4llvm9Attribute15isEnumAttributeEv
000000000080d360 T _ZNK4llvm9Attribute14isIntAttributeEv
000000000080d380 T _ZNK4llvm9Attribute17isStringAttributeEv
000000000080d3a0 T _ZNK4llvm9Attribute15isTypeAttributeEv
000000000080d3c0 T _ZNK4llvm13AttributeImpl13getKindAsEnumEv
000000000080d3d0 T _ZNK4llvm9Attribute13getKindAsEnumEv
000000000080d3f0 T _ZNK4llvm13AttributeImpl12hasAttributeENS_9Attribute8AttrKindE
000000000080d420 T _ZNK4llvm9Attribute12hasAttributeENS0_8AttrKindE
000000000080d470 T _ZNK4llvm13AttributeImpl13getValueAsIntEv
000000000080d480 T _ZNK4llvm9Attribute13getValueAsIntEv
000000000080d800 T _ZNK4llvm9Attribute23getDereferenceableBytesEv
000000000080d810 T _ZNK4llvm9Attribute12getAlignmentEv
000000000080d860 T _ZNK4llvm9Attribute16getAllocSizeArgsEv
000000000080d8a0 T _ZNK4llvm9Attribute29getDereferenceableOrNullBytesEv
000000000080d8b0 T _ZNK4llvm9Attribute17getStackAlignmentEv
000000000080d900 T _ZNK4llvm13AttributeImpl15getKindAsStringEv
000000000080d910 T _ZNK4llvm9Attribute15getKindAsStringEv
000000000080d930 T _ZNK4llvm13AttributeImpl12hasAttributeENS_9StringRefE
000000000080d990 T _ZNK4llvm9Attribute12hasAttributeENS_9StringRefE
000000000080d9d0 T _ZNK4llvm13AttributeImpl16getValueAsStringEv
000000000080d9e0 T _ZNK4llvm9Attribute16getValueAsStringEv
000000000080da00 T _ZNK4llvm13AttributeImpl14getValueAsTypeEv
000000000080da10 T _ZNK4llvm9Attribute14getValueAsTypeEv
000000000080da30 T _ZNK4llvm9Attribute11getAsStringB5cxx11Eb
000000000080ec40 T _ZNK4llvm13AttributeImplltERKS0_
000000000080eee0 T _ZNK4llvm9AttributeltES0_
000000000080ef20 T _ZNK4llvm12AttributeSet16getNumAttributesEv
000000000080ef40 T _ZNK4llvm12AttributeSet12hasAttributeENS_9Attribute8AttrKindE
000000000080ef80 T _ZNK4llvm12AttributeSet5beginEv
000000000080efa0 T _ZNK4llvm12AttributeSet3endEv
000000000080efc0 T _ZN4llvm16AttributeSetNodeC2ENS_8ArrayRefINS_9AttributeEEE
000000000080f080 T _ZNK4llvm16AttributeSetNode12hasAttributeENS_9StringRefE
000000000080f0f0 T _ZNK4llvm12AttributeSet12hasAttributeENS_9StringRefE
000000000080f110 T _ZNK4llvm16AttributeSetNode12getAttributeENS_9Attribute8AttrKindE
000000000080f180 T _ZNK4llvm12AttributeSet12getAttributeENS_9Attribute8AttrKindE
000000000080f1a0 T _ZNK4llvm16AttributeSetNode12getAttributeENS_9StringRefE
000000000080f210 T _ZNK4llvm12AttributeSet12getAttributeENS_9StringRefE
000000000080f230 T _ZNK4llvm16AttributeSetNode12getAlignmentEv
000000000080f290 T _ZNK4llvm12AttributeSet12getAlignmentEv
000000000080f2b0 T _ZNK4llvm16AttributeSetNode17getStackAlignmentEv
000000000080f310 T _ZNK4llvm12AttributeSet17getStackAlignmentEv
000000000080f330 T _ZNK4llvm16AttributeSetNode12getByValTypeEv
000000000080f390 T _ZNK4llvm12AttributeSet12getByValTypeEv
000000000080f3b0 T _ZNK4llvm16AttributeSetNode23getDereferenceableBytesEv
000000000080f410 T _ZNK4llvm12AttributeSet23getDereferenceableBytesEv
000000000080f430 T _ZNK4llvm16AttributeSetNode29getDereferenceableOrNullBytesEv
000000000080f490 T _ZNK4llvm12AttributeSet29getDereferenceableOrNullBytesEv
000000000080f4b0 T _ZNK4llvm16AttributeSetNode16getAllocSizeArgsEv
000000000080f520 T _ZNK4llvm12AttributeSet16getAllocSizeArgsEv
000000000080f550 T _ZNK4llvm16AttributeSetNode11getAsStringB5cxx11Eb
000000000080f6a0 T _ZNK4llvm12AttributeSet11getAsStringB5cxx11Eb
000000000080f710 T _ZN4llvm17AttributeListImplC2ERNS_11LLVMContextENS_8ArrayRefINS_12AttributeSetEEE
000000000080f7e0 T _ZN4llvm17AttributeListImpl7ProfileERNS_16FoldingSetNodeIDENS_8ArrayRefINS_12AttributeSetEEE
000000000080f820 T _ZNK4llvm17AttributeListImpl7ProfileERNS_16FoldingSetNodeIDE
000000000080f840 T _ZN4llvm13AttributeList7getImplERNS_11LLVMContextENS_8ArrayRefINS_12AttributeSetEEE
000000000080f930 T _ZN4llvm13AttributeList3getERNS_11LLVMContextENS_8ArrayRefISt4pairIjNS_12AttributeSetEEEE
000000000080fad0 T _ZN4llvm13AttributeList3getERNS_11LLVMContextENS_12AttributeSetES3_NS_8ArrayRefIS3_EE
000000000080fd70 T _ZNK4llvm13AttributeList10getContextEv
000000000080fd80 T _ZNK4llvm13AttributeList14hasFnAttributeENS_9Attribute8AttrKindE
000000000080fdc0 T _ZNK4llvm13AttributeList5beginEv
000000000080fde0 T _ZNK4llvm13AttributeList3endEv
000000000080fe00 T _ZNK4llvm13AttributeList14getNumAttrSetsEv
000000000080fe20 T _ZNK4llvm13AttributeList13getAttributesEj
000000000080fe70 T _ZNK4llvm13AttributeList18getParamAttributesEj
000000000080fe80 T _ZNK4llvm13AttributeList16getRetAttributesEv
000000000080fe90 T _ZNK4llvm13AttributeList15getFnAttributesEv
000000000080fea0 T _ZNK4llvm13AttributeList12hasAttributeEjNS_9Attribute8AttrKindE
000000000080fef0 T _ZNK4llvm13AttributeList17hasParamAttributeEjNS_9Attribute8AttrKindE
000000000080ff00 T _ZNK4llvm13AttributeList12hasAttributeEjNS_9StringRefE
000000000080ff60 T _ZNK4llvm13AttributeList14hasFnAttributeENS_9StringRefE
000000000080ff80 T _ZNK4llvm13AttributeList13hasAttributesEj
000000000080ffa0 T _ZNK4llvm13AttributeList12getAttributeEjNS_9Attribute8AttrKindE
000000000080fff0 T _ZNK4llvm13AttributeList12getAttributeEjNS_9StringRefE
0000000000810050 T _ZNK4llvm13AttributeList15getRetAlignmentEv
00000000008100a0 T _ZNK4llvm13AttributeList17getParamAlignmentEj
00000000008100f0 T _ZNK4llvm13AttributeList17getParamByValTypeEj
0000000000810140 T _ZNK4llvm13AttributeList17getStackAlignmentEj
0000000000810190 T _ZNK4llvm13AttributeList23getDereferenceableBytesEj
00000000008101e0 T _ZNK4llvm13AttributeList29getDereferenceableOrNullBytesEj
0000000000810230 T _ZNK4llvm13AttributeList16getAllocSizeArgsEj
0000000000810280 T _ZNK4llvm13AttributeList11getAsStringB5cxx11Ejb
00000000008102e0 T _ZNK4llvm13AttributeList16hasAttrSomewhereENS_9Attribute8AttrKindEPj
0000000000810360 T _ZNK4llvm13AttributeList16removeAttributesERNS_11LLVMContextEj
00000000008104c0 T _ZN4llvm11AttrBuilder12addAttributeENS_9Attribute8AttrKindE
00000000008104f0 T _ZN4llvm11AttrBuilder15removeAttributeENS_9Attribute8AttrKindE
00000000008105a0 T _ZN4llvm11AttrBuilder15removeAttributeENS_9StringRefE
0000000000810720 T _ZNK4llvm11AttrBuilder16getAllocSizeArgsEv
0000000000810760 T _ZN4llvm11AttrBuilder16addAlignmentAttrENS_10MaybeAlignE
0000000000810780 T _ZN4llvm11AttrBuilder21addStackAlignmentAttrENS_10MaybeAlignE
00000000008107a0 T _ZN4llvm11AttrBuilder22addDereferenceableAttrEm
00000000008107c0 T _ZN4llvm11AttrBuilder28addDereferenceableOrNullAttrEm
00000000008107e0 T _ZN4llvm11AttrBuilder27addAllocSizeAttrFromRawReprEm
00000000008107f0 T _ZN4llvm11AttrBuilder16addAllocSizeAttrEjRKNS_8OptionalIjEE
0000000000810810 T _ZN4llvm11AttrBuilder12addByValAttrEPNS_4TypeE
0000000000810820 T _ZNK4llvm11AttrBuilder8containsENS_9StringRefE
0000000000810990 T _ZNK4llvm11AttrBuilder8overlapsERKS0_
0000000000810a00 T _ZNK4llvm11AttrBuilder13hasAttributesEv
0000000000810a30 T _ZNK4llvm11AttrBuilder13hasAttributesENS_13AttributeListEm
0000000000810b20 T _ZNK4llvm11AttrBuilder16hasAlignmentAttrEv
0000000000810b40 T _ZN4llvm11AttrBuildereqERKS0_
0000000000810d30 T _ZN4llvm14AttributeFuncs16typeIncompatibleEPNS_4TypeE
0000000000810e60 T _ZN4llvm14AttributeFuncs19areInlineCompatibleERKNS_8FunctionES3_
0000000000810fd0 w _ZNSt8_Rb_treeINSt7__cxx1112basic_stringIcSt11char_traitsIcESaIcEEESt4pairIKS5_S5_ESt10_Select1stIS8_ESt4lessIvESaIS8_EE8_M_eraseEPSt13_Rb_tree_nodeIS8_E
0000000000811050 T _ZN4llvm11AttrBuilder5clearEv
0000000000811120 w _ZN4llvm23SmallVectorTemplateBaseISt4pairIjNS_9AttributeEELb0EE4growEm
0000000000811230 w _ZNSt8_Rb_treeINSt7__cxx1112basic_stringIcSt11char_traitsIcESaIcEEESt4pairIKS5_S5_ESt10_Select1stIS8_ESt4lessIvESaIS8_EE11equal_rangeERS7_
0000000000811460 T _ZN4llvm11AttrBuilder6removeERKS0_
0000000000811870 w _ZNSt8_Rb_treeINSt7__cxx1112basic_stringIcSt11char_traitsIcESaIcEEESt4pairIKS5_S5_ESt10_Select1stIS8_ESt4lessIvESaIS8_EE24_M_get_insert_unique_posERS7_
00000000008119f0 w _ZNSt8_Rb_treeINSt7__cxx1112basic_stringIcSt11char_traitsIcESaIcEEESt4pairIKS5_S5_ESt10_Select1stIS8_ESt4lessIvESaIS8_EE29_M_get_insert_hint_unique_posESt23_Rb_tree_const_iteratorIS8_ERS7_
0000000000811c80 T _ZN4llvm11AttrBuilder12addAttributeENS_9StringRefES1_
00000000008121f0 T _ZN4llvm11AttrBuilder12addAttributeENS_9AttributeE
0000000000812360 T _ZN4llvm11AttrBuilderC2ENS_13AttributeListEj
0000000000812440 T _ZN4llvm11AttrBuilderC1ENS_12AttributeSetE
00000000008124e0 T _ZN4llvm11AttrBuilder16removeAttributesENS_13AttributeListEm
00000000008125d0 T _ZN4llvm11AttrBuilder5mergeERKS0_
0000000000812bc0 w _ZSt16__insertion_sortIPN4llvm9AttributeEN9__gnu_cxx5__ops15_Iter_less_iterEEvT_S6_T0_
0000000000812cb0 w _ZSt13__adjust_heapIPN4llvm9AttributeElS1_N9__gnu_cxx5__ops15_Iter_less_iterEEvT_T0_S7_T1_T2_
0000000000813050 T _ZN4llvm16AttributeSetNode3getERNS_11LLVMContextENS_8ArrayRefINS_9AttributeEEE
0000000000813300 T _ZN4llvm12AttributeSet3getERNS_11LLVMContextENS_8ArrayRefINS_9AttributeEEE
0000000000813320 T _ZN4llvm13AttributeList3getERNS_11LLVMContextENS_8ArrayRefISt4pairIjNS_9AttributeEEEE
00000000008135f0 T _ZN4llvm13AttributeList3getERNS_11LLVMContextEjNS_8ArrayRefINS_9Attribute8AttrKindEEE
0000000000813710 T _ZN4llvm13AttributeList3getERNS_11LLVMContextEjNS_8ArrayRefINS_9StringRefEEE
0000000000813830 T _ZN4llvm16AttributeSetNode3getERNS_11LLVMContextERKNS_11AttrBuilderE
0000000000813aa0 T _ZN4llvm12AttributeSet3getERNS_11LLVMContextERKNS_11AttrBuilderE
0000000000813ac0 T _ZNK4llvm12AttributeSet13addAttributesERNS_11LLVMContextES0_
0000000000813be0 T _ZNK4llvm12AttributeSet12addAttributeERNS_11LLVMContextENS_9Attribute8AttrKindE
0000000000813d40 T _ZNK4llvm12AttributeSet12addAttributeERNS_11LLVMContextENS_9StringRefES3_
0000000000813e80 T _ZNK4llvm12AttributeSet15removeAttributeERNS_11LLVMContextENS_9Attribute8AttrKindE
0000000000813f80 T _ZNK4llvm13AttributeList15removeAttributeERNS_11LLVMContextEjNS_9Attribute8AttrKindE
0000000000814100 T _ZNK4llvm12AttributeSet15removeAttributeERNS_11LLVMContextENS_9StringRefE
0000000000814210 T _ZNK4llvm13AttributeList15removeAttributeERNS_11LLVMContextEjNS_9StringRefE
00000000008143b0 T _ZN4llvm14AttributeFuncs26mergeAttributesForInliningERNS_8FunctionERKS1_
0000000000814e50 T _ZNK4llvm12AttributeSet16removeAttributesERNS_11LLVMContextERKNS_11AttrBuilderE
0000000000814f20 T _ZNK4llvm13AttributeList16removeAttributesERNS_11LLVMContextEjRKNS_11AttrBuilderE
0000000000815120 T _ZN4llvm13AttributeList3getERNS_11LLVMContextEjRKNS_11AttrBuilderE
0000000000815280 T _ZN4llvm13AttributeList3getERNS_11LLVMContextENS_8ArrayRefIS0_EE
00000000008155c0 T _ZNK4llvm13AttributeList13addAttributesERNS_11LLVMContextEjRKNS_11AttrBuilderE
0000000000815890 T _ZNK4llvm13AttributeList12addAttributeERNS_11LLVMContextEjNS_9Attribute8AttrKindE
00000000008159f0 T _ZNK4llvm13AttributeList12addAttributeERNS_11LLVMContextEjNS_9StringRefES3_
0000000000815b40 T _ZNK4llvm13AttributeList12addAttributeERNS_11LLVMContextEjNS_9AttributeE
0000000000815c80 T _ZNK4llvm13AttributeList22addDereferenceableAttrERNS_11LLVMContextEjm
0000000000815dc0 T _ZNK4llvm13AttributeList28addDereferenceableOrNullAttrERNS_11LLVMContextEjm
0000000000815f00 T _ZN4llvm13AttributeList16addAllocSizeAttrERNS_11LLVMContextEjjRKNS_8OptionalIjEE
0000000000816040 T _ZNK4llvm13AttributeList17addParamAttributeERNS_11LLVMContextENS_8ArrayRefIjEENS_9AttributeE
0000000000821b70 T _ZN4llvm24UpgradeIntrinsicFunctionEPNS_8FunctionERS1_
0000000000821bd0 T _ZN4llvm21UpgradeGlobalVariableEPNS_14GlobalVariableE
0000000000822010 T _ZN4llvm22UpgradeInlineAsmStringEPNSt7__cxx1112basic_stringIcSt11char_traitsIcESaIcEEE
00000000008220c0 T _ZN4llvm15UpgradeTBAANodeERNS_6MDNodeE
0000000000822210 T _ZN4llvm18UpgradeBitCastInstEjPNS_5ValueEPNS_4TypeERPNS_11InstructionE
0000000000822340 T _ZN4llvm18UpgradeBitCastExprEjPNS_8ConstantEPNS_4TypeE
0000000000822400 T _ZN4llvm16UpgradeDebugInfoERNS_6ModuleE
0000000000822510 T _ZN4llvm17UpgradeARCRuntimeERNS_6ModuleE
0000000000822ad0 T _ZN4llvm18UpgradeModuleFlagsERNS_6ModuleE
00000000008231d0 T _ZN4llvm24UpgradeSectionAttributesERNS_6ModuleE
0000000000823680 T _ZN4llvm32upgradeInstructionLoopAttachmentERNS_6MDNodeE
0000000000823ea0 T _ZN4llvm23UpgradeDataLayoutStringB5cxx11ENS_9StringRefES0_
0000000000824430 T _ZN4llvm29UpgradeFramePointerAttributesERNS_11AttrBuilderE
00000000008296d0 T _ZN4llvm20UpgradeIntrinsicCallEPNS_8CallInstEPNS_8FunctionE
000000000083a2b0 T _ZN4llvm23UpgradeCallsToIntrinsicEPNS_8FunctionE
000000000083a420 T _ZN4llvm10BasicBlock19getValueSymbolTableEv
000000000083a440 T _ZNK4llvm10BasicBlock10getContextEv
000000000083a450 w _ZN4llvm21SymbolTableListTraitsINS_11InstructionEE12getListOwnerEv
000000000083a460 w _ZN4llvm21SymbolTableListTraitsINS_11InstructionEE7getListEPNS_10BasicBlockE
000000000083a470 w _ZN4llvm21SymbolTableListTraitsINS_11InstructionEE9getSymTabEPNS_10BasicBlockE
000000000083a490 w _ZN4llvm21SymbolTableListTraitsINS_11InstructionEE13addNodeToListEPS1_
000000000083a4e0 w _ZN4llvm21SymbolTableListTraitsINS_11InstructionEE18removeNodeFromListEPS1_
000000000083a530 w _ZN4llvm21SymbolTableListTraitsINS_11InstructionEE21transferNodesFromListERS2_NS_14ilist_iteratorINS_12ilist_detail12node_optionsIS1_Lb0ELb0EvEELb0ELb0EEES8_
000000000083a660 w _ZN4llvm21SymbolTableListTraitsINS_11InstructionEE5toPtrEPNS_16ValueSymbolTableE
000000000083a670 w _ZN4llvm21SymbolTableListTraitsINS_11InstructionEE5toPtrERNS_16ValueSymbolTableE
000000000083a680 T _ZNK4llvm10BasicBlock9getModuleEv
000000000083a6a0 T _ZNK4llvm10BasicBlock13getTerminatorEv
000000000083a6f0 T _ZNK4llvm10BasicBlock26getTerminatingMustTailCallEv
000000000083a7d0 T _ZNK4llvm10BasicBlock28getTerminatingDeoptimizeCallEv
000000000083a860 T _ZNK4llvm10BasicBlock14getFirstNonPHIEv
000000000083a8b0 T _ZNK4llvm10BasicBlock19getFirstNonPHIOrDbgEv
000000000083a930 T _ZNK4llvm10BasicBlock29getFirstNonPHIOrDbgOrLifetimeEv
000000000083a9c0 T _ZNK4llvm10BasicBlock19getFirstInsertionPtEv
000000000083aa10 T _ZN4llvm10BasicBlock17dropAllReferencesEv
000000000083aac0 T _ZN4llvm10BasicBlockD1Ev
000000000083ac00 T _ZNK4llvm10BasicBlock20getSinglePredecessorEv
000000000083ac80 T _ZNK4llvm10BasicBlock20getUniquePredecessorEv
000000000083ad30 T _ZNK4llvm10BasicBlock16hasNPredecessorsEj
000000000083ade0 T _ZNK4llvm10BasicBlock22hasNPredecessorsOrMoreEj
000000000083ae60 T _ZNK4llvm10BasicBlock18getSingleSuccessorEv
000000000083aeb0 T _ZNK4llvm10BasicBlock18getUniqueSuccessorEv
000000000083af30 T _ZN4llvm10BasicBlock4phisEv
000000000083af80 T _ZN4llvm10BasicBlock17removePredecessorEPS0_b
000000000083b2e0 T _ZNK4llvm10BasicBlock20canSplitPredecessorsEv
000000000083b320 T _ZNK4llvm10BasicBlock18isLegalToHoistIntoEv
000000000083b380 T _ZN4llvm10BasicBlock18replacePhiUsesWithEPS0_S1_
000000000083b460 T _ZN4llvm10BasicBlock28replaceSuccessorsPhiUsesWithEPS0_S1_
000000000083b4c0 T _ZN4llvm10BasicBlock28replaceSuccessorsPhiUsesWithEPS0_
000000000083b4d0 T _ZNK4llvm10BasicBlock12isLandingPadEv
000000000083b4f0 T _ZNK4llvm10BasicBlock17getLandingPadInstEv
000000000083b510 T _ZNK4llvm10BasicBlock22getIrrLoopHeaderWeightEv
000000000083b5d0 T _ZN4llvm19skipDebugIntrinsicsENS_14ilist_iteratorINS_12ilist_detail12node_optionsINS_11InstructionELb0ELb0EvEELb0ELb0EEE
000000000083b620 w _ZN4llvm21SymbolTableListTraitsINS_11InstructionEE15setSymTabObjectIPNS_8FunctionEEEvPT_S6_
000000000083b710 T _ZN4llvm10BasicBlock9setParentEPNS_8FunctionE
000000000083b730 T _ZN4llvm10BasicBlock15eraseFromParentEv
000000000083b7b0 T _ZN4llvm10BasicBlock16removeFromParentEv
000000000083b810 T _ZN4llvm10BasicBlock10insertIntoEPNS_8FunctionEPS0_
000000000083b8d0 T _ZN4llvm10BasicBlockC1ERNS_11LLVMContextERKNS_5TwineEPNS_8FunctionEPS0_
000000000083b950 T _ZN4llvm10BasicBlock15splitBasicBlockENS_14ilist_iteratorINS_12ilist_detail12node_optionsINS_11InstructionELb0ELb0EvEELb0ELb0EEERKNS_5TwineE
000000000083bb60 w _ZN4llvm10make_rangeINS_20filter_iterator_implINS_14ilist_iteratorINS_12ilist_detail12node_optionsINS_11InstructionELb0ELb0EvEELb0ELb1EEESt8functionIFbRKS5_EESt26bidirectional_iterator_tagEEEENS_14iterator_rangeIT_EESG_SG_
000000000083bc30 w _ZN4llvm17make_filter_rangeIRKNS_10BasicBlockESt8functionIFbRKNS_11InstructionEEEEENS_14iterator_rangeINS_20filter_iterator_implIDTcl5begincl7declvalIRT_EEEET0_NS_6detail15fwd_or_bidi_tagISE_E4typeEEEEEOSC_SF_
000000000083c040 T _ZNK4llvm10BasicBlock24instructionsWithoutDebugEv
000000000083c0e0 T _ZNK4llvm10BasicBlock16sizeWithoutDebugEv
000000000083c450 w _ZN4llvm10make_rangeINS_20filter_iterator_implINS_14ilist_iteratorINS_12ilist_detail12node_optionsINS_11InstructionELb0ELb0EvEELb0ELb0EEESt8functionIFbRS5_EESt26bidirectional_iterator_tagEEEENS_14iterator_rangeIT_EESF_SF_
000000000083c520 w _ZN4llvm17make_filter_rangeIRNS_10BasicBlockESt8functionIFbRNS_11InstructionEEEEENS_14iterator_rangeINS_20filter_iterator_implIDTcl5begincl7declvalIRT_EEEET0_NS_6detail15fwd_or_bidi_tagISC_E4typeEEEEEOSA_SD_
000000000083c930 T _ZN4llvm10BasicBlock24instructionsWithoutDebugEv
000000000083c9d0 w _ZN4llvm21SymbolTableListTraitsINS_10BasicBlockEE21transferNodesFromListERS2_NS_14ilist_iteratorINS_12ilist_detail12node_optionsIS1_Lb0ELb0EvEELb0ELb0EEES8_
000000000083caf0 T _ZN4llvm10BasicBlock9moveAfterEPS0_
000000000083cb70 T _ZN4llvm10BasicBlock10moveBeforeEPS0_
000000000083cbf0 T _ZN4llvm6ComdatC1EOS0_
000000000083cc10 T _ZN4llvm6ComdatC1Ev
000000000083cc30 T _ZNK4llvm6Comdat7getNameEv
000000000083cc40 T LLVMGetOrInsertComdat
000000000083cc80 T LLVMGetComdat
000000000083cc90 T LLVMSetComdat
000000000083cca0 T LLVMGetComdatSelectionKind
000000000083ccb0 T LLVMSetComdatSelectionKind
000000000083e8e0 T _ZN4llvm27ConstantFoldCastInstructionEjPNS_8ConstantEPNS_4TypeE
000000000083f940 T _ZN4llvm29ConstantFoldSelectInstructionEPNS_8ConstantES1_S1_
000000000083fcd0 T _ZN4llvm37ConstantFoldExtractElementInstructionEPNS_8ConstantES1_
000000000083ff60 T _ZN4llvm36ConstantFoldInsertElementInstructionEPNS_8ConstantES1_S1_
00000000008401f0 T _ZN4llvm36ConstantFoldShuffleVectorInstructionEPNS_8ConstantES1_S1_
0000000000840440 T _ZN4llvm35ConstantFoldExtractValueInstructionEPNS_8ConstantENS_8ArrayRefIjEE
0000000000840490 T _ZN4llvm34ConstantFoldInsertValueInstructionEPNS_8ConstantES1_NS_8ArrayRefIjEE
0000000000840670 T _ZN4llvm28ConstantFoldUnaryInstructionEjPNS_8ConstantE
0000000000840980 T _ZN4llvm29ConstantFoldBinaryInstructionEjPNS_8ConstantES1_
0000000000842540 T _ZN4llvm30ConstantFoldCompareInstructionEtPNS_8ConstantES1_
0000000000842f60 T _ZN4llvm25ConstantFoldGetElementPtrEPNS_4TypeEPNS_8ConstantEbNS_8OptionalIjEENS_8ArrayRefIPNS_5ValueEEE
0000000000844350 T _ZN4llvm13ConstantRangeC1Ejb
00000000008443e0 T _ZN4llvm13ConstantRangeC2ENS_5APIntE
0000000000844470 T _ZN4llvm13ConstantRangeC1ENS_5APIntES1_
0000000000844ad0 T _ZN4llvm13ConstantRange13fromKnownBitsERKNS_9KnownBitsEb
0000000000844fd0 T _ZNK4llvm13ConstantRange9isFullSetEv
0000000000845050 T _ZNK4llvm13ConstantRange10isEmptySetEv
00000000008450c0 T _ZNK4llvm13ConstantRange17getEquivalentICmpERNS_7CmpInst9PredicateERNS_5APIntE
0000000000845580 T _ZNK4llvm13ConstantRange12isWrappedSetEv
00000000008455e0 T _ZNK4llvm13ConstantRange14isUpperWrappedEv
0000000000845600 T _ZNK4llvm13ConstantRange16isSignWrappedSetEv
0000000000845680 T _ZNK4llvm13ConstantRange18isUpperSignWrappedEv
00000000008456a0 T _ZNK4llvm13ConstantRange25isSizeStrictlySmallerThanERKS0_
00000000008459e0 T _ZNK4llvm13ConstantRange16isSizeLargerThanEm
0000000000845b90 T _ZNK4llvm13ConstantRange13isAllNegativeEv
0000000000845c30 T _ZNK4llvm13ConstantRange16isAllNonNegativeEv
0000000000845c80 T _ZNK4llvm13ConstantRange14getUnsignedMaxEv
0000000000845d70 T _ZNK4llvm13ConstantRange14getUnsignedMinEv
0000000000845e10 T _ZNK4llvm13ConstantRange12getSignedMaxEv
0000000000845f40 T _ZNK4llvm13ConstantRange12getSignedMinEv
0000000000846000 T _ZN4llvm13ConstantRange21makeAllowedICmpRegionENS_7CmpInst9PredicateERKS0_
0000000000846a90 T _ZN4llvm13ConstantRange19makeExactICmpRegionENS_7CmpInst9PredicateERKNS_5APIntE
0000000000846b70 T _ZNK4llvm13ConstantRange8containsERKNS_5APIntE
0000000000846c30 T _ZNK4llvm13ConstantRange8containsERKS0_
0000000000846d10 T _ZNK4llvm13ConstantRange8subtractERKNS_5APIntE
0000000000846f20 T _ZNK4llvm13ConstantRange13intersectWithERKS0_NS0_18PreferredRangeTypeE
00000000008473c0 T _ZN4llvm13ConstantRange26makeGuaranteedNoWrapRegionENS_11Instruction9BinaryOpsERKS0_j
0000000000848700 T _ZN4llvm13ConstantRange21makeExactNoWrapRegionENS_11Instruction9BinaryOpsERKNS_5APIntEj
00000000008487e0 T _ZNK4llvm13ConstantRange9unionWithERKS0_NS0_18PreferredRangeTypeE
0000000000849110 T _ZNK4llvm13ConstantRange10zeroExtendEj
00000000008493a0 T _ZNK4llvm13ConstantRange10signExtendEj
0000000000849720 T _ZNK4llvm13ConstantRange8truncateEj
0000000000849e50 T _ZNK4llvm13ConstantRange6castOpENS_11Instruction7CastOpsEj
000000000084a2b0 T _ZNK4llvm13ConstantRange11zextOrTruncEj
000000000084a370 T _ZNK4llvm13ConstantRange11sextOrTruncEj
000000000084a430 T _ZNK4llvm13ConstantRange3addERKS0_
000000000084a7b0 T _ZNK4llvm13ConstantRange3subERKS0_
000000000084ab00 T _ZNK4llvm13ConstantRange8multiplyERKS0_
000000000084b400 T _ZNK4llvm13ConstantRange4smaxERKS0_
000000000084b6c0 T _ZNK4llvm13ConstantRange4umaxERKS0_
000000000084b980 T _ZNK4llvm13ConstantRange4sminERKS0_
000000000084bc40 T _ZNK4llvm13ConstantRange4uminERKS0_
000000000084bf00 T _ZNK4llvm13ConstantRange4udivERKS0_
000000000084c2e0 T _ZNK4llvm13ConstantRange4sdivERKS0_
000000000084e230 T _ZNK4llvm13ConstantRange4uremERKS0_
000000000084e610 T _ZNK4llvm13ConstantRange9binaryAndERKS0_
000000000084e8d0 T _ZNK4llvm13ConstantRange8binaryOrERKS0_
000000000084eb20 T _ZNK4llvm13ConstantRange3shlERKS0_
000000000084ee40 T _ZNK4llvm13ConstantRange4lshrERKS0_
000000000084f130 T _ZNK4llvm13ConstantRange4ashrERKS0_
000000000084f880 T _ZNK4llvm13ConstantRange8uadd_satERKS0_
000000000084fae0 T _ZNK4llvm13ConstantRange8sadd_satERKS0_
000000000084fd40 T _ZNK4llvm13ConstantRange13addWithNoWrapERKS0_jNS0_18PreferredRangeTypeE
0000000000850030 T _ZNK4llvm13ConstantRange8usub_satERKS0_
0000000000850290 T _ZNK4llvm13ConstantRange8ssub_satERKS0_
00000000008504f0 T _ZNK4llvm13ConstantRange13subWithNoWrapERKS0_jNS0_18PreferredRangeTypeE
00000000008508a0 T _ZNK4llvm13ConstantRange8umul_satERKS0_
0000000000850b00 T _ZNK4llvm13ConstantRange8smul_satERKS0_
0000000000851020 T _ZNK4llvm13ConstantRange8ushl_satERKS0_
0000000000851280 T _ZNK4llvm13ConstantRange8sshl_satERKS0_
0000000000851540 T _ZNK4llvm13ConstantRange7inverseEv
0000000000851680 T _ZN4llvm13ConstantRange24makeSatisfyingICmpRegionENS_7CmpInst9PredicateERKS0_
0000000000851720 T _ZNK4llvm13ConstantRange10differenceERKS0_
00000000008517b0 T _ZNK4llvm13ConstantRange3absEv
0000000000852110 T _ZNK4llvm13ConstantRange4sremERKS0_
0000000000852bc0 T _ZNK4llvm13ConstantRange8binaryOpENS_11Instruction9BinaryOpsERKS0_
0000000000852d10 T _ZNK4llvm13ConstantRange19overflowingBinaryOpENS_11Instruction9BinaryOpsERKS0_j
0000000000852d90 T _ZNK4llvm13ConstantRange22unsignedAddMayOverflowERKS0_
00000000008530b0 T _ZNK4llvm13ConstantRange20signedAddMayOverflowERKS0_
0000000000853780 T _ZNK4llvm13ConstantRange22unsignedSubMayOverflowERKS0_
00000000008538c0 T _ZNK4llvm13ConstantRange20signedSubMayOverflowERKS0_
0000000000853f90 T _ZNK4llvm13ConstantRange22unsignedMulMayOverflowERKS0_
0000000000854140 T _ZNK4llvm13ConstantRange5printERNS_11raw_ostreamE
00000000008542b0 T _ZN4llvm28getConstantRangeFromMetadataERKNS_6MDNodeE
0000000000854e60 T _ZNK4llvm8Constant11isNullValueEv
00000000008550f0 T _ZNK4llvm8Constant7canTrapEv
0000000000855170 T _ZNK4llvm8Constant17isThreadDependentEv
0000000000855180 T _ZNK4llvm8Constant20isDLLImportDependentEv
0000000000855190 T _ZNK4llvm8Constant14isConstantUsedEv
00000000008551e0 T _ZNK4llvm8Constant15needsRelocationEv
00000000008553b0 T _ZN4llvm11ConstantIntC1EPNS_11IntegerTypeERKNS_5APIntE
0000000000855410 T _ZN4llvm10ConstantFPC2EPNS_4TypeERKNS_7APFloatE
0000000000855470 T _ZNK4llvm10ConstantFP14isExactlyValueERKNS_7APFloatE
00000000008554d0 T _ZNK4llvm21ConstantAggregateZero14getNumElementsEv
0000000000855500 T _ZNK4llvm10UndefValue14getNumElementsEv
0000000000855530 T _ZN4llvm17ConstantAggregateC2EPNS_13CompositeTypeENS_5Value7ValueTyENS_8ArrayRefIPNS_8ConstantEEE
0000000000855610 T _ZN4llvm13ConstantArrayC1EPNS_9ArrayTypeENS_8ArrayRefIPNS_8ConstantEEE
0000000000855630 T _ZN4llvm14ConstantStruct18getTypeForElementsERNS_11LLVMContextENS_8ArrayRefIPNS_8ConstantEEEb
0000000000855770 T _ZN4llvm14ConstantStruct18getTypeForElementsENS_8ArrayRefIPNS_8ConstantEEEb
00000000008557a0 T _ZN4llvm14ConstantStructC2EPNS_10StructTypeENS_8ArrayRefIPNS_8ConstantEEE
00000000008557c0 T _ZN4llvm14ConstantVectorC2EPNS_10VectorTypeENS_8ArrayRefIPNS_8ConstantEEE
00000000008557e0 T _ZN4llvm17ConstantTokenNone3getERNS_11LLVMContextE
0000000000855870 T _ZNK4llvm12ConstantExpr6isCastEv
0000000000855890 T _ZNK4llvm12ConstantExpr9isCompareEv
00000000008558b0 T _ZNK4llvm12ConstantExpr31isGEPWithNoNotionalOverIndexingEv
0000000000855a80 T _ZNK4llvm12ConstantExpr10hasIndicesEv
0000000000855aa0 T _ZNK4llvm12ConstantExpr10getIndicesEv
0000000000855ab0 T _ZNK4llvm12ConstantExpr12getPredicateEv
0000000000855ac0 T _ZN4llvm11ConstantInt19isValueValidForTypeEPNS_4TypeEm
0000000000855b30 T _ZN4llvm11ConstantInt19isValueValidForTypeEPNS_4TypeEl
0000000000855bb0 T _ZN4llvm10ConstantFP19isValueValidForTypeEPNS_4TypeERKNS_7APFloatE
0000000000855de0 T _ZN4llvm21ConstantAggregateZero19destroyConstantImplEv
0000000000855e90 T _ZNK4llvm14ConstantVector13getSplatValueEb
0000000000855f30 T _ZN4llvm19ConstantPointerNull19destroyConstantImplEv
0000000000855fe0 T _ZN4llvm10UndefValue19destroyConstantImplEv
0000000000856090 T _ZN4llvm12BlockAddressC1EPNS_8FunctionEPNS_10BasicBlockE
00000000008561c0 T _ZN4llvm12BlockAddress6lookupEPKNS_10BasicBlockE
00000000008562d0 T _ZN4llvm12BlockAddress19destroyConstantImplEv
00000000008563e0 T _ZNK4llvm12ConstantExpr13getOpcodeNameEv
00000000008563f0 T _ZN4llvm25GetElementPtrConstantExprC2EPNS_4TypeEPNS_8ConstantENS_8ArrayRefIS4_EES2_
0000000000856ba0 T _ZNK4llvm25GetElementPtrConstantExpr20getSourceElementTypeEv
0000000000856bb0 T _ZNK4llvm25GetElementPtrConstantExpr20getResultElementTypeEv
0000000000856bc0 T _ZNK4llvm22ConstantDataSequential14getElementTypeEv
0000000000856bd0 T _ZN4llvm22ConstantDataSequential23isElementTypeCompatibleEPNS_4TypeE
0000000000856c30 T _ZNK4llvm22ConstantDataSequential14getNumElementsEv
0000000000856c40 T _ZNK4llvm22ConstantDataSequential18getElementByteSizeEv
0000000000856c60 T _ZNK4llvm22ConstantDataSequential16getRawDataValuesEv
0000000000856c90 T _ZNK4llvm22ConstantDataSequential17getElementPointerEj
0000000000856cc0 T _ZNK4llvm22ConstantDataSequential19getElementAsIntegerEj
0000000000856d30 T _ZNK4llvm22ConstantDataSequential17getElementAsAPIntEj
0000000000856de0 T _ZNK4llvm22ConstantDataSequential19getElementAsAPFloatEj
0000000000856ee0 T _ZNK4llvm22ConstantDataSequential17getElementAsFloatEj
0000000000856f00 T _ZNK4llvm22ConstantDataSequential18getElementAsDoubleEj
0000000000856f20 T _ZNK4llvm22ConstantDataSequential8isStringEj
0000000000856f50 T _ZNK4llvm22ConstantDataSequential9isCStringEv
0000000000856fd0 T _ZNK4llvm18ConstantDataVector7isSplatEv
0000000000857070 T _ZNK4llvm8Constant19isNegativeZeroValueEv
0000000000857250 T _ZNK4llvm8Constant11isZeroValueEv
00000000008573a0 T _ZNK4llvm8Constant14isAllOnesValueEv
00000000008575f0 T _ZNK4llvm8Constant10isOneValueEv
0000000000857800 T _ZNK4llvm8Constant16isMinSignedValueEv
0000000000857a60 T _ZNK4llvm12ConstantExpr16getAsInstructionEv
0000000000858330 w _ZN4llvm12hash_combineIJhhtNS_9hash_codeES1_EEES1_DpRKT_
0000000000858470 w _ZN4llvm7hashing6detail23hash_combine_range_implIKPNS_8ConstantEEENSt9enable_ifIXsrNS1_16is_hashable_dataIT_EE5valueENS_9hash_codeEE4typeEPS8_SD_
00000000008588b0 w _ZNSt6vectorIPN4llvm8ConstantESaIS2_EE17_M_realloc_insertIJRKS2_EEEvN9__gnu_cxx17__normal_iteratorIPS2_S4_EEDpOT_
0000000000858a10 w _ZN4llvm12hash_combineIJPNS_4TypeEjEEENS_9hash_codeEDpRKT_
0000000000858b60 T _ZN4llvm22ConstantDataSequential19destroyConstantImplEv
0000000000859ab0 T _ZN4llvm11ConstantInt3getERNS_11LLVMContextERKNS_5APIntE
0000000000859dc0 T _ZN4llvm11ConstantInt3getEPNS_11IntegerTypeEmb
0000000000859e70 T _ZN4llvm11ConstantInt7getTrueERNS_11LLVMContextE
0000000000859eb0 T _ZN4llvm11ConstantInt8getFalseERNS_11LLVMContextE
0000000000859ef0 T _ZN4llvm11ConstantInt9getSignedEPNS_11IntegerTypeEl
0000000000859f00 T _ZN4llvm11ConstantInt3getEPNS_11IntegerTypeENS_9StringRefEh
000000000085a500 T _ZN4llvm10ConstantFP3getERNS_11LLVMContextERKNS_7APFloatE
000000000085ac40 T _ZN4llvm21ConstantAggregateZero3getEPNS_4TypeE
000000000085af20 T _ZN4llvm22ConstantDataSequential7getImplENS_9StringRefEPNS_4TypeE
000000000085b1a0 T _ZN4llvm17ConstantDataArray5getFPERNS_11LLVMContextENS_8ArrayRefItEE
000000000085b1e0 T _ZN4llvm17ConstantDataArray5getFPERNS_11LLVMContextENS_8ArrayRefIjEE
000000000085b220 T _ZN4llvm17ConstantDataArray5getFPERNS_11LLVMContextENS_8ArrayRefImEE
000000000085b260 T _ZN4llvm18ConstantDataVector3getERNS_11LLVMContextENS_8ArrayRefIhEE
000000000085b2a0 T _ZN4llvm18ConstantDataVector3getERNS_11LLVMContextENS_8ArrayRefItEE
000000000085b2e0 T _ZN4llvm18ConstantDataVector3getERNS_11LLVMContextENS_8ArrayRefIjEE
000000000085b320 T _ZN4llvm18ConstantDataVector3getERNS_11LLVMContextENS_8ArrayRefImEE
000000000085b360 T _ZN4llvm18ConstantDataVector3getERNS_11LLVMContextENS_8ArrayRefIfEE
000000000085b3a0 T _ZN4llvm18ConstantDataVector3getERNS_11LLVMContextENS_8ArrayRefIdEE
000000000085b3e0 T _ZN4llvm18ConstantDataVector5getFPERNS_11LLVMContextENS_8ArrayRefItEE
000000000085b420 T _ZN4llvm18ConstantDataVector5getFPERNS_11LLVMContextENS_8ArrayRefIjEE
000000000085b460 T _ZN4llvm18ConstantDataVector5getFPERNS_11LLVMContextENS_8ArrayRefImEE
000000000085b4a0 T _ZN4llvm17ConstantDataArray9getStringERNS_11LLVMContextENS_9StringRefEb
000000000085b970 T _ZN4llvm19ConstantPointerNull3getEPNS_11PointerTypeE
000000000085be40 T _ZN4llvm10UndefValue3getEPNS_4TypeE
000000000085c120 T _ZNK4llvm10UndefValue20getSequentialElementEv
000000000085c140 T _ZNK4llvm10UndefValue16getStructElementEj
000000000085c160 T _ZNK4llvm10UndefValue15getElementValueEPNS_8ConstantE
000000000085c1a0 T _ZNK4llvm10UndefValue15getElementValueEj
000000000085c1d0 T _ZN4llvm13ConstantArray7getImplEPNS_9ArrayTypeENS_8ArrayRefIPNS_8ConstantEEE
000000000085ca60 T _ZN4llvm14ConstantVector7getImplENS_8ArrayRefIPNS_8ConstantEEE
000000000085d5a0 T _ZN4llvm12BlockAddress23handleOperandChangeImplEPNS_5ValueES2_
000000000085d8f0 T _ZN4llvm12BlockAddress3getEPNS_8FunctionEPNS_10BasicBlockE
000000000085db50 T _ZN4llvm12BlockAddress3getEPNS_10BasicBlockE
000000000085dd90 T _ZN4llvm13ConstantArray19destroyConstantImplEv
000000000085e0e0 T _ZN4llvm14ConstantStruct19destroyConstantImplEv
000000000085e430 T _ZN4llvm14ConstantVector19destroyConstantImplEv
000000000085e820 T _ZN4llvm12ConstantExpr19destroyConstantImplEv
000000000085e940 T _ZN4llvm8Constant15destroyConstantEv
000000000085eaa0 T _ZNK4llvm8Constant23removeDeadConstantUsersEv
000000000085f060 T _ZN4llvm13ConstantArray23handleOperandChangeImplEPNS_5ValueES2_
000000000085f840 T _ZN4llvm13ConstantArray3getEPNS_9ArrayTypeENS_8ArrayRefIPNS_8ConstantEEE
00000000008601f0 T _ZN4llvm14ConstantStruct3getEPNS_10StructTypeENS_8ArrayRefIPNS_8ConstantEEE
00000000008605d0 T _ZN4llvm14ConstantStruct23handleOperandChangeImplEPNS_5ValueES2_
00000000008612e0 T _ZN4llvm14ConstantVector23handleOperandChangeImplEPNS_5ValueES2_
0000000000861970 T _ZN4llvm14ConstantVector3getENS_8ArrayRefIPNS_8ConstantEEE
0000000000861ec0 T _ZN4llvm14ConstantVector8getSplatEjPNS_8ConstantE
0000000000862010 T _ZN4llvm8Constant15getAllOnesValueEPNS_4TypeE
0000000000862140 T _ZN4llvm11ConstantInt7getTrueEPNS_4TypeE
0000000000862170 T _ZN4llvm11ConstantInt8getFalseEPNS_4TypeE
00000000008621a0 T _ZN4llvm11ConstantInt3getEPNS_4TypeEmb
00000000008621e0 T _ZN4llvm8Constant12getNullValueEPNS_4TypeE
00000000008623d0 T _ZNK4llvm21ConstantAggregateZero20getSequentialElementEv
00000000008623f0 T _ZNK4llvm21ConstantAggregateZero16getStructElementEj
0000000000862410 T _ZNK4llvm21ConstantAggregateZero15getElementValueEPNS_8ConstantE
0000000000862450 T _ZNK4llvm21ConstantAggregateZero15getElementValueEj
0000000000862480 T _ZN4llvm12ConstantExpr16getBinOpAbsorberEjPNS_4TypeE
00000000008624c0 T _ZN4llvm11ConstantInt9getSignedEPNS_4TypeEl
00000000008624d0 T _ZNK4llvm22ConstantDataSequential20getElementAsConstantEj
00000000008625a0 T _ZNK4llvm8Constant19getAggregateElementEj
0000000000862670 T _ZNK4llvm8Constant13isNotOneValueEv
0000000000862780 T _ZNK4llvm8Constant19isNotMinSignedValueEv
0000000000862940 T _ZNK4llvm8Constant17isFiniteNonZeroFPEv
0000000000862a30 T _ZNK4llvm8Constant10isNormalFPEv
0000000000862b80 T _ZNK4llvm8Constant17hasExactInverseFPEv
0000000000862c50 T _ZNK4llvm8Constant5isNaNEv
0000000000862d20 T _ZNK4llvm8Constant20containsUndefElementEv
0000000000862d80 T _ZNK4llvm8Constant26containsConstantExpressionEv
0000000000862de0 T _ZNK4llvm8Constant19getAggregateElementEPS0_
0000000000862e50 T _ZNK4llvm8Constant16getUniqueIntegerEv
0000000000862e80 T _ZNK4llvm18ConstantDataVector13getSplatValueEv
0000000000862eb0 T _ZNK4llvm8Constant13getSplatValueEb
0000000000862f00 T _ZN4llvm11ConstantInt3getEPNS_4TypeERKNS_5APIntE
0000000000862f30 T _ZN4llvm10ConstantFP3getEPNS_4TypeEd
0000000000863080 T _ZN4llvm10ConstantFP3getEPNS_4TypeERKNS_7APFloatE
00000000008630b0 T _ZN4llvm10ConstantFP3getEPNS_4TypeENS_9StringRefE
0000000000863250 T _ZN4llvm10ConstantFP6getNaNEPNS_4TypeEbm
0000000000863480 T _ZN4llvm10ConstantFP7getQNaNEPNS_4TypeEbPNS_5APIntE
0000000000863600 T _ZN4llvm10ConstantFP7getSNaNEPNS_4TypeEbPNS_5APIntE
0000000000863780 T _ZN4llvm10ConstantFP15getNegativeZeroEPNS_4TypeE
00000000008638e0 T _ZN4llvm10ConstantFP23getZeroValueForNegationEPNS_4TypeE
0000000000863910 T _ZN4llvm12ConstantExpr16getBinOpIdentityEjPNS_4TypeEb
00000000008639a0 T _ZN4llvm10ConstantFP11getInfinityEPNS_4TypeEb
0000000000863b10 T _ZN4llvm18ConstantDataVector8getSplatEjPNS_8ConstantE
0000000000864420 T _ZN4llvm8Constant17replaceUndefsWithEPS0_S1_
0000000000865350 T _ZN4llvm12ConstantExpr10getBitCastEPNS_8ConstantEPNS_4TypeEb
0000000000865380 T _ZN4llvm12ConstantExpr16getAddrSpaceCastEPNS_8ConstantEPNS_4TypeEb
0000000000865410 T _ZN4llvm12ConstantExpr32getPointerBitCastOrAddrSpaceCastEPNS_8ConstantEPNS_4TypeE
0000000000865460 T _ZN4llvm12ConstantExpr3getEjPNS_8ConstantEjPNS_4TypeE
0000000000865540 T _ZN4llvm12ConstantExpr7getFNegEPNS_8ConstantE
0000000000865560 T _ZN4llvm12ConstantExpr3getEjPNS_8ConstantES2_jPNS_4TypeE
0000000000865660 T _ZN4llvm12ConstantExpr6getNotEPNS_8ConstantE
0000000000865690 T _ZN4llvm12ConstantExpr6getAddEPNS_8ConstantES2_bb
00000000008656c0 T _ZN4llvm12ConstantExpr7getFAddEPNS_8ConstantES2_
00000000008656e0 T _ZN4llvm12ConstantExpr6getSubEPNS_8ConstantES2_bb
0000000000865710 T _ZN4llvm12ConstantExpr6getNegEPNS_8ConstantEbb
0000000000865740 T _ZN4llvm12ConstantExpr7getFSubEPNS_8ConstantES2_
0000000000865760 T _ZN4llvm12ConstantExpr6getMulEPNS_8ConstantES2_bb
0000000000865790 T _ZN4llvm12ConstantExpr7getFMulEPNS_8ConstantES2_
00000000008657b0 T _ZN4llvm12ConstantExpr7getUDivEPNS_8ConstantES2_b
00000000008657d0 T _ZN4llvm12ConstantExpr7getSDivEPNS_8ConstantES2_b
00000000008657f0 T _ZN4llvm12ConstantExpr7getFDivEPNS_8ConstantES2_
0000000000865810 T _ZN4llvm12ConstantExpr7getURemEPNS_8ConstantES2_
0000000000865830 T _ZN4llvm12ConstantExpr7getSRemEPNS_8ConstantES2_
0000000000865850 T _ZN4llvm12ConstantExpr7getFRemEPNS_8ConstantES2_
0000000000865870 T _ZN4llvm12ConstantExpr6getAndEPNS_8ConstantES2_
0000000000865890 T _ZN4llvm12ConstantExpr5getOrEPNS_8ConstantES2_
00000000008658b0 T _ZN4llvm12ConstantExpr6getXorEPNS_8ConstantES2_
00000000008658d0 T _ZN4llvm12ConstantExpr6getShlEPNS_8ConstantES2_bb
0000000000865900 T _ZN4llvm12ConstantExpr7getLShrEPNS_8ConstantES2_b
0000000000865920 T _ZN4llvm12ConstantExpr7getAShrEPNS_8ConstantES2_b
0000000000865940 T _ZN4llvm12ConstantExpr9getSelectEPNS_8ConstantES2_S2_PNS_4TypeE
0000000000865a30 T _ZN4llvm12ConstantExpr16getGetElementPtrEPNS_4TypeEPNS_8ConstantENS_8ArrayRefIPNS_5ValueEEEbNS_8OptionalIjEES2_
0000000000865e80 T _ZN4llvm12ConstantExpr7getICmpEtPNS_8ConstantES2_b
0000000000865fa0 T _ZNK4llvm8Constant18isElementWiseEqualEPNS_5ValueE
0000000000866120 T _ZN4llvm12ConstantExpr7getFCmpEtPNS_8ConstantES2_b
0000000000866240 T _ZN4llvm12ConstantExpr10getCompareEtPNS_8ConstantES2_b
0000000000866270 T _ZN4llvm12ConstantExpr17getExtractElementEPNS_8ConstantES2_PNS_4TypeE
0000000000866360 T _ZN4llvm12ConstantExpr16getInsertElementEPNS_8ConstantES2_S2_PNS_4TypeE
0000000000866450 T _ZN4llvm12ConstantExpr16getShuffleVectorEPNS_8ConstantES2_S2_PNS_4TypeE
0000000000866570 T _ZN4llvm12ConstantExpr14getInsertValueEPNS_8ConstantES2_NS_8ArrayRefIjEEPNS_4TypeE
0000000000866660 T _ZN4llvm12ConstantExpr15getExtractValueEPNS_8ConstantENS_8ArrayRefIjEEPNS_4TypeE
0000000000866750 T _ZN4llvm12ConstantExpr10getFPTruncEPNS_8ConstantEPNS_4TypeEb
0000000000866820 T _ZN4llvm12ConstantExpr11getFPExtendEPNS_8ConstantEPNS_4TypeEb
00000000008668f0 T _ZN4llvm12ConstantExpr9getUIToFPEPNS_8ConstantEPNS_4TypeEb
00000000008669c0 T _ZN4llvm12ConstantExpr9getSIToFPEPNS_8ConstantEPNS_4TypeEb
0000000000866a90 T _ZN4llvm12ConstantExpr8getTruncEPNS_8ConstantEPNS_4TypeEb
0000000000866b60 T _ZN4llvm12ConstantExpr17getTruncOrBitCastEPNS_8ConstantEPNS_4TypeE
0000000000866bb0 T _ZN4llvm12ConstantExpr9getFPToUIEPNS_8ConstantEPNS_4TypeEb
0000000000866c80 T _ZN4llvm12ConstantExpr9getFPToSIEPNS_8ConstantEPNS_4TypeEb
0000000000866d50 T _ZN4llvm12ConstantExpr11getPtrToIntEPNS_8ConstantEPNS_4TypeEb
0000000000866e20 T _ZN4llvm12ConstantExpr14getPointerCastEPNS_8ConstantEPNS_4TypeE
0000000000866e90 T _ZN4llvm12ConstantExpr10getAlignOfEPNS_4TypeE
0000000000866fc0 T _ZN4llvm12ConstantExpr11getOffsetOfEPNS_4TypeEPNS_8ConstantE
0000000000867070 T _ZN4llvm12ConstantExpr11getOffsetOfEPNS_10StructTypeEj
00000000008670b0 T _ZN4llvm12ConstantExpr9getSizeOfEPNS_4TypeE
0000000000867160 T _ZN4llvm12ConstantExpr11getIntToPtrEPNS_8ConstantEPNS_4TypeEb
0000000000867230 T _ZN4llvm8Constant15getIntegerValueEPNS_4TypeERKNS_5APIntE
0000000000867290 T _ZN4llvm12ConstantExpr7getSExtEPNS_8ConstantEPNS_4TypeEb
0000000000867360 T _ZN4llvm12ConstantExpr16getSExtOrBitCastEPNS_8ConstantEPNS_4TypeE
00000000008673b0 T _ZN4llvm12ConstantExpr7getZExtEPNS_8ConstantEPNS_4TypeEb
0000000000867480 T _ZN4llvm12ConstantExpr16getZExtOrBitCastEPNS_8ConstantEPNS_4TypeE
00000000008674d0 T _ZN4llvm12ConstantExpr7getCastEjPNS_8ConstantEPNS_4TypeEb
0000000000867560 T _ZN4llvm12ConstantExpr14getIntegerCastEPNS_8ConstantEPNS_4TypeEb
00000000008675c0 T _ZN4llvm12ConstantExpr9getFPCastEPNS_8ConstantEPNS_4TypeE
0000000000867610 T _ZNK4llvm12ConstantExpr15getWithOperandsENS_8ArrayRefIPNS_8ConstantEEEPNS_4TypeEbS6_
00000000008678a0 T _ZNK4llvm12ConstantExpr22getWithOperandReplacedEjPNS_8ConstantE
0000000000867a10 T _ZN4llvm12ConstantExpr23handleOperandChangeImplEPNS_5ValueES2_
0000000000868210 T _ZN4llvm8Constant19handleOperandChangeEPNS_5ValueES2_
00000000008687e0 T _ZN4llvm14initializeCoreERNS_12PassRegistryE
0000000000868810 T LLVMInitializeCore
0000000000868820 T LLVMShutdown
0000000000868830 T LLVMCreateMessage
0000000000868840 T LLVMDisposeMessage
0000000000868850 T LLVMContextCreate
0000000000868880 T LLVMGetGlobalContext
00000000008688d0 T LLVMContextSetDiagnosticHandler
00000000008688e0 T LLVMContextGetDiagnosticHandler
00000000008688f0 T LLVMContextGetDiagnosticContext
0000000000868900 T LLVMContextSetYieldCallback
0000000000868910 T LLVMContextShouldDiscardValueNames
0000000000868930 T LLVMContextSetDiscardValueNames
0000000000868950 T LLVMContextDispose
0000000000868980 T LLVMGetMDKindIDInContext
0000000000868990 T LLVMGetMDKindID
00000000008689c0 T LLVMGetLastEnumAttributeKind
00000000008689d0 T LLVMCreateEnumAttribute
0000000000868a00 T LLVMGetEnumAttributeKind
0000000000868a40 T LLVMGetEnumAttributeValue
0000000000868aa0 T LLVMCreateStringAttribute
0000000000868ac0 T LLVMGetStringAttributeKind
0000000000868b10 T LLVMGetStringAttributeValue
0000000000868b60 T LLVMIsEnumAttribute
0000000000868bd0 T LLVMIsStringAttribute
0000000000868c20 T LLVMGetDiagInfoDescription
0000000000868d20 T LLVMGetDiagInfoSeverity
0000000000868d40 T LLVMModuleCreateWithName
0000000000868dd0 T LLVMModuleCreateWithNameInContext
0000000000868e30 T LLVMDisposeModule
0000000000868e60 T LLVMGetModuleIdentifier
0000000000868e80 T LLVMSetModuleIdentifier
0000000000869090 T LLVMGetSourceFileName
00000000008690b0 T LLVMSetSourceFileName
00000000008692c0 T LLVMGetDataLayoutStr
00000000008692d0 T LLVMGetDataLayout
00000000008692e0 T LLVMSetDataLayout
0000000000869320 T LLVMGetTarget
0000000000869330 T LLVMSetTarget
0000000000869550 T LLVMCopyModuleFlagsMetadata
00000000008696a0 T LLVMDisposeModuleFlagsMetadata
00000000008696b0 T LLVMModuleFlagEntriesGetFlagBehavior
00000000008696c0 T LLVMModuleFlagEntriesGetKey
00000000008696e0 T LLVMModuleFlagEntriesGetMetadata
00000000008696f0 T LLVMGetModuleFlag
0000000000869700 T LLVMAddModuleFlag
0000000000869710 T LLVMDumpModule
0000000000869740 T LLVMPrintModuleToString
0000000000869820 T LLVMSetModuleInlineAsm2
0000000000869a90 T LLVMSetModuleInlineAsm
0000000000869cf0 T LLVMAppendModuleInlineAsm
0000000000869db0 T LLVMGetModuleInlineAsm
0000000000869dc0 T LLVMGetInlineAsm
0000000000869df0 T LLVMGetModuleContext
0000000000869e00 T LLVMGetTypeKind
0000000000869e20 T LLVMTypeIsSized
0000000000869e80 T LLVMGetTypeContext
0000000000869e90 T LLVMDumpType
0000000000869eb0 T LLVMPrintTypeToString
0000000000869fb0 T LLVMInt1TypeInContext
0000000000869fc0 T LLVMInt8TypeInContext
0000000000869fd0 T LLVMInt16TypeInContext
0000000000869fe0 T LLVMInt32TypeInContext
0000000000869ff0 T LLVMInt64TypeInContext
000000000086a000 T LLVMInt128TypeInContext
000000000086a010 T LLVMIntTypeInContext
000000000086a020 T LLVMInt1Type
000000000086a040 T LLVMInt8Type
000000000086a060 T LLVMInt16Type
000000000086a080 T LLVMInt32Type
000000000086a0a0 T LLVMInt64Type
000000000086a0c0 T LLVMInt128Type
000000000086a0e0 T LLVMIntType
000000000086a100 T LLVMGetIntTypeWidth
000000000086a110 T LLVMHalfTypeInContext
000000000086a120 T LLVMFloatTypeInContext
000000000086a130 T LLVMDoubleTypeInContext
000000000086a140 T LLVMX86FP80TypeInContext
000000000086a150 T LLVMFP128TypeInContext
000000000086a160 T LLVMPPCFP128TypeInContext
000000000086a170 T LLVMX86MMXTypeInContext
000000000086a180 T LLVMHalfType
000000000086a1a0 T LLVMFloatType
000000000086a1c0 T LLVMDoubleType
000000000086a1e0 T LLVMX86FP80Type
000000000086a200 T LLVMFP128Type
000000000086a220 T LLVMPPCFP128Type
000000000086a240 T LLVMX86MMXType
000000000086a260 T LLVMFunctionType
000000000086a280 T LLVMIsFunctionVarArg
000000000086a2a0 T LLVMGetReturnType
000000000086a2b0 T LLVMCountParamTypes
000000000086a2c0 T LLVMGetParamTypes
000000000086a340 T LLVMStructTypeInContext
000000000086a360 T LLVMStructType
000000000086a390 T LLVMStructCreateNamed
000000000086a3d0 T LLVMGetStructName
000000000086a400 T LLVMStructSetBody
000000000086a420 T LLVMCountStructElementTypes
000000000086a430 T LLVMGetStructElementTypes
000000000086a4b0 T LLVMStructGetTypeAtIndex
000000000086a4c0 T LLVMIsPackedStruct
000000000086a4d0 T LLVMIsOpaqueStruct
000000000086a4f0 T LLVMIsLiteralStruct
000000000086a500 T LLVMGetTypeByName
000000000086a540 T LLVMGetSubtypes
000000000086a5c0 T LLVMArrayType
000000000086a5d0 T LLVMPointerType
000000000086a5e0 T LLVMVectorType
000000000086a5f0 T LLVMGetElementType
000000000086a600 T LLVMGetNumContainedTypes
000000000086a610 T LLVMGetArrayLength
000000000086a620 T LLVMGetPointerAddressSpace
000000000086a630 T LLVMGetVectorSize
000000000086a640 T LLVMVoidTypeInContext
000000000086a650 T LLVMLabelTypeInContext
000000000086a660 T LLVMTokenTypeInContext
000000000086a670 T LLVMMetadataTypeInContext
000000000086a680 T LLVMVoidType
000000000086a6a0 T LLVMLabelType
000000000086a6c0 T LLVMTypeOf
000000000086a6d0 T LLVMGetValueKind
000000000086a700 T LLVMGetValueName2
000000000086a730 T LLVMSetValueName2
000000000086a790 T LLVMGetValueName
000000000086a7b0 T LLVMSetValueName
000000000086a810 T LLVMDumpValue
000000000086a830 T LLVMPrintValueToString
000000000086a930 T LLVMReplaceAllUsesWith
000000000086a940 T LLVMHasMetadata
000000000086a960 T LLVMGetMetadata
000000000086a9c0 T LLVMSetMetadata
000000000086aa50 T LLVMInstructionGetAllMetadataOtherThanDebugLoc
000000000086abb0 T LLVMIsAArgument
000000000086abe0 T LLVMIsABasicBlock
000000000086ac10 T LLVMIsAInlineAsm
000000000086ac40 T LLVMIsAUser
000000000086ac70 T LLVMIsAConstant
000000000086aca0 T LLVMIsABlockAddress
000000000086acd0 T LLVMIsAConstantAggregateZero
000000000086ad00 T LLVMIsAConstantArray
000000000086ad30 T LLVMIsAConstantDataSequential
000000000086ad60 T LLVMIsAConstantDataArray
000000000086ad90 T LLVMIsAConstantDataVector
000000000086adc0 T LLVMIsAConstantExpr
000000000086adf0 T LLVMIsAConstantFP
000000000086ae20 T LLVMIsAConstantInt
000000000086ae50 T LLVMIsAConstantPointerNull
000000000086ae80 T LLVMIsAConstantStruct
000000000086aeb0 T LLVMIsAConstantTokenNone
000000000086aee0 T LLVMIsAConstantVector
000000000086af10 T LLVMIsAGlobalValue
000000000086af30 T LLVMIsAGlobalAlias
000000000086af60 T LLVMIsAGlobalIFunc
000000000086af90 T LLVMIsAGlobalObject
000000000086afc0 T LLVMIsAFunction
000000000086aff0 T LLVMIsAGlobalVariable
000000000086b020 T LLVMIsAUndefValue
000000000086b050 T LLVMIsAInstruction
000000000086b080 T LLVMIsAUnaryOperator
000000000086b0b0 T LLVMIsABinaryOperator
000000000086b0e0 T LLVMIsACallInst
000000000086b110 T LLVMIsAIntrinsicInst
000000000086b160 T LLVMIsADbgInfoIntrinsic
000000000086b1b0 T LLVMIsADbgVariableIntrinsic
000000000086b220 T LLVMIsADbgDeclareInst
000000000086b270 T LLVMIsADbgLabelInst
000000000086b2c0 T LLVMIsAMemIntrinsic
000000000086b310 T LLVMIsAMemCpyInst
000000000086b360 T LLVMIsAMemMoveInst
000000000086b3b0 T LLVMIsAMemSetInst
000000000086b400 T LLVMIsACmpInst
000000000086b430 T LLVMIsAFCmpInst
000000000086b460 T LLVMIsAICmpInst
000000000086b490 T LLVMIsAExtractElementInst
000000000086b4c0 T LLVMIsAGetElementPtrInst
000000000086b4f0 T LLVMIsAInsertElementInst
000000000086b520 T LLVMIsAInsertValueInst
000000000086b550 T LLVMIsALandingPadInst
000000000086b580 T LLVMIsAPHINode
000000000086b5b0 T LLVMIsASelectInst
000000000086b5e0 T LLVMIsAShuffleVectorInst
000000000086b610 T LLVMIsAStoreInst
000000000086b640 T LLVMIsABranchInst
000000000086b670 T LLVMIsAIndirectBrInst
000000000086b6a0 T LLVMIsAInvokeInst
000000000086b6d0 T LLVMIsAReturnInst
000000000086b700 T LLVMIsASwitchInst
000000000086b730 T LLVMIsAUnreachableInst
000000000086b760 T LLVMIsAResumeInst
000000000086b790 T LLVMIsACleanupReturnInst
000000000086b7c0 T LLVMIsACatchReturnInst
000000000086b7f0 T LLVMIsACatchSwitchInst
000000000086b820 T LLVMIsACallBrInst
000000000086b850 T LLVMIsAFuncletPadInst
000000000086b880 T LLVMIsACatchPadInst
000000000086b8b0 T LLVMIsACleanupPadInst
000000000086b8e0 T LLVMIsAUnaryInstruction
000000000086b930 T LLVMIsAAllocaInst
000000000086b960 T LLVMIsACastInst
000000000086b990 T LLVMIsAAddrSpaceCastInst
000000000086b9c0 T LLVMIsABitCastInst
000000000086b9f0 T LLVMIsAFPExtInst
000000000086ba20 T LLVMIsAFPToSIInst
000000000086ba50 T LLVMIsAFPToUIInst
000000000086ba80 T LLVMIsAFPTruncInst
000000000086bab0 T LLVMIsAIntToPtrInst
000000000086bae0 T LLVMIsAPtrToIntInst
000000000086bb10 T LLVMIsASExtInst
000000000086bb40 T LLVMIsASIToFPInst
000000000086bb70 T LLVMIsATruncInst
000000000086bba0 T LLVMIsAUIToFPInst
000000000086bbd0 T LLVMIsAZExtInst
000000000086bc00 T LLVMIsAExtractValueInst
000000000086bc30 T LLVMIsALoadInst
000000000086bc60 T LLVMIsAVAArgInst
000000000086bc90 T LLVMIsAFreezeInst
000000000086bcc0 T LLVMIsAAtomicCmpXchgInst
000000000086bcf0 T LLVMIsAAtomicRMWInst
000000000086bd20 T LLVMIsAFenceInst
000000000086bd50 T LLVMIsAMDNode
000000000086bd90 T LLVMIsAMDString
000000000086bdc0 T LLVMGetFirstUse
000000000086bdd0 T LLVMGetNextUse
000000000086bde0 T LLVMGetUser
000000000086bdf0 T LLVMGetUsedValue
000000000086be00 T LLVMGetOperand
000000000086beb0 T LLVMGetOperandUse
000000000086bef0 T LLVMSetOperand
000000000086bf90 T LLVMConstNull
000000000086bfa0 T LLVMConstAllOnes
000000000086bfb0 T LLVMGetUndef
000000000086bfc0 T LLVMIsConstant
000000000086bfd0 T LLVMIsNull
000000000086c000 T LLVMIsUndef
000000000086c010 T LLVMConstPointerNull
000000000086c020 T LLVMMDStringInContext2
000000000086c030 T LLVMMDNodeInContext2
000000000086c050 T LLVMMDStringInContext
000000000086c070 T LLVMMDString
000000000086c0a0 T LLVMMDNodeInContext
000000000086c1f0 T LLVMMDNode
000000000086c220 T LLVMMetadataAsValue
000000000086c230 T LLVMValueAsMetadata
000000000086c250 T LLVMGetMDString
000000000086c2a0 T LLVMGetMDNodeNumOperands
000000000086c2d0 T LLVMGetNumOperands
000000000086c2f0 T LLVMGetFirstNamedMetadata
000000000086c310 T LLVMGetLastNamedMetadata
000000000086c330 T LLVMGetNextNamedMetadata
000000000086c350 T LLVMGetPreviousNamedMetadata
000000000086c370 T LLVMGetNamedMetadata
000000000086c3d0 T LLVMGetOrInsertNamedMetadata
000000000086c3e0 T LLVMGetNamedMetadataName
000000000086c410 T LLVMGetMDNodeOperands
000000000086c4a0 T LLVMGetNamedMetadataNumOperands
000000000086c510 T LLVMGetNamedMetadataOperands
000000000086c5c0 T LLVMAddNamedMetadataOperand
000000000086c680 T LLVMGetDebugLocDirectory
000000000086c880 T LLVMGetDebugLocFilename
000000000086ca80 T LLVMGetDebugLocLine
000000000086cb70 T LLVMGetDebugLocColumn
000000000086cbb0 T LLVMConstInt
000000000086cbd0 T LLVMConstIntOfArbitraryPrecision
000000000086cc50 T LLVMConstIntOfString
000000000086cc90 T LLVMConstIntOfStringAndSize
000000000086cca0 T LLVMConstReal
000000000086ccb0 T LLVMConstRealOfString
000000000086ccf0 T LLVMConstRealOfStringAndSize
000000000086cd00 T LLVMConstIntGetZExtValue
000000000086cd20 T LLVMConstIntGetSExtValue
000000000086cd50 T LLVMConstRealGetDouble
000000000086cf20 T LLVMConstStringInContext
000000000086cf40 T LLVMConstString
000000000086cf70 T LLVMGetElementAsConstant
000000000086cf80 T LLVMIsConstantString
000000000086cfa0 T LLVMGetAsString
000000000086cfc0 T LLVMConstArray
000000000086cff0 T LLVMConstStructInContext
000000000086d030 T LLVMConstStruct
000000000086d060 T LLVMConstNamedStruct
000000000086d070 T LLVMConstVector
000000000086d080 T LLVMGetConstOpcode
000000000086d0a0 T LLVMAlignOf
000000000086d0b0 T LLVMSizeOf
000000000086d0c0 T LLVMConstNeg
000000000086d0d0 T LLVMConstNSWNeg
000000000086d0e0 T LLVMConstNUWNeg
000000000086d0f0 T LLVMConstFNeg
000000000086d100 T LLVMConstNot
000000000086d110 T LLVMConstAdd
000000000086d120 T LLVMConstNSWAdd
000000000086d130 T LLVMConstNUWAdd
000000000086d140 T LLVMConstFAdd
000000000086d150 T LLVMConstSub
000000000086d160 T LLVMConstNSWSub
000000000086d170 T LLVMConstNUWSub
000000000086d180 T LLVMConstFSub
000000000086d190 T LLVMConstMul
000000000086d1a0 T LLVMConstNSWMul
000000000086d1b0 T LLVMConstNUWMul
000000000086d1c0 T LLVMConstFMul
000000000086d1d0 T LLVMConstUDiv
000000000086d1e0 T LLVMConstExactUDiv
000000000086d1f0 T LLVMConstSDiv
000000000086d200 T LLVMConstExactSDiv
000000000086d210 T LLVMConstFDiv
000000000086d220 T LLVMConstURem
000000000086d230 T LLVMConstSRem
000000000086d240 T LLVMConstFRem
000000000086d250 T LLVMConstAnd
000000000086d260 T LLVMConstOr
000000000086d270 T LLVMConstXor
000000000086d280 T LLVMConstICmp
000000000086d290 T LLVMConstFCmp
000000000086d2a0 T LLVMConstShl
000000000086d2b0 T LLVMConstLShr
000000000086d2c0 T LLVMConstAShr
000000000086d2d0 T LLVMConstGEP
000000000086d310 T LLVMConstInBoundsGEP
000000000086d360 T LLVMConstTrunc
000000000086d370 T LLVMConstSExt
000000000086d380 T LLVMConstZExt
000000000086d390 T LLVMConstFPTrunc
000000000086d3a0 T LLVMConstFPExt
000000000086d3b0 T LLVMConstUIToFP
000000000086d3c0 T LLVMConstSIToFP
000000000086d3d0 T LLVMConstFPToUI
000000000086d3e0 T LLVMConstFPToSI
000000000086d3f0 T LLVMConstPtrToInt
000000000086d400 T LLVMConstIntToPtr
000000000086d410 T LLVMConstBitCast
000000000086d420 T LLVMConstAddrSpaceCast
000000000086d430 T LLVMConstZExtOrBitCast
000000000086d440 T LLVMConstSExtOrBitCast
000000000086d450 T LLVMConstTruncOrBitCast
000000000086d460 T LLVMConstPointerCast
000000000086d470 T LLVMConstIntCast
000000000086d490 T LLVMConstFPCast
000000000086d4a0 T LLVMConstSelect
000000000086d4b0 T LLVMConstExtractElement
000000000086d4c0 T LLVMConstInsertElement
000000000086d4d0 T LLVMConstShuffleVector
000000000086d4e0 T LLVMConstExtractValue
000000000086d4f0 T LLVMConstInsertValue
000000000086d500 T LLVMConstInlineAsm
000000000086d590 T LLVMBlockAddress
000000000086d5a0 T LLVMGetGlobalParent
000000000086d5b0 T LLVMIsDeclaration
000000000086d5d0 T LLVMGetLinkage
000000000086d5f0 T LLVMSetLinkage
000000000086d720 T LLVMGetSection
000000000086d740 T LLVMSetSection
000000000086d780 T LLVMGetVisibility
000000000086d790 T LLVMSetVisibility
000000000086d7d0 T LLVMGetDLLStorageClass
000000000086d7e0 T LLVMSetDLLStorageClass
000000000086d800 T LLVMGetUnnamedAddress
000000000086d810 T LLVMSetUnnamedAddress
000000000086d850 T LLVMHasUnnamedAddr
000000000086d870 T LLVMSetUnnamedAddr
000000000086d890 T LLVMGlobalGetValueType
000000000086d8a0 T LLVMGetAlignment
000000000086d8f0 T LLVMSetAlignment
000000000086d9a0 T LLVMGlobalCopyAllMetadata
000000000086db10 T LLVMValueMetadataEntriesGetKind
000000000086db20 T LLVMValueMetadataEntriesGetMetadata
000000000086db30 T LLVMDisposeValueMetadataEntries
000000000086db40 T LLVMGlobalSetMetadata
000000000086db50 T LLVMGlobalEraseMetadata
000000000086db60 T LLVMGlobalClearMetadata
000000000086db70 T LLVMAddGlobal
000000000086dc20 T LLVMAddGlobalInAddressSpace
000000000086dcd0 T LLVMGetNamedGlobal
000000000086dd10 T LLVMGetFirstGlobal
000000000086dd40 T LLVMGetLastGlobal
000000000086dd70 T LLVMGetNextGlobal
000000000086ddb0 T LLVMGetPreviousGlobal
000000000086ddf0 T LLVMDeleteGlobal
000000000086de00 T LLVMGetInitializer
000000000086de30 T LLVMSetInitializer
000000000086de40 T LLVMIsThreadLocal
000000000086de50 T LLVMSetThreadLocal
000000000086de70 T LLVMIsGlobalConstant
000000000086de80 T LLVMSetGlobalConstant
000000000086dea0 T LLVMGetThreadLocalMode
000000000086deb0 T LLVMSetThreadLocalMode
000000000086df20 T LLVMIsExternallyInitialized
000000000086df30 T LLVMSetExternallyInitialized
000000000086df50 T LLVMAddAlias
000000000086dfd0 T LLVMGetNamedGlobalAlias
000000000086e010 T LLVMGetFirstGlobalAlias
000000000086e040 T LLVMGetLastGlobalAlias
000000000086e070 T LLVMGetNextGlobalAlias
000000000086e0b0 T LLVMGetPreviousGlobalAlias
000000000086e0f0 T LLVMAliasGetAliasee
000000000086e100 T LLVMAliasSetAliasee
000000000086e110 T LLVMAddFunction
000000000086e1a0 T LLVMGetNamedFunction
000000000086e1e0 T LLVMGetFirstFunction
000000000086e210 T LLVMGetLastFunction
000000000086e240 T LLVMGetNextFunction
000000000086e280 T LLVMGetPreviousFunction
000000000086e2c0 T LLVMDeleteFunction
000000000086e2d0 T LLVMHasPersonalityFn
000000000086e2e0 T LLVMGetPersonalityFn
000000000086e2f0 T LLVMSetPersonalityFn
000000000086e300 T LLVMGetIntrinsicID
000000000086e310 T LLVMGetIntrinsicDeclaration
000000000086e320 T LLVMIntrinsicGetName
000000000086e340 T LLVMIntrinsicGetType
000000000086e350 T LLVMIntrinsicCopyOverloadedName
000000000086e3d0 T LLVMLookupIntrinsicID
000000000086e3e0 T LLVMIntrinsicIsOverloaded
000000000086e400 T LLVMGetFunctionCallConv
000000000086e420 T LLVMSetFunctionCallConv
000000000086e440 T LLVMGetGC
000000000086e470 T LLVMSetGC
000000000086e590 T LLVMAddAttributeAtIndex
000000000086e5a0 T LLVMGetAttributeCountAtIndex
000000000086e600 T LLVMGetAttributesAtIndex
000000000086e6e0 T LLVMGetEnumAttributeAtIndex
000000000086e700 T LLVMGetStringAttributeAtIndex
000000000086e720 T LLVMRemoveEnumAttributeAtIndex
000000000086e730 T LLVMRemoveStringAttributeAtIndex
000000000086e740 T LLVMAddTargetDependentFunctionAttr
000000000086e7b0 T LLVMCountParams
000000000086e7c0 T LLVMGetParams
000000000086e8e0 T LLVMGetParam
000000000086e920 T LLVMGetParamParent
000000000086e930 T LLVMGetFirstParam
000000000086e990 T LLVMGetLastParam
000000000086ea00 T LLVMGetNextParam
000000000086ea60 T LLVMGetPreviousParam
000000000086eab0 T LLVMSetParamAlignment
000000000086eb10 T LLVMAddGlobalIFunc
000000000086eb90 T LLVMGetNamedGlobalIFunc
000000000086eba0 T LLVMGetFirstGlobalIFunc
000000000086ebd0 T LLVMGetLastGlobalIFunc
000000000086ec00 T LLVMGetNextGlobalIFunc
000000000086ec40 T LLVMGetPreviousGlobalIFunc
000000000086ec80 T LLVMGetGlobalIFuncResolver
000000000086ec90 T LLVMSetGlobalIFuncResolver
000000000086ed00 T LLVMEraseGlobalIFunc
000000000086ed10 T LLVMRemoveGlobalIFunc
000000000086ed20 T LLVMBasicBlockAsValue
000000000086ed30 T LLVMValueIsBasicBlock
000000000086ed40 T LLVMValueAsBasicBlock
000000000086ed50 T LLVMGetBasicBlockName
000000000086ed70 T LLVMGetBasicBlockParent
000000000086ed80 T LLVMGetBasicBlockTerminator
000000000086ed90 T LLVMCountBasicBlocks
000000000086edd0 T LLVMGetBasicBlocks
000000000086ee20 T LLVMGetEntryBasicBlock
000000000086ee40 T LLVMGetFirstBasicBlock
000000000086ee70 T LLVMGetLastBasicBlock
000000000086eea0 T LLVMGetNextBasicBlock
000000000086eee0 T LLVMGetPreviousBasicBlock
000000000086ef20 T LLVMCreateBasicBlockInContext
000000000086efa0 T LLVMInsertExistingBasicBlockAfterInsertBlock
000000000086f020 T LLVMAppendExistingBasicBlock
000000000086f060 T LLVMAppendBasicBlockInContext
000000000086f0f0 T LLVMAppendBasicBlock
000000000086f120 T LLVMInsertBasicBlockInContext
000000000086f1b0 T LLVMInsertBasicBlock
000000000086f1e0 T LLVMDeleteBasicBlock
000000000086f1f0 T LLVMRemoveBasicBlockFromParent
000000000086f200 T LLVMMoveBasicBlockBefore
000000000086f210 T LLVMMoveBasicBlockAfter
000000000086f220 T LLVMGetInstructionParent
000000000086f230 T LLVMGetFirstInstruction
000000000086f260 T LLVMGetLastInstruction
000000000086f290 T LLVMGetNextInstruction
000000000086f2d0 T LLVMGetPreviousInstruction
000000000086f310 T LLVMInstructionRemoveFromParent
000000000086f320 T LLVMInstructionEraseFromParent
000000000086f330 T LLVMGetICmpPredicate
000000000086f370 T LLVMGetFCmpPredicate
000000000086f3b0 T LLVMGetInstructionOpcode
000000000086f3e0 T LLVMInstructionClone
000000000086f400 T LLVMIsATerminatorInst
000000000086f420 T LLVMGetNumArgOperands
000000000086f530 T LLVMGetInstructionCallConv
000000000086f550 T LLVMSetInstructionCallConv
000000000086f570 T LLVMSetInstrParamAlignment
000000000086f610 T LLVMAddCallSiteAttribute
000000000086f680 T LLVMGetCallSiteAttributeCount
000000000086f6e0 T LLVMGetCallSiteAttributes
000000000086f7c0 T LLVMGetCallSiteEnumAttribute
000000000086f810 T LLVMGetCallSiteStringAttribute
000000000086f860 T LLVMRemoveCallSiteEnumAttribute
000000000086f8d0 T LLVMRemoveCallSiteStringAttribute
000000000086f950 T LLVMGetCalledValue
000000000086f960 T LLVMGetCalledFunctionType
000000000086f970 T LLVMIsTailCall
000000000086f990 T LLVMSetTailCall
000000000086f9b0 T LLVMGetNormalDest
000000000086f9c0 T LLVMGetUnwindDest
000000000086fa40 T LLVMSetNormalDest
000000000086fab0 T LLVMSetUnwindDest
000000000086fb90 T LLVMGetNumSuccessors
000000000086fba0 T LLVMGetSuccessor
000000000086fbb0 T LLVMSetSuccessor
000000000086fbc0 T LLVMIsConditional
000000000086fbe0 T LLVMGetCondition
000000000086fbf0 T LLVMSetCondition
000000000086fc60 T LLVMGetSwitchDefaultDest
000000000086fc90 T LLVMGetAllocatedType
000000000086fca0 T LLVMIsInBounds
000000000086fcc0 T LLVMSetIsInBounds
000000000086fce0 T LLVMAddIncoming
000000000086fe90 T LLVMCountIncoming
000000000086fea0 T LLVMGetIncomingValue
000000000086fee0 T LLVMGetIncomingBlock
000000000086ff30 T LLVMGetNumIndices
000000000086ff70 T LLVMGetIndices
000000000086ff90 T LLVMCreateBuilderInContext
000000000086fff0 T LLVMCreateBuilder
0000000000870010 T LLVMPositionBuilder
00000000008700e0 T LLVMPositionBuilderBefore
0000000000870190 T LLVMPositionBuilderAtEnd
00000000008701b0 T LLVMGetInsertBlock
00000000008701c0 T LLVMClearInsertionPosition
00000000008701d0 T LLVMInsertIntoBuilder
00000000008702c0 T LLVMInsertIntoBuilderWithName
00000000008703c0 T LLVMDisposeBuilder
0000000000870400 T LLVMGetCurrentDebugLocation2
0000000000870410 T LLVMSetCurrentDebugLocation2
00000000008704c0 T LLVMSetCurrentDebugLocation
0000000000870540 T LLVMGetCurrentDebugLocation
0000000000870560 T LLVMSetInstDebugLocation
00000000008705e0 T LLVMBuilderSetDefaultFPMathTag
00000000008705f0 T LLVMBuilderGetDefaultFPMathTag
0000000000870600 T LLVMBuildRetVoid
0000000000870740 T LLVMBuildRet
0000000000870890 T LLVMBuildAggregateRet
0000000000870bc0 T LLVMBuildBr
0000000000870d00 T LLVMBuildCondBr
0000000000870e50 T LLVMBuildSwitch
0000000000870f90 T LLVMBuildIndirectBr
00000000008710d0 T LLVMBuildInvoke
00000000008712d0 T LLVMBuildInvoke2
00000000008714d0 T LLVMBuildLandingPad
0000000000871640 T LLVMBuildCatchPad
00000000008717d0 T LLVMBuildCleanupPad
0000000000871980 T LLVMBuildResume
0000000000871ac0 T LLVMBuildCatchSwitch
0000000000871c60 T LLVMBuildCatchRet
0000000000871da0 T LLVMBuildCleanupRet
0000000000871ef0 T LLVMBuildUnreachable
0000000000872030 T LLVMAddCase
0000000000872040 T LLVMAddDestination
0000000000872050 T LLVMGetNumClauses
0000000000872060 T LLVMGetClause
00000000008720a0 T LLVMAddClause
00000000008720b0 T LLVMIsCleanup
00000000008720c0 T LLVMSetCleanup
00000000008720e0 T LLVMAddHandler
00000000008720f0 T LLVMGetNumHandlers
0000000000872110 T LLVMGetHandlers
00000000008721e0 T LLVMGetParentCatchSwitch
00000000008721f0 T LLVMSetParentCatchSwitch
0000000000872260 T LLVMGetArgOperand
0000000000872280 T LLVMSetArgOperand
0000000000872300 T LLVMBuildAdd
0000000000872490 T LLVMBuildNSWAdd
0000000000872630 T LLVMBuildNUWAdd
00000000008727d0 T LLVMBuildFAdd
0000000000872ac0 T LLVMBuildSub
0000000000872c50 T LLVMBuildNSWSub
0000000000872df0 T LLVMBuildNUWSub
0000000000872f90 T LLVMBuildFSub
0000000000873280 T LLVMBuildMul
0000000000873410 T LLVMBuildNSWMul
00000000008735b0 T LLVMBuildNUWMul
0000000000873750 T LLVMBuildFMul
0000000000873a40 T LLVMBuildUDiv
0000000000873b50 T LLVMBuildExactUDiv
0000000000873c70 T LLVMBuildSDiv
0000000000873d80 T LLVMBuildExactSDiv
0000000000873ea0 T LLVMBuildFDiv
0000000000874190 T LLVMBuildURem
00000000008742c0 T LLVMBuildSRem
00000000008743f0 T LLVMBuildFRem
00000000008746e0 T LLVMBuildShl
0000000000874870 T LLVMBuildLShr
0000000000874980 T LLVMBuildAShr
0000000000874a90 T LLVMBuildAnd
0000000000874c70 T LLVMBuildOr
0000000000874da0 T LLVMBuildXor
0000000000874ed0 T LLVMBuildBinOp
00000000008750b0 T LLVMBuildNeg
00000000008751b0 T LLVMBuildNSWNeg
00000000008752c0 T LLVMBuildNUWNeg
00000000008753d0 T LLVMBuildFNeg
0000000000875500 T LLVMBuildNot
00000000008755f0 T LLVMBuildMalloc
0000000000875780 T LLVMBuildArrayMalloc
0000000000875920 T LLVMBuildMemSet
0000000000875970 T LLVMBuildMemCpy
00000000008759e0 T LLVMBuildMemMove
0000000000875a50 T LLVMBuildAlloca
0000000000875bd0 T LLVMBuildArrayAlloca
0000000000875d50 T LLVMBuildFree
0000000000875e80 T LLVMBuildLoad
0000000000875ff0 T LLVMBuildLoad2
0000000000876160 T LLVMBuildStore
00000000008762a0 T LLVMBuildFence
0000000000876480 T LLVMBuildGEP
0000000000876760 T LLVMBuildGEP2
0000000000876a70 T LLVMBuildInBoundsGEP
0000000000876d50 T LLVMBuildInBoundsGEP2
0000000000877060 T LLVMBuildStructGEP
0000000000877300 T LLVMBuildStructGEP2
0000000000877590 T LLVMBuildGlobalString
0000000000877620 T LLVMBuildGlobalStringPtr
00000000008776f0 T LLVMGetVolatile
0000000000877700 T LLVMSetVolatile
0000000000877770 T LLVMGetWeak
0000000000877780 T LLVMSetWeak
00000000008777a0 T LLVMGetOrdering
0000000000877840 T LLVMSetOrdering
0000000000877910 T LLVMGetAtomicRMWBinOp
0000000000877930 T LLVMSetAtomicRMWBinOp
0000000000877950 T LLVMBuildTrunc
0000000000877a60 T LLVMBuildZExt
0000000000877b70 T LLVMBuildSExt
0000000000877c80 T LLVMBuildPtrToInt
0000000000877d90 T LLVMBuildIntToPtr
0000000000877ea0 T LLVMBuildBitCast
0000000000877fb0 T LLVMBuildAddrSpaceCast
00000000008780c0 T LLVMBuildZExtOrBitCast
00000000008781d0 T LLVMBuildSExtOrBitCast
00000000008782e0 T LLVMBuildTruncOrBitCast
00000000008783f0 T LLVMBuildCast
0000000000878510 T LLVMBuildPointerCast
0000000000878620 T LLVMBuildIntCast2
0000000000878740 T LLVMBuildIntCast
0000000000878860 T LLVMBuildFPCast
0000000000878970 T LLVMBuildICmp
0000000000878b70 T LLVMBuildFCmp
0000000000878e60 T LLVMBuildPhi
00000000008790a0 T LLVMBuildCall
00000000008794d0 T LLVMBuildCall2
00000000008798e0 T LLVMBuildSelect
0000000000879c90 T LLVMBuildVAArg
0000000000879e80 T LLVMBuildExtractElement
000000000087a020 T LLVMBuildInsertElement
000000000087a1d0 T LLVMBuildShuffleVector
000000000087a380 T LLVMBuildExtractValue
000000000087a510 T LLVMBuildInsertValue
000000000087a6a0 T LLVMBuildFreeze
000000000087a800 T LLVMBuildIsNull
000000000087aa00 T LLVMBuildIsNotNull
000000000087ac00 T LLVMBuildPtrDiff
000000000087b010 T LLVMBuildAtomicRMW
000000000087b210 T LLVMBuildAtomicCmpXchg
000000000087b490 T LLVMIsAtomicSingleThread
000000000087b4a0 T LLVMSetAtomicSingleThread
000000000087b4c0 T LLVMGetCmpXchgSuccessOrdering
000000000087b4e0 T LLVMSetCmpXchgSuccessOrdering
000000000087b5a0 T LLVMGetCmpXchgFailureOrdering
000000000087b5c0 T LLVMSetCmpXchgFailureOrdering
000000000087b680 T LLVMCreateModuleProviderForExistingModule
000000000087b690 T LLVMDisposeModuleProvider
000000000087b6c0 T LLVMCreateMemoryBufferWithMemoryRange
000000000087b740 T LLVMCreateMemoryBufferWithMemoryRangeCopy
000000000087b7d0 T LLVMGetBufferStart
000000000087b7e0 T LLVMGetBufferSize
000000000087b7f0 T LLVMDisposeMemoryBuffer
000000000087b810 T LLVMGetGlobalPassRegistry
000000000087b820 T LLVMCreatePassManager
000000000087b850 T LLVMCreateFunctionPassManagerForModule
000000000087b890 T LLVMCreateFunctionPassManager
000000000087b8a0 T LLVMRunPassManager
000000000087b8c0 T LLVMInitializeFunctionPassManager
000000000087b8e0 T LLVMRunFunctionPassManager
000000000087b900 T LLVMFinalizeFunctionPassManager
000000000087b920 T LLVMDisposePassManager
000000000087b940 T LLVMStopMultithreaded
000000000087b950 T LLVMIsMultithreaded
000000000087b970 T LLVMStartMultithreaded
000000000087b9e0 T LLVMGetEnumAttributeKindForName
000000000087c0a0 T LLVMCreateMemoryBufferWithContentsOfFile
000000000087c190 T LLVMCreateMemoryBufferWithSTDIN
000000000087c580 T LLVMBuildFPToUI
000000000087c6e0 T LLVMBuildFPToSI
000000000087c840 T LLVMBuildUIToFP
000000000087c9a0 T LLVMBuildSIToFP
000000000087cb00 T LLVMBuildFPTrunc
000000000087cc60 T LLVMBuildFPExt
000000000087cdc0 T LLVMPrintModuleToFile
000000000087d100 T _ZN4llvm9DIBuilderC1ERNS_6ModuleEbPNS_13DICompileUnitE
000000000087d220 T _ZN4llvm9DIBuilder10createFileENS_9StringRefES1_NS_8OptionalINS_6DIFile12ChecksumInfoIS1_EEEENS2_IS1_EE
000000000087d3b0 T _ZN4llvm9DIBuilder16createEnumeratorENS_9StringRefElb
000000000087d400 T _ZN4llvm9DIBuilder21createUnspecifiedTypeENS_9StringRefE
000000000087d450 T _ZN4llvm9DIBuilder17createNullPtrTypeEv
000000000087d470 T _ZN4llvm9DIBuilder15createBasicTypeENS_9StringRefEmjNS_6DINode7DIFlagsE
000000000087d4d0 T _ZN4llvm9DIBuilder19createQualifiedTypeEjPNS_6DITypeE
000000000087d510 T _ZN4llvm9DIBuilder17createPointerTypeEPNS_6DITypeEmjNS_8OptionalIjEENS_9StringRefE
000000000087d590 T _ZN4llvm9DIBuilder23createMemberPointerTypeEPNS_6DITypeES2_mjNS_6DINode7DIFlagsE
000000000087d5d0 T _ZN4llvm9DIBuilder19createReferenceTypeEjPNS_6DITypeEmjNS_8OptionalIjEE
000000000087d600 T _ZN4llvm9DIBuilder13createTypedefEPNS_6DITypeENS_9StringRefEPNS_6DIFileEjPNS_7DIScopeEj
000000000087d690 T _ZN4llvm9DIBuilder12createFriendEPNS_6DITypeES2_
000000000087d6d0 T _ZN4llvm9DIBuilder17createInheritanceEPNS_6DITypeES2_mjNS_6DINode7DIFlagsE
000000000087d760 T _ZN4llvm9DIBuilder16createMemberTypeEPNS_7DIScopeENS_9StringRefEPNS_6DIFileEjmjmNS_6DINode7DIFlagsEPNS_6DITypeE
000000000087d7f0 T _ZN4llvm9DIBuilder23createVariantMemberTypeEPNS_7DIScopeENS_9StringRefEPNS_6DIFileEjmjmPNS_8ConstantENS_6DINode7DIFlagsEPNS_6DITypeE
000000000087d8c0 T _ZN4llvm9DIBuilder24createBitFieldMemberTypeEPNS_7DIScopeENS_9StringRefEPNS_6DIFileEjmmmNS_6DINode7DIFlagsEPNS_6DITypeE
000000000087d9a0 T _ZN4llvm9DIBuilder22createStaticMemberTypeEPNS_7DIScopeENS_9StringRefEPNS_6DIFileEjPNS_6DITypeENS_6DINode7DIFlagsEPNS_8ConstantEj
000000000087da70 T _ZN4llvm9DIBuilder14createObjCIVarENS_9StringRefEPNS_6DIFileEjmjmNS_6DINode7DIFlagsEPNS_6DITypeEPNS_6MDNodeE
000000000087db10 T _ZN4llvm9DIBuilder18createObjCPropertyENS_9StringRefEPNS_6DIFileEjS1_S1_jPNS_6DITypeE
000000000087dc00 T _ZN4llvm9DIBuilder27createTemplateTypeParameterEPNS_7DIScopeENS_9StringRefEPNS_6DITypeE
000000000087dc50 T _ZN4llvm9DIBuilder28createTemplateValueParameterEPNS_7DIScopeENS_9StringRefEPNS_6DITypeEPNS_8ConstantE
000000000087dcd0 T _ZN4llvm9DIBuilder31createTemplateTemplateParameterEPNS_7DIScopeENS_9StringRefEPNS_6DITypeES3_
000000000087dd50 T _ZN4llvm9DIBuilder27createTemplateParameterPackEPNS_7DIScopeENS_9StringRefEPNS_6DITypeENS_24MDTupleTypedArrayWrapperINS_6DINodeEEE
000000000087ddb0 T _ZN4llvm9DIBuilder20createSubroutineTypeENS_14DITypeRefArrayENS_6DINode7DIFlagsEj
000000000087dde0 T _ZN4llvm9DIBuilder26createArtificialSubprogramEPNS_12DISubprogramE
000000000087e040 T _ZN4llvm9DIBuilder20createArtificialTypeEPNS_6DITypeE
000000000087e0a0 T _ZN4llvm9DIBuilder23createObjectPointerTypeEPNS_6DITypeE
000000000087e100 T _ZN4llvm9DIBuilder26createUnspecifiedParameterEv
000000000087e110 T _ZN4llvm9DIBuilder16getOrCreateArrayENS_8ArrayRefIPNS_8MetadataEEE
000000000087e130 T _ZN4llvm9DIBuilder21getOrCreateMacroArrayENS_8ArrayRefIPNS_8MetadataEEE
000000000087e150 T _ZN4llvm9DIBuilder20getOrCreateTypeArrayENS_8ArrayRefIPNS_8MetadataEEE
000000000087e2c0 T _ZN4llvm9DIBuilder19getOrCreateSubrangeEll
000000000087e2e0 T _ZN4llvm9DIBuilder19getOrCreateSubrangeElPNS_8MetadataE
000000000087e300 T _ZN4llvm9DIBuilder31createTempGlobalVariableFwdDeclEPNS_7DIScopeENS_9StringRefES3_PNS_6DIFileEjPNS_6DITypeEbPNS_6MDNodeEPNS_7MDTupleEj
000000000087e3b0 T _ZN4llvm9DIBuilder16createExpressionENS_8ArrayRefImEE
000000000087e3d0 T _ZN4llvm9DIBuilder30createGlobalVariableExpressionEPNS_7DIScopeENS_9StringRefES3_PNS_6DIFileEjPNS_6DITypeEbbPNS_12DIExpressionEPNS_6MDNodeEPNS_7MDTupleEj
000000000087e530 T _ZN4llvm9DIBuilder16createExpressionENS_8ArrayRefIlEE
000000000087e690 T _ZN4llvm9DIBuilder25createTempFunctionFwdDeclEPNS_7DIScopeENS_9StringRefES3_PNS_6DIFileEjPNS_16DISubroutineTypeEjNS_6DINode7DIFlagsENS_12DISubprogram9DISPFlagsENS_24MDTupleTypedArrayWrapperINS_19DITemplateParameterEEEPSA_NSC_INS_6DITypeEEE
000000000087e770 T _ZN4llvm9DIBuilder17createCommonBlockEPNS_7DIScopeEPNS_16DIGlobalVariableENS_9StringRefEPNS_6DIFileEj
000000000087e7e0 T _ZN4llvm9DIBuilder15createNameSpaceEPNS_7DIScopeENS_9StringRefEb
000000000087e840 T _ZN4llvm9DIBuilder12createModuleEPNS_7DIScopeENS_9StringRefES3_S3_S3_
000000000087e950 T _ZN4llvm9DIBuilder22createLexicalBlockFileEPNS_7DIScopeEPNS_6DIFileEj
000000000087e970 T _ZN4llvm9DIBuilder18createLexicalBlockEPNS_7DIScopeEPNS_6DIFileEjj
000000000087e9b0 w _ZN4llvm23SmallVectorTemplateBaseINS_18TypedTrackingMDRefINS_6MDNodeEEELb0EE4growEm
000000000087eb30 T _ZN4llvm9DIBuilder17trackIfUnresolvedEPNS_6MDNodeE
000000000087ebd0 T _ZN4llvm9DIBuilder17createCompileUnitEjPNS_6DIFileENS_9StringRefEbS3_jS3_NS_13DICompileUnit17DebugEmissionKindEmbbNS4_18DebugNameTableKindEb
000000000087ed50 T _ZN4llvm9DIBuilder15createClassTypeEPNS_7DIScopeENS_9StringRefEPNS_6DIFileEjmjmNS_6DINode7DIFlagsEPNS_6DITypeENS_24MDTupleTypedArrayWrapperIS6_EES9_PNS_6MDNodeES3_
000000000087ee60 T _ZN4llvm9DIBuilder16createStructTypeEPNS_7DIScopeENS_9StringRefEPNS_6DIFileEjmjNS_6DINode7DIFlagsEPNS_6DITypeENS_24MDTupleTypedArrayWrapperIS6_EEjS9_S3_
000000000087ef70 T _ZN4llvm9DIBuilder15createUnionTypeEPNS_7DIScopeENS_9StringRefEPNS_6DIFileEjmjNS_6DINode7DIFlagsENS_24MDTupleTypedArrayWrapperIS6_EEjS3_
000000000087f070 T _ZN4llvm9DIBuilder17createVariantPartEPNS_7DIScopeENS_9StringRefEPNS_6DIFileEjmjNS_6DINode7DIFlagsEPNS_13DIDerivedTypeENS_24MDTupleTypedArrayWrapperIS6_EES3_
000000000087f170 T _ZN4llvm9DIBuilder21createEnumerationTypeEPNS_7DIScopeENS_9StringRefEPNS_6DIFileEjmjNS_24MDTupleTypedArrayWrapperINS_6DINodeEEEPNS_6DITypeES3_b
000000000087f2b0 T _ZN4llvm9DIBuilder15createArrayTypeEmjPNS_6DITypeENS_24MDTupleTypedArrayWrapperINS_6DINodeEEE
000000000087f310 T _ZN4llvm9DIBuilder16createVectorTypeEmjPNS_6DITypeENS_24MDTupleTypedArrayWrapperINS_6DINodeEEE
000000000087f370 T _ZN4llvm9DIBuilder17createForwardDeclEjNS_9StringRefEPNS_7DIScopeEPNS_6DIFileEjjmjS1_
000000000087f460 T _ZN4llvm9DIBuilder30createReplaceableCompositeTypeEjNS_9StringRefEPNS_7DIScopeEPNS_6DIFileEjjmjNS_6DINode7DIFlagsES1_
000000000087f560 T _ZN4llvm9DIBuilder14createFunctionEPNS_7DIScopeENS_9StringRefES3_PNS_6DIFileEjPNS_16DISubroutineTypeEjNS_6DINode7DIFlagsENS_12DISubprogram9DISPFlagsENS_24MDTupleTypedArrayWrapperINS_19DITemplateParameterEEEPSA_NSC_INS_6DITypeEEE
000000000087f7a0 T _ZN4llvm9DIBuilder12createMethodEPNS_7DIScopeENS_9StringRefES3_PNS_6DIFileEjPNS_16DISubroutineTypeEjiPNS_6DITypeENS_6DINode7DIFlagsENS_12DISubprogram9DISPFlagsENS_24MDTupleTypedArrayWrapperINS_19DITemplateParameterEEENSE_IS8_EE
000000000087f9a0 T _ZN4llvm9DIBuilder13insertDeclareEPNS_5ValueEPNS_15DILocalVariableEPNS_12DIExpressionEPKNS_10DILocationEPNS_10BasicBlockEPNS_11InstructionE
000000000087fe90 T _ZN4llvm9DIBuilder13insertDeclareEPNS_5ValueEPNS_15DILocalVariableEPNS_12DIExpressionEPKNS_10DILocationEPNS_11InstructionE
000000000087feb0 T _ZN4llvm9DIBuilder13insertDeclareEPNS_5ValueEPNS_15DILocalVariableEPNS_12DIExpressionEPKNS_10DILocationEPNS_10BasicBlockE
000000000087ff10 T _ZN4llvm9DIBuilder23insertDbgValueIntrinsicEPNS_5ValueEPNS_15DILocalVariableEPNS_12DIExpressionEPKNS_10DILocationEPNS_10BasicBlockEPNS_11InstructionE
00000000008803f0 T _ZN4llvm9DIBuilder23insertDbgValueIntrinsicEPNS_5ValueEPNS_15DILocalVariableEPNS_12DIExpressionEPKNS_10DILocationEPNS_11InstructionE
0000000000880420 T _ZN4llvm9DIBuilder23insertDbgValueIntrinsicEPNS_5ValueEPNS_15DILocalVariableEPNS_12DIExpressionEPKNS_10DILocationEPNS_10BasicBlockE
0000000000880440 T _ZN4llvm9DIBuilder11insertLabelEPNS_7DILabelEPKNS_10DILocationEPNS_10BasicBlockEPNS_11InstructionE
0000000000880a30 T _ZN4llvm9DIBuilder11insertLabelEPNS_7DILabelEPKNS_10DILocationEPNS_11InstructionE
0000000000880a50 T _ZN4llvm9DIBuilder11insertLabelEPNS_7DILabelEPKNS_10DILocationEPNS_10BasicBlockE
0000000000880a60 T _ZN4llvm9DIBuilder19replaceVTableHolderERPNS_15DICompositeTypeEPNS_6DITypeE
0000000000880b50 T _ZN4llvm9DIBuilder13replaceArraysERPNS_15DICompositeTypeENS_24MDTupleTypedArrayWrapperINS_6DINodeEEES6_
0000000000880c60 T _ZN4llvm9DIBuilder20createImportedModuleEPNS_7DIScopeEPNS_11DINamespaceEPNS_6DIFileEj
0000000000880d30 T _ZN4llvm9DIBuilder10retainTypeEPNS_7DIScopeE
0000000000880d90 T _ZN4llvm9DIBuilder25createImportedDeclarationEPNS_7DIScopeEPNS_6DINodeEPNS_6DIFileEjNS_9StringRefE
0000000000880e90 T _ZN4llvm9DIBuilder20createImportedModuleEPNS_7DIScopeEPNS_8DIModuleEPNS_6DIFileEj
0000000000880f60 T _ZN4llvm9DIBuilder20createImportedModuleEPNS_7DIScopeEPNS_16DIImportedEntityEPNS_6DIFileEj
0000000000881070 T _ZN4llvm9DIBuilder18finalizeSubprogramEPNS_12DISubprogramE
00000000008815c0 T _ZN4llvm9DIBuilder8finalizeEv
0000000000881cb0 w _ZNSt6vectorIPN4llvm8MetadataESaIS2_EE17_M_realloc_insertIJRKS2_EEEvN9__gnu_cxx17__normal_iteratorIPS2_S4_EEDpOT_
0000000000881e10 w _ZNSt6vectorISt4pairIPN4llvm6MDNodeENS1_9SetVectorIPNS1_8MetadataES_IS6_SaIS6_EENS1_8DenseSetIS6_NS1_12DenseMapInfoIS6_EEEEEEESaISE_EE17_M_realloc_insertIJSE_EEEvN9__gnu_cxx17__normal_iteratorIPSE_SG_EEDpOT_
0000000000882330 T _ZN4llvm9DIBuilder19createTempMacroFileEPNS_11DIMacroFileEjPNS_6DIFileE
00000000008839e0 T _ZN4llvm9DIBuilder11createMacroEPNS_11DIMacroFileEjjNS_9StringRefES3_
0000000000884990 w _ZN4llvm15SmallVectorImplINS_18TypedTrackingMDRefINS_6MDNodeEEEEaSEOS4_
0000000000884ca0 T _ZN4llvm9DIBuilder18createAutoVariableEPNS_7DIScopeENS_9StringRefEPNS_6DIFileEjPNS_6DITypeEbNS_6DINode7DIFlagsEj
00000000008854c0 T _ZN4llvm9DIBuilder23createParameterVariableEPNS_7DIScopeENS_9StringRefEjPNS_6DIFileEjPNS_6DITypeEbNS_6DINode7DIFlagsE
0000000000885ce0 T _ZN4llvm9DIBuilder11createLabelEPNS_7DIScopeENS_9StringRefEPNS_6DIFileEjb
0000000000886640 T _ZNK4llvm12StructLayout26getElementContainingOffsetEm
00000000008866a0 T _ZN4llvm15LayoutAlignElem3getENS_13AlignTypeEnumENS_5AlignES2_j
00000000008866d0 T _ZNK4llvm15LayoutAlignElemeqERKS0_
0000000000886700 T _ZN4llvm16PointerAlignElem3getEjNS_5AlignES1_jj
0000000000886720 T _ZNK4llvm16PointerAlignElemeqERKS0_
0000000000886760 T _ZN4llvm10DataLayout20getManglingComponentERKNS_6TripleE
00000000008867b0 T _ZNK4llvm10DataLayouteqERKS0_
0000000000886940 T _ZN4llvm10DataLayout23findAlignmentLowerBoundENS_13AlignTypeEnumEj
00000000008869a0 T _ZN4llvm10DataLayout12setAlignmentENS_13AlignTypeEnumENS_5AlignES2_j
0000000000886ba0 T _ZN4llvm10DataLayout21findPointerLowerBoundEj
0000000000886c00 T _ZN4llvm10DataLayout19setPointerAlignmentEjNS_5AlignES1_jj
0000000000886e40 T _ZN4llvm10DataLayout14parseSpecifierENS_9StringRefE
0000000000887d10 T _ZNK4llvm10DataLayout22getPointerABIAlignmentEj
0000000000887d60 T _ZNK4llvm10DataLayout23getPointerPrefAlignmentEj
0000000000887db0 T _ZNK4llvm10DataLayout14getPointerSizeEj
0000000000887e00 T _ZNK4llvm10DataLayout17getMaxPointerSizeEv
0000000000887fb0 T _ZNK4llvm10DataLayout24getPointerTypeSizeInBitsEPNS_4TypeE
0000000000887fe0 T _ZNK4llvm10DataLayout12getIndexSizeEj
0000000000888030 T _ZNK4llvm10DataLayout22getIndexTypeSizeInBitsEPNS_4TypeE
0000000000888060 T _ZNK4llvm10DataLayout19getABITypeAlignmentEPNS_4TypeE
00000000008883e0 T _ZN4llvm12StructLayoutC2EPNS_10StructTypeERKNS_10DataLayoutE
0000000000888f20 T _ZNK4llvm10DataLayout15getStructLayoutEPNS_10StructTypeE
0000000000889720 T _ZNK4llvm10DataLayout16getAlignmentInfoENS_13AlignTypeEnumEjbPNS_4TypeE
0000000000889b90 T _ZNK4llvm10DataLayout12getAlignmentEPNS_4TypeEb
000000000088a040 T _ZNK4llvm10DataLayout26getABIIntegerTypeAlignmentEj
000000000088a060 T _ZNK4llvm10DataLayout20getPrefTypeAlignmentEPNS_4TypeE
000000000088a090 T _ZNK4llvm10DataLayout13getIntPtrTypeERNS_11LLVMContextEj
000000000088a0b0 T _ZNK4llvm10DataLayout13getIntPtrTypeEPNS_4TypeE
000000000088a0f0 T _ZNK4llvm10DataLayout23getSmallestLegalIntTypeERNS_11LLVMContextEj
000000000088a140 T _ZNK4llvm10DataLayout32getLargestLegalIntTypeSizeInBitsEv
000000000088a190 T _ZNK4llvm10DataLayout12getIndexTypeEPNS_4TypeE
000000000088a1d0 T _ZNK4llvm10DataLayout22getIndexedOffsetInTypeEPNS_4TypeENS_8ArrayRefIPNS_5ValueEEE
000000000088aa70 T _ZNK4llvm10DataLayout21getPreferredAlignmentEPKNS_14GlobalVariableE
000000000088ab40 T _ZNK4llvm10DataLayout24getPreferredAlignmentLogEPKNS_14GlobalVariableE
000000000088abb0 T _ZN4llvm10DataLayout5clearEv
000000000088ad10 T _ZN4llvm10DataLayoutD1Ev
000000000088ada0 T _ZN4llvm10DataLayout5resetENS_9StringRefE
000000000088ae70 T _ZN4llvm10DataLayout4initEPKNS_6ModuleE
000000000088b2b0 T _ZN4llvm10DataLayoutC2EPKNS_6ModuleE
000000000088b360 T _ZN4llvm15getDISubprogramEPKNS_6MDNodeE
000000000088b390 T _ZN4llvm15DebugInfoFinder5resetEv
000000000088b430 T _ZN4llvm15DebugInfoFinder7addTypeEPNS_6DITypeE
000000000088b5e0 T _ZN4llvm15DebugInfoFinder14addCompileUnitEPNS_13DICompileUnitE
000000000088b760 T _ZN4llvm15DebugInfoFinder17addGlobalVariableEPNS_26DIGlobalVariableExpressionE
000000000088b900 T _ZN4llvm15DebugInfoFinder13addSubprogramEPNS_12DISubprogramE
000000000088ba80 T _ZN4llvm15DebugInfoFinder8addScopeEPNS_7DIScopeE
000000000088bc40 T _ZN4llvm15DebugInfoFinder12processScopeEPNS_7DIScopeE
000000000088bcf0 T _ZN4llvm15DebugInfoFinder15processLocationERKNS_6ModuleEPKNS_10DILocationE
000000000088bd40 T _ZN4llvm15DebugInfoFinder18processCompileUnitEPNS_13DICompileUnitE
000000000088bf60 T _ZN4llvm15DebugInfoFinder17processSubprogramEPNS_12DISubprogramE
000000000088c050 T _ZN4llvm15DebugInfoFinder11processTypeEPNS_6DITypeE
000000000088c180 T _ZN4llvm15DebugInfoFinder14processDeclareERKNS_6ModuleEPKNS_14DbgDeclareInstE
000000000088c320 T _ZN4llvm15DebugInfoFinder12processValueERKNS_6ModuleEPKNS_12DbgValueInstE
000000000088c4c0 T _ZN4llvm15DebugInfoFinder18processInstructionERKNS_6ModuleERKNS_11InstructionE
000000000088c5d0 T _ZN4llvm15DebugInfoFinder13processModuleERKNS_6ModuleE
000000000088c7c0 T _ZN4llvm14stripDebugInfoERNS_8FunctionE
000000000088d330 T _ZN4llvm14StripDebugInfoERNS_6ModuleE
000000000088d470 T _ZN4llvm33getDebugMetadataVersionFromModuleERKNS_6ModuleE
000000000088d4c0 T _ZN4llvm11Instruction19applyMergedLocationEPKNS_10DILocationES3_
000000000088d550 T LLVMDebugMetadataVersion
000000000088d560 T LLVMCreateDIBuilderDisallowUnresolved
000000000088d5a0 T LLVMCreateDIBuilder
000000000088d5e0 T LLVMGetModuleDebugMetadataVersion
000000000088d5f0 T LLVMStripModuleDebugInfo
000000000088d610 T LLVMDisposeDIBuilder
000000000088d980 T LLVMDIBuilderFinalize
000000000088d990 T LLVMDIBuilderCreateCompileUnit
000000000088da10 T LLVMDIBuilderCreateFile
000000000088da60 T LLVMDIBuilderCreateModule
000000000088da70 T LLVMDIBuilderCreateNameSpace
000000000088da90 T LLVMDIBuilderCreateFunction
000000000088db00 T LLVMDIBuilderCreateLexicalBlock
000000000088db10 T LLVMDIBuilderCreateLexicalBlockFile
000000000088db20 T LLVMDIBuilderCreateImportedModuleFromNamespace
000000000088db30 T LLVMDIBuilderCreateImportedModuleFromAlias
000000000088db40 T LLVMDIBuilderCreateImportedModuleFromModule
000000000088db50 T LLVMDIBuilderCreateImportedDeclaration
000000000088db70 T LLVMDIBuilderCreateDebugLocation
000000000088db90 T LLVMDILocationGetLine
000000000088dba0 T LLVMDILocationGetColumn
000000000088dbb0 T LLVMDILocationGetScope
000000000088dbc0 T LLVMDILocationGetInlinedAt
000000000088dbe0 T LLVMDIScopeGetFile
000000000088dc00 T LLVMDIFileGetDirectory
000000000088dc40 T LLVMDIFileGetFilename
000000000088dc70 T LLVMDIFileGetSource
000000000088dca0 T LLVMDIBuilderCreateMacro
000000000088dcb0 T LLVMDIBuilderCreateTempMacroFile
000000000088dcc0 T LLVMDIBuilderCreateEnumerator
000000000088dce0 T LLVMDIBuilderCreateEnumerationType
000000000088dd60 T LLVMDIBuilderCreateUnionType
000000000088de50 T LLVMDIBuilderCreateArrayType
000000000088dea0 T LLVMDIBuilderCreateVectorType
000000000088def0 T LLVMDIBuilderCreateBasicType
000000000088df00 T LLVMDIBuilderCreatePointerType
000000000088df30 T LLVMDIBuilderCreateStructType
000000000088e060 T LLVMDIBuilderCreateMemberType
000000000088e070 T LLVMDIBuilderCreateUnspecifiedType
000000000088e080 T LLVMDIBuilderCreateStaticMemberType
000000000088e090 T LLVMDIBuilderCreateObjCIVar
000000000088e0a0 T LLVMDIBuilderCreateObjCProperty
000000000088e0e0 T LLVMDIBuilderCreateObjectPointerType
000000000088e0f0 T LLVMDIBuilderCreateTypedef
000000000088e100 T LLVMDIBuilderCreateInheritance
000000000088e110 T LLVMDIBuilderCreateForwardDecl
000000000088e120 T LLVMDIBuilderCreateReplaceableCompositeType
000000000088e130 T LLVMDIBuilderCreateQualifiedType
000000000088e140 T LLVMDIBuilderCreateReferenceType
000000000088e160 T LLVMDIBuilderCreateNullPtrType
000000000088e170 T LLVMDIBuilderCreateMemberPointerType
000000000088e190 T LLVMDIBuilderCreateBitFieldMemberType
000000000088e1a0 T LLVMDIBuilderCreateClassType
000000000088e2f0 T LLVMDIBuilderCreateArtificialType
000000000088e300 T LLVMDITypeGetName
000000000088e340 T LLVMDITypeGetSizeInBits
000000000088e350 T LLVMDITypeGetOffsetInBits
000000000088e360 T LLVMDITypeGetAlignInBits
000000000088e370 T LLVMDITypeGetLine
000000000088e380 T LLVMDITypeGetFlags
000000000088e390 T LLVMDIBuilderGetOrCreateTypeArray
000000000088e3b0 T LLVMDIBuilderCreateSubroutineType
000000000088e3f0 T LLVMDIBuilderCreateExpression
000000000088e400 T LLVMDIBuilderCreateConstantValueExpression
000000000088e470 T LLVMDIBuilderCreateGlobalVariableExpression
000000000088e4b0 T LLVMDIGlobalVariableExpressionGetVariable
000000000088e4c0 T LLVMDIGlobalVariableExpressionGetExpression
000000000088e4e0 T LLVMDIVariableGetFile
000000000088e500 T LLVMDIVariableGetScope
000000000088e510 T LLVMDIVariableGetLine
000000000088e520 T LLVMTemporaryMDNode
000000000088e540 T LLVMDisposeTemporaryMDNode
000000000088e550 T LLVMMetadataReplaceAllUsesWith
000000000088e590 T LLVMDIBuilderCreateTempGlobalVariableFwdDecl
000000000088e5d0 T LLVMDIBuilderInsertDeclareBefore
000000000088e5e0 T LLVMDIBuilderInsertDeclareAtEnd
000000000088e5f0 T LLVMDIBuilderInsertDbgValueBefore
000000000088e600 T LLVMDIBuilderInsertDbgValueAtEnd
000000000088e610 T LLVMDIBuilderCreateAutoVariable
000000000088e630 T LLVMDIBuilderCreateParameterVariable
000000000088e650 T LLVMDIBuilderGetOrCreateSubrange
000000000088e660 T LLVMDIBuilderGetOrCreateArray
000000000088e680 T LLVMGetSubprogram
000000000088e690 T LLVMSetSubprogram
000000000088e6a0 T LLVMDISubprogramGetLine
000000000088e6b0 T LLVMInstructionGetDebugLoc
000000000088e6c0 T LLVMInstructionSetDebugLoc
000000000088e770 T LLVMGetMetadataKind
0000000000891120 T _ZN4llvm26stripNonLineTableDebugInfoERNS_6ModuleE
0000000000892130 T _ZN4llvm10DILocationC1ERNS_11LLVMContextENS_8Metadata11StorageTypeEjjNS_8ArrayRefIPS3_EEb
0000000000892190 T _ZN4llvm10DILocation19decodeDiscriminatorEjRjS1_S1_
00000000008922b0 T _ZN4llvm10DILocation19encodeDiscriminatorEjjj
0000000000892430 T _ZN4llvm6DINode13getFlagStringENS0_7DIFlagsE
0000000000892760 T _ZNK4llvm7DIScope8getScopeEv
00000000008927b0 T _ZNK4llvm7DIScope7getNameEv
0000000000892830 T _ZN4llvm13GenericDINode15recalculateHashEv
0000000000892850 T _ZNK4llvm11DIBasicType13getSignednessEv
0000000000892890 T _ZN4llvm15DICompositeType18getODRTypeIfExistsERNS_11LLVMContextERNS_8MDStringE
0000000000892920 T _ZN4llvm6DIFile23getChecksumKindAsStringENS0_12ChecksumKindE
0000000000892950 T _ZN4llvm6DIFile15getChecksumKindENS_9StringRefE
00000000008929f0 T _ZN4llvm13DICompileUnit7getImplERNS_11LLVMContextEjPNS_8MetadataEPNS_8MDStringEbS6_jS6_jS4_S4_S4_S4_S4_mbbjbNS3_11StorageTypeEb
0000000000892b70 T _ZN4llvm13DICompileUnit15getEmissionKindENS_9StringRefE
0000000000892cb0 T _ZN4llvm13DICompileUnit16getNameTableKindENS_9StringRefE
0000000000892d60 T _ZN4llvm13DICompileUnit18emissionKindStringENS0_17DebugEmissionKindE
0000000000892db0 T _ZN4llvm13DICompileUnit19nameTableKindStringENS0_18DebugNameTableKindE
0000000000892de0 T _ZNK4llvm12DILocalScope13getSubprogramEv
0000000000892e10 T _ZNK4llvm12DILocalScope27getNonLexicalBlockFileScopeEv
0000000000892e40 T _ZN4llvm12DISubprogram7getFlagENS_9StringRefE
0000000000893240 T _ZN4llvm12DISubprogram13getFlagStringENS0_9DISPFlagsE
0000000000893340 T _ZNK4llvm12DISubprogram9describesEPKNS_8FunctionE
0000000000893430 T _ZNK4llvm10DIVariable13getSizeInBitsEv
0000000000893490 T _ZNK4llvm12DIExpression11ExprOperand7getSizeEv
0000000000893540 T _ZNK4llvm12DIExpression7isValidEv
0000000000893720 T _ZNK4llvm12DIExpression10isImplicitEv
00000000008937c0 T _ZNK4llvm12DIExpression9isComplexEv
0000000000893870 T _ZN4llvm12DIExpression15getFragmentInfoENS0_16expr_op_iteratorES1_
0000000000893910 T _ZNK4llvm12DIExpression15extractIfOffsetERl
00000000008939a0 T _ZNK4llvm12DIExpression10isConstantEv
0000000000893a00 T _ZN4llvm12DIExpression9getExtOpsEjjb
0000000000893aa0 T _ZN4llvm6DINode7getFlagENS_9StringRefE
0000000000893e80 T _ZN4llvm6DINode10splitFlagsENS0_7DIFlagsERNS_15SmallVectorImplIS1_EE
0000000000894760 T _ZN4llvm12DISubprogram10splitFlagsENS0_9DISPFlagsERNS_15SmallVectorImplIS1_EE
0000000000894ab0 T _ZN4llvm12DIExpression12appendOffsetERNS_15SmallVectorImplImEEl
0000000000894bb0 w _ZN4llvm12hash_combineIJPNS_8MetadataElEEENS_9hash_codeEDpRKT_
0000000000894cc0 w _ZN4llvm12hash_combineIJllEEENS_9hash_codeEDpRKT_
0000000000894dd0 w _ZNSt8_Rb_treeISt4pairIPN4llvm7DIScopeEPNS1_10DILocationEES6_St9_IdentityIS6_ESt4lessIS6_ESaIS6_EE8_M_eraseEPSt13_Rb_tree_nodeIS6_E
00000000008950d0 w _ZN4llvm12hash_combineIJjjPNS_8MetadataES2_bEEENS_9hash_codeEDpRKT_
0000000000895490 w _ZN4llvm12hash_combineIJPNS_8MetadataES2_jjEEENS_9hash_codeEDpRKT_
0000000000895740 w _ZN4llvm12hash_combineIJPNS_8MDStringEPNS_8MetadataEEEENS_9hash_codeEDpRKT_
0000000000895990 w _ZN4llvm12hash_combineIJjhPNS_8MetadataEEEENS_9hash_codeEDpRKT_
0000000000895e10 w _ZN4llvm12hash_combineIJjPNS_8MetadataES2_S2_jPNS_8MDStringEEEENS_9hash_codeEDpRKT_
0000000000896140 w _ZN4llvm12hash_combineIJjPNS_8MDStringEmjjEEENS_9hash_codeEDpRKT_
0000000000896510 w _ZN4llvm12hash_combineIJPNS_8MetadataEPNS_8MDStringES2_jS2_jjEEENS_9hash_codeEDpRKT_
0000000000896880 w _ZN4llvm12hash_combineIJjPNS_8MDStringEPNS_8MetadataEjS4_S4_jEEENS_9hash_codeEDpRKT_
0000000000896bf0 w _ZN4llvm12hash_combineIJPNS_8MetadataES2_PNS_8MDStringES2_jEEENS_9hash_codeEDpRKT_
0000000000896f00 w _ZN4llvm12hash_combineIJPNS_8MetadataEPNS_8MDStringES4_S2_jS2_bbS2_EEENS_9hash_codeEDpRKT_
0000000000897480 w _ZN4llvm12hash_combineIJPNS_8MDStringEPNS_8MetadataEjS2_S2_jS4_EEENS_9hash_codeEDpRKT_
00000000008977f0 w _ZN4llvm12hash_combineIJPNS_8MDStringEPNS_8MetadataEjS4_S4_S4_S4_EEENS_9hash_codeEDpRKT_
0000000000897b60 w _ZN4llvm12hash_combineIJPNS_8MDStringEPNS_8MetadataES4_S4_jEEENS_9hash_codeEDpRKT_
0000000000897e70 w _ZN4llvm12hash_combineIJjjPNS_8MDStringES2_EEENS_9hash_codeEDpRKT_
0000000000898120 w _ZN4llvm12hash_combineIJPNS_8MetadataEPNS_8MDStringES4_S4_S4_EEENS_9hash_codeEDpRKT_
0000000000898430 w _ZN4llvm12hash_combineIJPNS_8MDStringES2_iS2_S2_EEENS_9hash_codeEDpRKT_
00000000008987f0 w _ZNSt8_Rb_treeISt4pairIPN4llvm7DIScopeEPNS1_10DILocationEES6_St9_IdentityIS6_ESt4lessIS6_ESaIS6_EE16_M_insert_uniqueIRKS6_EES0_ISt17_Rb_tree_iteratorIS6_EbEOT_
000000000089c720 T _ZN4llvm10DILocation7getImplERNS_11LLVMContextEjjPNS_8MetadataES4_bNS3_11StorageTypeEb
000000000089cba0 T _ZN4llvm10DILocation17getMergedLocationEPKS0_S2_
000000000089d9d0 T _ZN4llvm13GenericDINode7getImplERNS_11LLVMContextEjPNS_8MDStringENS_8ArrayRefIPNS_8MetadataEEENS6_11StorageTypeEb
000000000089e410 T _ZN4llvm10DISubrange7getImplERNS_11LLVMContextEPNS_8MetadataElNS3_11StorageTypeEb
000000000089e910 T _ZN4llvm10DISubrange7getImplERNS_11LLVMContextEllNS_8Metadata11StorageTypeEb
000000000089f0c0 T _ZN4llvm12DIEnumerator7getImplERNS_11LLVMContextElbPNS_8MDStringENS_8Metadata11StorageTypeEb
000000000089f920 T _ZN4llvm11DIBasicType7getImplERNS_11LLVMContextEjPNS_8MDStringEmjjNS_6DINode7DIFlagsENS_8Metadata11StorageTypeEb
000000000089ffa0 T _ZN4llvm13DIDerivedType7getImplERNS_11LLVMContextEjPNS_8MDStringEPNS_8MetadataEjS6_S6_mjmNS_8OptionalIjEENS_6DINode7DIFlagsES6_NS5_11StorageTypeEb
00000000008a0a90 T _ZN4llvm15DICompositeType7getImplERNS_11LLVMContextEjPNS_8MDStringEPNS_8MetadataEjS6_S6_mjmNS_6DINode7DIFlagsES6_jS6_S6_S4_S6_NS5_11StorageTypeEb
00000000008a1290 T _ZN4llvm15DICompositeType12buildODRTypeERNS_11LLVMContextERNS_8MDStringEjPS3_PNS_8MetadataEjS7_S7_mjmNS_6DINode7DIFlagsES7_jS7_S7_S7_
00000000008a1620 T _ZN4llvm15DICompositeType10getODRTypeERNS_11LLVMContextERNS_8MDStringEjPS3_PNS_8MetadataEjS7_S7_mjmNS_6DINode7DIFlagsES7_jS7_S7_S7_
00000000008a1b80 T _ZN4llvm16DISubroutineType7getImplERNS_11LLVMContextENS_6DINode7DIFlagsEhPNS_8MetadataENS5_11StorageTypeEb
00000000008a2370 T _ZN4llvm6DIFile7getImplERNS_11LLVMContextEPNS_8MDStringES4_NS_8OptionalINS0_12ChecksumInfoIS4_EEEENS5_IS4_EENS_8Metadata11StorageTypeEb
00000000008a2ba0 T _ZN4llvm12DISubprogram7getImplERNS_11LLVMContextEPNS_8MetadataEPNS_8MDStringES6_S4_jS4_jS4_jiNS_6DINode7DIFlagsENS0_9DISPFlagsES4_S4_S4_S4_S4_NS3_11StorageTypeEb
00000000008a3890 T _ZN4llvm14DILexicalBlock7getImplERNS_11LLVMContextEPNS_8MetadataES4_jjNS3_11StorageTypeEb
00000000008a4480 T _ZN4llvm18DILexicalBlockFile7getImplERNS_11LLVMContextEPNS_8MetadataES4_jNS3_11StorageTypeEb
00000000008a5190 T _ZN4llvm11DINamespace7getImplERNS_11LLVMContextEPNS_8MetadataEPNS_8MDStringEbNS3_11StorageTypeEb
00000000008a5a40 T _ZN4llvm13DICommonBlock7getImplERNS_11LLVMContextEPNS_8MetadataES4_PNS_8MDStringES4_jNS3_11StorageTypeEb
00000000008a61d0 T _ZN4llvm8DIModule7getImplERNS_11LLVMContextEPNS_8MetadataEPNS_8MDStringES6_S6_S6_NS3_11StorageTypeEb
00000000008a6920 T _ZN4llvm23DITemplateTypeParameter7getImplERNS_11LLVMContextEPNS_8MDStringEPNS_8MetadataENS5_11StorageTypeEb
00000000008a7580 T _ZN4llvm24DITemplateValueParameter7getImplERNS_11LLVMContextEjPNS_8MDStringEPNS_8MetadataES6_NS5_11StorageTypeEb
00000000008a7ee0 T _ZN4llvm16DIGlobalVariable7getImplERNS_11LLVMContextEPNS_8MetadataEPNS_8MDStringES6_S4_jS4_bbS4_S4_jNS3_11StorageTypeEb
00000000008a88d0 T _ZN4llvm15DILocalVariable7getImplERNS_11LLVMContextEPNS_8MetadataEPNS_8MDStringES4_jS4_jNS_6DINode7DIFlagsEjNS3_11StorageTypeEb
00000000008a95e0 T _ZN4llvm7DILabel7getImplERNS_11LLVMContextEPNS_8MetadataEPNS_8MDStringES4_jNS3_11StorageTypeEb
00000000008a9e20 T _ZN4llvm12DIExpression7getImplERNS_11LLVMContextENS_8ArrayRefImEENS_8Metadata11StorageTypeEb
00000000008aa330 T _ZN4llvm12DIExpression19extractAddressClassEPKS0_Rj
00000000008aa3b0 T _ZN4llvm12DIExpression14prependOpcodesEPKS0_RNS_15SmallVectorImplImEEbb
00000000008aa610 T _ZN4llvm12DIExpression7prependEPKS0_hl
00000000008aa710 T _ZN4llvm12DIExpression6appendEPKS0_NS_8ArrayRefImEE
00000000008aa9f0 T _ZN4llvm12DIExpression13appendToStackEPKS0_NS_8ArrayRefImEE
00000000008aabe0 T _ZN4llvm12DIExpression9appendExtEPKS0_jjb
00000000008aac40 T _ZN4llvm12DIExpression24createFragmentExpressionEPKS0_jj
00000000008ab390 T _ZN4llvm26DIGlobalVariableExpression7getImplERNS_11LLVMContextEPNS_8MetadataES4_NS3_11StorageTypeEb
00000000008abbe0 T _ZN4llvm14DIObjCProperty7getImplERNS_11LLVMContextEPNS_8MDStringEPNS_8MetadataEjS4_S4_jS6_NS5_11StorageTypeEb
00000000008ac430 T _ZN4llvm16DIImportedEntity7getImplERNS_11LLVMContextEjPNS_8MetadataES4_S4_jPNS_8MDStringENS3_11StorageTypeEb
00000000008acbf0 T _ZN4llvm7DIMacro7getImplERNS_11LLVMContextEjjPNS_8MDStringES4_NS_8Metadata11StorageTypeEb
00000000008ad840 T _ZN4llvm11DIMacroFile7getImplERNS_11LLVMContextEjjPNS_8MetadataES4_NS3_11StorageTypeEb
00000000008ade20 T _ZN4llvm8DebugLocC1EPKNS_10DILocationE
00000000008ade50 T _ZN4llvm8DebugLocC2EPKNS_6MDNodeE
00000000008ade80 T _ZNK4llvm8DebugLoc3getEv
00000000008ade90 T _ZNK4llvm8DebugLoc7getLineEv
00000000008adeb0 T _ZNK4llvm8DebugLoc6getColEv
00000000008aded0 T _ZNK4llvm8DebugLoc8getScopeEv
00000000008adef0 T _ZNK4llvm8DebugLoc12getInlinedAtEv
00000000008adf20 T _ZNK4llvm8DebugLoc17getInlinedAtScopeEv
00000000008adf60 T _ZNK4llvm8DebugLoc14isImplicitCodeEv
00000000008adf90 T _ZN4llvm8DebugLoc15setImplicitCodeEb
00000000008adfc0 T _ZN4llvm8DebugLoc3getEjjPKNS_6MDNodeES3_b
00000000008ae020 T _ZNK4llvm8DebugLoc13getFnDebugLocEv
00000000008ae0a0 T _ZN4llvm8DebugLoc15appendInlinedAtES0_PNS_10DILocationERNS_11LLVMContextERNS_8DenseMapIPKNS_6MDNodeEPS6_NS_12DenseMapInfoIS8_EENS_6detail12DenseMapPairIS8_S9_EEEEb
00000000008aee20 T _ZNK4llvm8DebugLoc5printERNS_11raw_ostreamE
00000000008af0c0 w _ZNSt23_Sp_counted_ptr_inplaceIN4llvm5RegexESaIS1_ELN9__gnu_cxx12_Lock_policyE2EED1Ev
00000000008af110 T _ZNK4llvm17DiagnosticHandler23isAnalysisRemarkEnabledENS_9StringRefE
00000000008af140 T _ZNK4llvm17DiagnosticHandler24isMissedOptRemarkEnabledENS_9StringRefE
00000000008af170 T _ZNK4llvm17DiagnosticHandler24isPassedOptRemarkEnabledENS_9StringRefE
00000000008af1b0 w _ZNSt23_Sp_counted_ptr_inplaceIN4llvm5RegexESaIS1_ELN9__gnu_cxx12_Lock_policyE2EED0Ev
00000000008af1c0 w _ZNSt23_Sp_counted_ptr_inplaceIN4llvm5RegexESaIS1_ELN9__gnu_cxx12_Lock_policyE2EE10_M_disposeEv
00000000008af1d0 w _ZNSt23_Sp_counted_ptr_inplaceIN4llvm5RegexESaIS1_ELN9__gnu_cxx12_Lock_policyE2EE10_M_destroyEv
00000000008af1e0 w _ZNSt23_Sp_counted_ptr_inplaceIN4llvm5RegexESaIS1_ELN9__gnu_cxx12_Lock_policyE2EE14_M_get_deleterERKSt9type_info
00000000008af2b0 T _ZNK4llvm17DiagnosticHandler18isAnyRemarkEnabledEv
00000000008af9c0 T _ZNK4llvm27DiagnosticInfoResourceLimit5printERNS_17DiagnosticPrinterE
00000000008afa60 T _ZNK4llvm34DiagnosticInfoDebugMetadataVersion5printERNS_17DiagnosticPrinterE
00000000008afab0 T _ZNK4llvm42DiagnosticInfoIgnoringInvalidDebugMetadata5printERNS_17DiagnosticPrinterE
00000000008afae0 T _ZNK4llvm27DiagnosticInfoSampleProfile5printERNS_17DiagnosticPrinterE
00000000008afb60 T _ZNK4llvm24DiagnosticInfoPGOProfile5printERNS_17DiagnosticPrinterE
00000000008afbb0 T _ZN4llvm23DiagnosticInfoStackSize6anchorEv
00000000008afbc0 T _ZNK4llvm23DiagnosticInfoMIRParser5printERNS_17DiagnosticPrinterE
00000000008afbe0 T _ZNK4llvm33DiagnosticInfoOptimizationFailure9isEnabledEv
00000000008afbf0 T _ZNK4llvm26DiagnosticInfoISelFallback5printERNS_17DiagnosticPrinterE
00000000008afcc0 T _ZNK4llvm18OptimizationRemark9isEnabledEv
00000000008afd20 T _ZNK4llvm24OptimizationRemarkMissed9isEnabledEv
00000000008afe30 T _ZNK4llvm23DiagnosticInfoInlineAsm5printERNS_17DiagnosticPrinterE
00000000008afe90 T _ZNK4llvm26OptimizationRemarkAnalysis9isEnabledEv
00000000008b0680 T _ZN4llvm36getNextAvailablePluginDiagnosticKindEv
00000000008b06a0 T _ZN4llvm23DiagnosticInfoInlineAsmC2ERKNS_11InstructionERKNS_5TwineENS_18DiagnosticSeverityE
00000000008b0750 T _ZN4llvm18DiagnosticLocationC1ERKNS_8DebugLocE
00000000008b07d0 T _ZN4llvm18DiagnosticLocationC2EPKNS_12DISubprogramE
00000000008b0810 T _ZNK4llvm18DiagnosticLocation15getRelativePathEv
00000000008b0850 T _ZNK4llvm18DiagnosticLocation15getAbsolutePathB5cxx11Ev
00000000008b0b90 T _ZNK4llvm30DiagnosticInfoWithLocationBase15getAbsolutePathB5cxx11Ev
00000000008b0be0 T _ZNK4llvm30DiagnosticInfoWithLocationBase11getLocationERNS_9StringRefERjS3_
00000000008b0c30 T _ZNK4llvm30DiagnosticInfoWithLocationBase14getLocationStrB5cxx11Ev
00000000008b0da0 T _ZNK4llvm25DiagnosticInfoUnsupported5printERNS_17DiagnosticPrinterE
00000000008b1050 T _ZNK4llvm23DiagnosticInfoMisExpect5printERNS_17DiagnosticPrinterE
00000000008b10f0 T _ZN4llvm30DiagnosticInfoOptimizationBase8ArgumentC1ENS_9StringRefEPKNS_5ValueE
00000000008b14f0 T _ZN4llvm30DiagnosticInfoOptimizationBase8ArgumentC2ENS_9StringRefEPKNS_4TypeE
00000000008b1660 T _ZN4llvm30DiagnosticInfoOptimizationBase8ArgumentC2ENS_9StringRefES2_
00000000008b1800 T _ZN4llvm30DiagnosticInfoOptimizationBase8ArgumentC1ENS_9StringRefEi
00000000008b1ae0 T _ZN4llvm30DiagnosticInfoOptimizationBase8ArgumentC1ENS_9StringRefEf
00000000008b1d40 T _ZN4llvm30DiagnosticInfoOptimizationBase8ArgumentC1ENS_9StringRefEl
00000000008b2010 T _ZN4llvm30DiagnosticInfoOptimizationBase8ArgumentC1ENS_9StringRefEx
00000000008b22e0 T _ZN4llvm30DiagnosticInfoOptimizationBase8ArgumentC1ENS_9StringRefEj
00000000008b24b0 T _ZN4llvm30DiagnosticInfoOptimizationBase8ArgumentC1ENS_9StringRefEm
00000000008b2680 T _ZN4llvm30DiagnosticInfoOptimizationBase8ArgumentC1ENS_9StringRefEy
00000000008b2850 T _ZN4llvm30DiagnosticInfoOptimizationBase8ArgumentC1ENS_9StringRefENS_8DebugLocE
00000000008b2e50 T _ZN4llvm18OptimizationRemarkC1EPKcNS_9StringRefERKNS_18DiagnosticLocationEPKNS_5ValueE
00000000008b2ed0 T _ZN4llvm18OptimizationRemarkC2EPKcNS_9StringRefEPKNS_11InstructionE
00000000008b2fb0 T _ZN4llvm18OptimizationRemarkC2EPKcNS_9StringRefEPKNS_8FunctionE
00000000008b30a0 T _ZN4llvm24OptimizationRemarkMissedC1EPKcNS_9StringRefERKNS_18DiagnosticLocationEPKNS_5ValueE
00000000008b3120 T _ZN4llvm24OptimizationRemarkMissedC2EPKcNS_9StringRefEPKNS_11InstructionE
00000000008b3200 T _ZN4llvm26OptimizationRemarkAnalysisC1EPKcNS_9StringRefERKNS_18DiagnosticLocationEPKNS_5ValueE
00000000008b3280 T _ZN4llvm26OptimizationRemarkAnalysisC1EPKcNS_9StringRefEPKNS_11InstructionE
00000000008b3360 T _ZN4llvm26OptimizationRemarkAnalysisC2ENS_14DiagnosticKindEPKcNS_9StringRefERKNS_18DiagnosticLocationEPKNS_5ValueE
00000000008b33e0 T _ZN4llvm33DiagnosticInfoOptimizationFailureC2EPKcNS_9StringRefERKNS_18DiagnosticLocationEPKNS_5ValueE
00000000008b3460 T _ZN4llvm30DiagnosticInfoOptimizationBase6insertENS0_12setIsVerboseE
00000000008b3470 T _ZN4llvm30DiagnosticInfoOptimizationBase6insertENS0_12setExtraArgsE
00000000008b3480 T _ZNK4llvm30DiagnosticInfoOptimizationBase6getMsgB5cxx11Ev
00000000008b3680 T _ZNK4llvm30DiagnosticInfoOptimizationBase5printERNS_17DiagnosticPrinterE
00000000008b3780 T _ZN4llvm23DiagnosticInfoMisExpectC1EPKNS_11InstructionERNS_5TwineE
00000000008b3810 w _ZN4llvm23SmallVectorTemplateBaseINS_30DiagnosticInfoOptimizationBase8ArgumentELb0EE4growEm
00000000008b3a40 T _ZN4llvm30DiagnosticInfoOptimizationBase6insertENS_9StringRefE
00000000008b3b80 T _ZN4llvm30DiagnosticInfoOptimizationBase6insertENS0_8ArgumentE
00000000008b3c80 T _ZN4llvm27DiagnosticPrinterRawOStreamlsEa
00000000008b3cc0 T _ZN4llvm27DiagnosticPrinterRawOStreamlsEh
00000000008b3d00 T _ZN4llvm27DiagnosticPrinterRawOStreamlsERKNSt7__cxx1112basic_stringIcSt11char_traitsIcESaIcEEE
00000000008b3d20 T _ZN4llvm27DiagnosticPrinterRawOStreamlsERKNS_6ModuleE
00000000008b3d50 T _ZN4llvm27DiagnosticPrinterRawOStreamlsEm
00000000008b3d70 T _ZN4llvm27DiagnosticPrinterRawOStreamlsEj
00000000008b3d90 T _ZN4llvm27DiagnosticPrinterRawOStreamlsEl
00000000008b3db0 T _ZN4llvm27DiagnosticPrinterRawOStreamlsEi
00000000008b3dd0 T _ZN4llvm27DiagnosticPrinterRawOStreamlsEy
00000000008b3df0 T _ZN4llvm27DiagnosticPrinterRawOStreamlsEx
00000000008b3e10 T _ZN4llvm27DiagnosticPrinterRawOStreamlsEPKv
00000000008b3e30 T _ZN4llvm27DiagnosticPrinterRawOStreamlsEd
00000000008b3e50 T _ZN4llvm27DiagnosticPrinterRawOStreamlsERKNS_5TwineE
00000000008b3e70 T _ZN4llvm27DiagnosticPrinterRawOStreamlsERKNS_5ValueE
00000000008b3ee0 T _ZN4llvm27DiagnosticPrinterRawOStreamlsERKNS_12SMDiagnosticE
00000000008b3f20 T _ZN4llvm27DiagnosticPrinterRawOStreamlsEPKc
00000000008b3fa0 T _ZN4llvm27DiagnosticPrinterRawOStreamlsENS_9StringRefE
00000000008b4050 T _ZNK4llvm24DominatorTreeWrapperPass14verifyAnalysisEv
00000000008b44c0 T _ZNK4llvm14BasicBlockEdge12isSingleEdgeEv
00000000008b4540 w _ZN4llvm15DomTreeNodeBaseINS_10BasicBlockEEC1EPS1_PS2_
00000000008b4580 w _ZN4llvm15DomTreeNodeBaseINS_10BasicBlockEE5beginEv
00000000008b4590 w _ZN4llvm15DomTreeNodeBaseINS_10BasicBlockEE3endEv
00000000008b45a0 w _ZNK4llvm15DomTreeNodeBaseINS_10BasicBlockEE5beginEv
00000000008b45b0 w _ZNK4llvm15DomTreeNodeBaseINS_10BasicBlockEE3endEv
00000000008b45c0 w _ZNK4llvm15DomTreeNodeBaseINS_10BasicBlockEE8getBlockEv
00000000008b45d0 w _ZNK4llvm15DomTreeNodeBaseINS_10BasicBlockEE7getIDomEv
00000000008b45e0 w _ZNK4llvm15DomTreeNodeBaseINS_10BasicBlockEE8getLevelEv
00000000008b45f0 w _ZNK4llvm15DomTreeNodeBaseINS_10BasicBlockEE11getChildrenEv
00000000008b4600 w _ZNK4llvm15DomTreeNodeBaseINS_10BasicBlockEE14getNumChildrenEv
00000000008b4620 w _ZN4llvm15DomTreeNodeBaseINS_10BasicBlockEE16clearAllChildrenEv
00000000008b4640 w _ZNK4llvm15DomTreeNodeBaseINS_10BasicBlockEE7compareEPKS2_
00000000008b4970 w _ZNK4llvm15DomTreeNodeBaseINS_10BasicBlockEE11getDFSNumInEv
00000000008b4980 w _ZNK4llvm15DomTreeNodeBaseINS_10BasicBlockEE12getDFSNumOutEv
00000000008b4990 w _ZNK4llvm15DomTreeNodeBaseINS_10BasicBlockEE11DominatedByEPKS2_
00000000008b49b0 w _ZN4llvm15DomTreeNodeBaseINS_10BasicBlockEE11UpdateLevelEv
00000000008b4ad0 w _ZN4llvm17DominatorTreeBaseINS_10BasicBlockELb0EEC1Ev
00000000008b4b20 w _ZNK4llvm17DominatorTreeBaseINS_10BasicBlockELb0EE8getRootsEv
00000000008b4b30 w _ZNK4llvm17DominatorTreeBaseINS_10BasicBlockELb0EE15isPostDominatorEv
00000000008b4b40 w _ZN4llvm17DominatorTreeBaseINS_10BasicBlockELb0EE11getRootNodeEv
00000000008b4b50 w _ZNK4llvm17DominatorTreeBaseINS_10BasicBlockELb0EE11getRootNodeEv
00000000008b4b60 w _ZNK4llvm17DominatorTreeBaseINS_10BasicBlockELb0EE20isReachableFromEntryEPKNS_15DomTreeNodeBaseIS1_EE
00000000008b4b70 w _ZNK4llvm17DominatorTreeBaseINS_10BasicBlockELb0EE7getRootEv
00000000008b4b80 w _ZNK4llvm17DominatorTreeBaseINS_10BasicBlockELb0EE13isVirtualRootEPKNS_15DomTreeNodeBaseIS1_EE
00000000008b4b90 w _ZNK4llvm17DominatorTreeBaseINS_10BasicBlockELb0EE23dominatedBySlowTreeWalkEPKNS_15DomTreeNodeBaseIS1_EES6_
00000000008b4bc0 w _ZN4llvm17DominatorTreeBaseINS_10BasicBlockELb1EEC1Ev
00000000008b4c10 w _ZNK4llvm17DominatorTreeBaseINS_10BasicBlockELb1EE8getRootsEv
00000000008b4c20 w _ZNK4llvm17DominatorTreeBaseINS_10BasicBlockELb1EE15isPostDominatorEv
00000000008b4c30 w _ZN4llvm17DominatorTreeBaseINS_10BasicBlockELb1EE11getRootNodeEv
00000000008b4c40 w _ZNK4llvm17DominatorTreeBaseINS_10BasicBlockELb1EE11getRootNodeEv
00000000008b4c50 w _ZNK4llvm17DominatorTreeBaseINS_10BasicBlockELb1EE20isReachableFromEntryEPKNS_15DomTreeNodeBaseIS1_EE
00000000008b4c60 w _ZNK4llvm17DominatorTreeBaseINS_10BasicBlockELb1EE7getRootEv
00000000008b4c70 w _ZNK4llvm17DominatorTreeBaseINS_10BasicBlockELb1EE13isVirtualRootEPKNS_15DomTreeNodeBaseIS1_EE
00000000008b4c80 w _ZNK4llvm17DominatorTreeBaseINS_10BasicBlockELb1EE23dominatedBySlowTreeWalkEPKNS_15DomTreeNodeBaseIS1_EES6_
00000000008b4cb0 w _ZN4llvm3cfg6UpdateIPNS_10BasicBlockEEC2ENS0_10UpdateKindES3_S3_
00000000008b4cd0 w _ZNK4llvm3cfg6UpdateIPNS_10BasicBlockEE7getKindEv
00000000008b4ce0 w _ZNK4llvm3cfg6UpdateIPNS_10BasicBlockEE7getFromEv
00000000008b4cf0 w _ZNK4llvm3cfg6UpdateIPNS_10BasicBlockEE5getToEv
00000000008b4d00 w _ZNK4llvm3cfg6UpdateIPNS_10BasicBlockEEeqERKS4_
00000000008b4d20 w _ZNK4llvm3cfg6UpdateIPNS_10BasicBlockEE5printERNS_11raw_ostreamE
00000000008b4d90 T _ZN4llvm24DominatorTreePrinterPassC1ERNS_11raw_ostreamE
00000000008b4da0 T _ZN4llvm25DominatorTreeVerifierPass3runERNS_8FunctionERNS_15AnalysisManagerIS1_JEEE
00000000008b4e60 T _ZN4llvm38initializeDominatorTreeWrapperPassPassERNS_12PassRegistryE
00000000008b4f10 T _ZN4llvm24DominatorTreeWrapperPassC1Ev
00000000008b4fa0 w _ZN4llvm15callDefaultCtorINS_24DominatorTreeWrapperPassEEEPNS_4PassEv
00000000008b50b0 T _ZN4llvm13DominatorTree10invalidateERNS_8FunctionERKNS_17PreservedAnalysesERNS_15AnalysisManagerIS1_JEE11InvalidatorE
00000000008b52b0 w _ZN4llvm17DominatorTreeBaseINS_10BasicBlockELb0EE7addRootEPS1_
00000000008b52d0 w _ZN4llvm17DominatorTreeBaseINS_10BasicBlockELb1EE7addRootEPS1_
00000000008b5640 w _ZN4llvm15SmallVectorImplIPNS_10BasicBlockEEaSEOS3_
00000000008b59c0 w _ZN4llvm17DominatorTreeBaseINS_10BasicBlockELb0EE5resetEv
00000000008b59f0 w _ZN4llvm17DominatorTreeBaseINS_10BasicBlockELb0EE13releaseMemoryEv
00000000008b5a50 w _ZN4llvm17DominatorTreeBaseINS_10BasicBlockELb0EE4wipeEv
00000000008b5a70 w _ZN4llvm17DominatorTreeBaseINS_10BasicBlockELb1EE5resetEv
00000000008b5aa0 w _ZN4llvm17DominatorTreeBaseINS_10BasicBlockELb1EE13releaseMemoryEv
00000000008b5ad0 w _ZN4llvm17DominatorTreeBaseINS_10BasicBlockELb1EE4wipeEv
00000000008b5af0 w _ZN4llvm17DominatorTreeBaseINS_10BasicBlockELb0EEC2EOS2_
00000000008b5b90 w _ZN4llvm17DominatorTreeBaseINS_10BasicBlockELb0EEaSEOS2_
00000000008b5ca0 w _ZN4llvm17DominatorTreeBaseINS_10BasicBlockELb1EEC2EOS2_
00000000008b5d40 w _ZN4llvm17DominatorTreeBaseINS_10BasicBlockELb1EEaSEOS2_
00000000008b6660 w _ZSt16__is_permutationIPKPN4llvm10BasicBlockES4_N9__gnu_cxx5__ops19_Iter_equal_to_iterEEbT_S8_T0_T1_
00000000008b6820 w _ZN4llvmlsINS_10BasicBlockEEERNS_11raw_ostreamES3_PKNS_15DomTreeNodeBaseIT_EE
00000000008b68d0 w _ZN4llvm12PrintDomTreeINS_10BasicBlockEEEvPKNS_15DomTreeNodeBaseIT_EERNS_11raw_ostreamEj
00000000008b6960 w _ZNK4llvm17DominatorTreeBaseINS_10BasicBlockELb0EE5printERNS_11raw_ostreamE
00000000008b6a60 T _ZNK4llvm24DominatorTreeWrapperPass5printERNS_11raw_ostreamEPKNS_6ModuleE
00000000008b6a70 T _ZN4llvm24DominatorTreePrinterPass3runERNS_8FunctionERNS_15AnalysisManagerIS1_JEEE
00000000008b6be0 w _ZNK4llvm17DominatorTreeBaseINS_10BasicBlockELb1EE5printERNS_11raw_ostreamE
00000000008b6ce0 w _ZN4llvm23SmallVectorTemplateBaseISt4pairIPKNS_15DomTreeNodeBaseINS_10BasicBlockEEEN9__gnu_cxx17__normal_iteratorIPKPS4_St6vectorIS9_SaIS9_EEEEELb0EE4growEm
00000000008b6e00 w _ZNK4llvm17DominatorTreeBaseINS_10BasicBlockELb0EE16updateDFSNumbersEv
00000000008b6f80 w _ZNK4llvm17DominatorTreeBaseINS_10BasicBlockELb0EE9dominatesEPKNS_15DomTreeNodeBaseIS1_EES6_
00000000008b7060 w _ZNK4llvm17DominatorTreeBaseINS_10BasicBlockELb0EE17properlyDominatesEPKNS_15DomTreeNodeBaseIS1_EES6_
00000000008b7090 w _ZNK4llvm17DominatorTreeBaseINS_10BasicBlockELb1EE16updateDFSNumbersEv
00000000008b7210 w _ZNK4llvm17DominatorTreeBaseINS_10BasicBlockELb1EE9dominatesEPKNS_15DomTreeNodeBaseIS1_EES6_
00000000008b72f0 w _ZNK4llvm17DominatorTreeBaseINS_10BasicBlockELb1EE17properlyDominatesEPKNS_15DomTreeNodeBaseIS1_EES6_
00000000008b7650 w _ZNSt6vectorIPN4llvm15DomTreeNodeBaseINS0_10BasicBlockEEESaIS4_EE17_M_realloc_insertIJS4_EEEvN9__gnu_cxx17__normal_iteratorIPS4_S6_EEDpOT_
00000000008b77b0 w _ZNSt6vectorIPN4llvm15DomTreeNodeBaseINS0_10BasicBlockEEESaIS4_EE12emplace_backIJS4_EEEvDpOT_
00000000008b77e0 w _ZN4llvm15DomTreeNodeBaseINS_10BasicBlockEE8addChildESt10unique_ptrIS2_St14default_deleteIS2_EE
00000000008b7850 w _ZN4llvm15DomTreeNodeBaseINS_10BasicBlockEE7setIDomEPS2_
00000000008b7a20 w _ZN4llvm17DominatorTreeBaseINS_10BasicBlockELb0EE24changeImmediateDominatorEPNS_15DomTreeNodeBaseIS1_EES5_
00000000008b7a40 w _ZN4llvm17DominatorTreeBaseINS_10BasicBlockELb1EE24changeImmediateDominatorEPNS_15DomTreeNodeBaseIS1_EES5_
00000000008b7fa0 w _ZNK4llvm17DominatorTreeBaseINS_10BasicBlockELb0EE7compareERKS2_
00000000008b80b0 w _ZNK4llvm17DominatorTreeBaseINS_10BasicBlockELb0EE7getNodeEPKS1_
00000000008b8100 w _ZNK4llvm17DominatorTreeBaseINS_10BasicBlockELb0EEixEPKS1_
00000000008b8110 w _ZNK4llvm17DominatorTreeBaseINS_10BasicBlockELb0EE20isReachableFromEntryEPKS1_
00000000008b8130 w _ZNK4llvm17DominatorTreeBaseINS_10BasicBlockELb0EE26findNearestCommonDominatorEPS1_S3_
00000000008b81d0 T _ZNK4llvm13DominatorTree20isReachableFromEntryERKNS_3UseE
00000000008b8290 w _ZN4llvm17DominatorTreeBaseINS_10BasicBlockELb0EE24changeImmediateDominatorEPS1_S3_
00000000008b82d0 w _ZNK4llvm17DominatorTreeBaseINS_10BasicBlockELb0EE14getDescendantsEPS1_RNS_15SmallVectorImplIS3_EE
00000000008b84b0 w _ZNK4llvm17DominatorTreeBaseINS_10BasicBlockELb0EE17properlyDominatesEPKS1_S4_
00000000008b8500 w _ZNK4llvm17DominatorTreeBaseINS_10BasicBlockELb0EE9dominatesEPKS1_S4_
00000000008b8550 T _ZNK4llvm13DominatorTree9dominatesERKNS_14BasicBlockEdgeEPKNS_10BasicBlockE
00000000008b8630 T _ZNK4llvm13DominatorTree9dominatesERKNS_14BasicBlockEdgeERKNS_3UseE
00000000008b8730 T _ZNK4llvm13DominatorTree9dominatesEPKNS_11InstructionEPKNS_10BasicBlockE
00000000008b87f0 T _ZNK4llvm13DominatorTree9dominatesEPKNS_11InstructionES3_
00000000008b88c0 T _ZNK4llvm13DominatorTree9dominatesEPKNS_11InstructionERKNS_3UseE
00000000008b8a40 w _ZNK4llvm17DominatorTreeBaseINS_10BasicBlockELb0EE26findNearestCommonDominatorEPKS1_S4_
00000000008b8ae0 w _ZNK4llvm17DominatorTreeBaseINS_10BasicBlockELb1EE7compareERKS2_
00000000008b8bf0 w _ZNK4llvm17DominatorTreeBaseINS_10BasicBlockELb1EE7getNodeEPKS1_
00000000008b8c40 w _ZNK4llvm17DominatorTreeBaseINS_10BasicBlockELb1EEixEPKS1_
00000000008b8c50 w _ZNK4llvm17DominatorTreeBaseINS_10BasicBlockELb1EE20isReachableFromEntryEPKS1_
00000000008b8c70 w _ZNK4llvm17DominatorTreeBaseINS_10BasicBlockELb1EE26findNearestCommonDominatorEPS1_S3_
00000000008b8cf0 w _ZNK4llvm17DominatorTreeBaseINS_10BasicBlockELb1EE26findNearestCommonDominatorEPKS1_S4_
00000000008b8d00 w _ZN4llvm17DominatorTreeBaseINS_10BasicBlockELb1EE24changeImmediateDominatorEPS1_S3_
00000000008b8d40 w _ZNK4llvm17DominatorTreeBaseINS_10BasicBlockELb1EE14getDescendantsEPS1_RNS_15SmallVectorImplIS3_EE
00000000008b8f20 w _ZNK4llvm17DominatorTreeBaseINS_10BasicBlockELb1EE17properlyDominatesEPKS1_S4_
00000000008b8f70 w _ZNK4llvm17DominatorTreeBaseINS_10BasicBlockELb1EE9dominatesEPKS1_S4_
00000000008b9070 w _ZN4llvm17DominatorTreeBaseINS_10BasicBlockELb1EE9eraseNodeEPS1_
00000000008b92a0 w _ZN4llvm17DominatorTreeBaseINS_10BasicBlockELb0EE9eraseNodeEPS1_
00000000008b95e0 w _ZNSt6vectorIPN4llvm10BasicBlockESaIS2_EE9push_backERKS2_
00000000008b9d30 w _ZNSt6vectorIPN4llvm10BasicBlockESaIS2_EE13_M_assign_auxIPKS2_EEvT_S8_St20forward_iterator_tag
00000000008bac30 w _ZN4llvm23SmallVectorTemplateBaseISt4pairIPNS_10BasicBlockEPNS_15DomTreeNodeBaseIS2_EEELb0EE4growEm
00000000008bad50 w _ZSt11__remove_ifIPPN4llvm10BasicBlockEN9__gnu_cxx5__ops16_Iter_equals_valIKS2_EEET_S9_S9_T0_
00000000008bb060 w _ZN4llvm17DominatorTreeBaseINS_10BasicBlockELb0EE11addNewBlockEPS1_S3_
00000000008bb420 w _ZN4llvm17DominatorTreeBaseINS_10BasicBlockELb0EE10splitBlockEPS1_
00000000008bb430 w _ZN4llvm17DominatorTreeBaseINS_10BasicBlockELb0EE10setNewRootEPS1_
00000000008bb5a0 w _ZN4llvm17DominatorTreeBaseINS_10BasicBlockELb1EE11addNewBlockEPS1_S3_
00000000008bb970 w _ZN4llvm17DominatorTreeBaseINS_10BasicBlockELb1EE10splitBlockEPS1_
00000000008bb980 w _ZN4llvm17DominatorTreeBaseINS_10BasicBlockELb1EE10setNewRootEPS1_
00000000008bc050 w _ZSt13__adjust_heapIPPN4llvm15DomTreeNodeBaseINS0_10BasicBlockEEElS4_N9__gnu_cxx5__ops15_Iter_comp_iterINS0_14DomTreeBuilder11SemiNCAInfoINS0_17DominatorTreeBaseIS2_Lb0EEEE13InsertionInfo7CompareEEEEvT_T0_SI_T1_T2_
00000000008bc9f0 w _ZSt13__adjust_heapIPPN4llvm15DomTreeNodeBaseINS0_10BasicBlockEEElS4_N9__gnu_cxx5__ops15_Iter_comp_iterINS0_14DomTreeBuilder11SemiNCAInfoINS0_17DominatorTreeBaseIS2_Lb1EEEE13InsertionInfo7CompareEEEEvT_T0_SI_T1_T2_
00000000008bcb20 w _ZSt9__find_ifIPPN4llvm10BasicBlockEN9__gnu_cxx5__ops10_Iter_predIZNS0_14DomTreeBuilder11SemiNCAInfoINS0_17DominatorTreeBaseIS1_Lb1EEEE22UpdateRootsAfterUpdateERSA_PNSB_15BatchUpdateInfoEEUlS2_E_EEET_SH_SH_T0_St26random_access_iterator_tag
00000000008bcd90 w _ZSt16__insertion_sortIPN4llvm3cfg6UpdateIPNS0_10BasicBlockEEEN9__gnu_cxx5__ops15_Iter_comp_iterIZNS1_15LegalizeUpdatesIS4_EEvNS0_8ArrayRefINS2_IT_EEEERNS0_15SmallVectorImplISD_EEbEUlRKS5_SJ_E_EEEvSC_SC_T0_
00000000008bd5b0 w _ZSt16__insertion_sortIPPN4llvm15DomTreeNodeBaseINS0_10BasicBlockEEEN9__gnu_cxx5__ops15_Iter_comp_iterIZNS0_14DomTreeBuilder11SemiNCAInfoINS0_17DominatorTreeBaseIS2_Lb0EEEE16VerifyDFSNumbersERKSC_EUlS4_S4_E0_EEEvT_SI_T0_
00000000008bd670 w _ZSt16__insertion_sortIPPN4llvm15DomTreeNodeBaseINS0_10BasicBlockEEEN9__gnu_cxx5__ops15_Iter_comp_iterIZNS0_14DomTreeBuilder11SemiNCAInfoINS0_17DominatorTreeBaseIS2_Lb1EEEE16VerifyDFSNumbersERKSC_EUlS4_S4_E0_EEEvT_SI_T0_
00000000008c0290 w _ZN4llvm14DomTreeBuilder9CalculateINS_17DominatorTreeBaseINS_10BasicBlockELb0EEEEEvRT_
00000000008c02a0 w _ZN4llvm17DominatorTreeBaseINS_10BasicBlockELb0EE11recalculateERNS_8FunctionE
00000000008c02b0 T _ZN4llvm21DominatorTreeAnalysis3runERNS_8FunctionERNS_15AnalysisManagerIS1_JEEE
00000000008c0310 T _ZN4llvm24DominatorTreeWrapperPass13runOnFunctionERNS_8FunctionE
00000000008c10a0 w _ZN4llvm14DomTreeBuilder10DeleteEdgeINS_17DominatorTreeBaseINS_10BasicBlockELb0EEEEEvRT_NS5_7NodePtrES7_
00000000008c10c0 w _ZN4llvm17DominatorTreeBaseINS_10BasicBlockELb0EE10deleteEdgeEPS1_S3_
00000000008c56a0 w _ZN4llvm14DomTreeBuilder9CalculateINS_17DominatorTreeBaseINS_10BasicBlockELb1EEEEEvRT_
00000000008c56b0 w _ZN4llvm17DominatorTreeBaseINS_10BasicBlockELb1EE11recalculateERNS_8FunctionE
00000000008c68d0 w _ZN4llvm14DomTreeBuilder10InsertEdgeINS_17DominatorTreeBaseINS_10BasicBlockELb0EEEEEvRT_NS5_7NodePtrES7_
00000000008c6ad0 w _ZN4llvm17DominatorTreeBaseINS_10BasicBlockELb0EE10insertEdgeEPS1_S3_
00000000008c7840 w _ZN4llvm14DomTreeBuilder10InsertEdgeINS_17DominatorTreeBaseINS_10BasicBlockELb1EEEEEvRT_NS5_7NodePtrES7_
00000000008c7850 w _ZN4llvm17DominatorTreeBaseINS_10BasicBlockELb1EE10insertEdgeEPS1_S3_
00000000008c7bd0 w _ZN4llvm14DomTreeBuilder10DeleteEdgeINS_17DominatorTreeBaseINS_10BasicBlockELb1EEEEEvRT_NS5_7NodePtrES7_
00000000008c7be0 w _ZN4llvm17DominatorTreeBaseINS_10BasicBlockELb1EE10deleteEdgeEPS1_S3_
00000000008c7bf0 w _ZSt13__adjust_heapIPN4llvm3cfg6UpdateIPNS0_10BasicBlockEEElS5_N9__gnu_cxx5__ops15_Iter_comp_iterIZNS1_15LegalizeUpdatesIS4_EEvNS0_8ArrayRefINS2_IT_EEEERNS0_15SmallVectorImplISD_EEbEUlRKS5_SJ_E_EEEvSC_T0_SM_T1_T2_
00000000008c8410 w _ZSt13__heap_selectIPN4llvm3cfg6UpdateIPNS0_10BasicBlockEEEN9__gnu_cxx5__ops15_Iter_comp_iterIZNS1_15LegalizeUpdatesIS4_EEvNS0_8ArrayRefINS2_IT_EEEERNS0_15SmallVectorImplISD_EEbEUlRKS5_SJ_E_EEEvSC_SC_SC_T0_
00000000008c8960 w _ZSt16__introsort_loopIPN4llvm3cfg6UpdateIPNS0_10BasicBlockEEElN9__gnu_cxx5__ops15_Iter_comp_iterIZNS1_15LegalizeUpdatesIS4_EEvNS0_8ArrayRefINS2_IT_EEEERNS0_15SmallVectorImplISD_EEbEUlRKS5_SJ_E_EEEvSC_SC_T0_T1_
00000000008c9c30 w _ZN4llvm3cfg15LegalizeUpdatesIPNS_10BasicBlockEEEvNS_8ArrayRefINS0_6UpdateIT_EEEERNS_15SmallVectorImplIS7_EEb
00000000008ca7e0 w _ZN4llvm14DomTreeBuilder20CalculateWithUpdatesINS_17DominatorTreeBaseINS_10BasicBlockELb1EEEEEvRT_NS_8ArrayRefINS5_10UpdateTypeEEE
00000000008cab90 w _ZN4llvm17DominatorTreeBaseINS_10BasicBlockELb1EE11recalculateERNS_8FunctionENS_8ArrayRefINS_3cfg6UpdateIPS1_EEEE
00000000008cb100 w _ZN4llvm14DomTreeBuilder12ApplyUpdatesINS_17DominatorTreeBaseINS_10BasicBlockELb1EEEEEvRT_NS_8ArrayRefINS5_10UpdateTypeEEE
00000000008cb110 w _ZN4llvm17DominatorTreeBaseINS_10BasicBlockELb1EE12applyUpdatesENS_8ArrayRefINS_3cfg6UpdateIPS1_EEEE
00000000008cb120 w _ZN4llvm14DomTreeBuilder20CalculateWithUpdatesINS_17DominatorTreeBaseINS_10BasicBlockELb0EEEEEvRT_NS_8ArrayRefINS5_10UpdateTypeEEE
00000000008cb4d0 w _ZN4llvm17DominatorTreeBaseINS_10BasicBlockELb0EE11recalculateERNS_8FunctionENS_8ArrayRefINS_3cfg6UpdateIPS1_EEEE
00000000008cbbe0 w _ZN4llvm14DomTreeBuilder12ApplyUpdatesINS_17DominatorTreeBaseINS_10BasicBlockELb0EEEEEvRT_NS_8ArrayRefINS5_10UpdateTypeEEE
00000000008cbbf0 w _ZN4llvm17DominatorTreeBaseINS_10BasicBlockELb0EE12applyUpdatesENS_8ArrayRefINS_3cfg6UpdateIPS1_EEEE
00000000008cbc00 w _ZSt13__adjust_heapIPPN4llvm15DomTreeNodeBaseINS0_10BasicBlockEEElS4_N9__gnu_cxx5__ops15_Iter_comp_iterIZNS0_14DomTreeBuilder11SemiNCAInfoINS0_17DominatorTreeBaseIS2_Lb0EEEE16VerifyDFSNumbersERKSC_EUlS4_S4_E0_EEEvT_T0_SJ_T1_T2_
00000000008cbd30 w _ZSt16__introsort_loopIPPN4llvm15DomTreeNodeBaseINS0_10BasicBlockEEElN9__gnu_cxx5__ops15_Iter_comp_iterIZNS0_14DomTreeBuilder11SemiNCAInfoINS0_17DominatorTreeBaseIS2_Lb0EEEE16VerifyDFSNumbersERKSC_EUlS4_S4_E0_EEEvT_SI_T0_T1_
00000000008cc360 w _ZN4llvm14DomTreeBuilder6VerifyINS_17DominatorTreeBaseINS_10BasicBlockELb0EEEEEbRKT_NS5_17VerificationLevelE
00000000008cc860 w _ZNK4llvm17DominatorTreeBaseINS_10BasicBlockELb0EE6verifyENS2_17VerificationLevelE
00000000008cc870 w _ZSt13__adjust_heapIPPN4llvm15DomTreeNodeBaseINS0_10BasicBlockEEElS4_N9__gnu_cxx5__ops15_Iter_comp_iterIZNS0_14DomTreeBuilder11SemiNCAInfoINS0_17DominatorTreeBaseIS2_Lb1EEEE16VerifyDFSNumbersERKSC_EUlS4_S4_E0_EEEvT_T0_SJ_T1_T2_
00000000008cc9a0 w _ZSt16__introsort_loopIPPN4llvm15DomTreeNodeBaseINS0_10BasicBlockEEElN9__gnu_cxx5__ops15_Iter_comp_iterIZNS0_14DomTreeBuilder11SemiNCAInfoINS0_17DominatorTreeBaseIS2_Lb1EEEE16VerifyDFSNumbersERKSC_EUlS4_S4_E0_EEEvT_SI_T0_T1_
00000000008ccfd0 w _ZN4llvm14DomTreeBuilder6VerifyINS_17DominatorTreeBaseINS_10BasicBlockELb1EEEEEbRKT_NS5_17VerificationLevelE
00000000008cd630 w _ZNK4llvm17DominatorTreeBaseINS_10BasicBlockELb1EE6verifyENS2_17VerificationLevelE
00000000008cd650 T _ZN4llvm17StrToRoundingModeENS_9StringRefE
00000000008cd7b0 T _ZN4llvm17RoundingModeToStrENS_2fp12RoundingModeE
00000000008cd880 T _ZN4llvm22StrToExceptionBehaviorENS_9StringRefE
00000000008cd950 T _ZN4llvm22ExceptionBehaviorToStrENS_2fp17ExceptionBehaviorE
00000000008d0c80 w _ZN4llvm21SymbolTableListTraitsINS_10BasicBlockEE12getListOwnerEv
00000000008d0c90 w _ZN4llvm21SymbolTableListTraitsINS_10BasicBlockEE7getListEPNS_8FunctionE
00000000008d0ca0 w _ZN4llvm21SymbolTableListTraitsINS_10BasicBlockEE9getSymTabEPNS_8FunctionE
00000000008d0cc0 w _ZN4llvm21SymbolTableListTraitsINS_10BasicBlockEE13addNodeToListEPS1_
00000000008d0d10 w _ZN4llvm21SymbolTableListTraitsINS_10BasicBlockEE18removeNodeFromListEPS1_
00000000008d0d60 w _ZN4llvm21SymbolTableListTraitsINS_10BasicBlockEE5toPtrEPNS_16ValueSymbolTableE
00000000008d0d70 w _ZN4llvm21SymbolTableListTraitsINS_10BasicBlockEE5toPtrERNS_16ValueSymbolTableE
00000000008d0d80 T _ZN4llvm8ArgumentC1EPNS_4TypeERKNS_5TwineEPNS_8FunctionEj
00000000008d0dc0 T _ZN4llvm8Argument9setParentEPNS_8FunctionE
00000000008d0dd0 T _ZNK4llvm8Argument16hasSwiftSelfAttrEv
00000000008d0e20 T _ZNK4llvm8Argument17hasSwiftErrorAttrEv
00000000008d0e70 T _ZNK4llvm8Argument22hasByValOrInAllocaAttrEv
00000000008d0ef0 T _ZNK4llvm8Argument17getParamAlignmentEv
00000000008d0f30 T _ZNK4llvm8Argument13getParamAlignEv
00000000008d0f50 T _ZNK4llvm8Argument23getDereferenceableBytesEv
00000000008d0f70 T _ZNK4llvm8Argument29getDereferenceableOrNullBytesEv
00000000008d0f90 T _ZNK4llvm8Argument15onlyReadsMemoryEv
00000000008d1010 T _ZNK4llvm8Argument12hasAttributeENS_9Attribute8AttrKindE
00000000008d1060 T _ZNK4llvm8Argument12hasByValAttrEv
00000000008d1080 T _ZNK4llvm8Argument15hasInAllocaAttrEv
00000000008d10a0 T _ZNK4llvm8Argument11hasNestAttrEv
00000000008d10c0 T _ZNK4llvm8Argument14hasNoAliasAttrEv
00000000008d10e0 T _ZNK4llvm8Argument16hasNoCaptureAttrEv
00000000008d1100 T _ZNK4llvm8Argument16hasStructRetAttrEv
00000000008d1120 T _ZNK4llvm8Argument12hasInRegAttrEv
00000000008d1130 T _ZNK4llvm8Argument15hasReturnedAttrEv
00000000008d1140 T _ZNK4llvm8Argument11hasZExtAttrEv
00000000008d1150 T _ZNK4llvm8Argument11hasSExtAttrEv
00000000008d1160 T _ZNK4llvm8Argument12getAttributeENS_9Attribute8AttrKindE
00000000008d11b0 T _ZNK4llvm8Function10getContextEv
00000000008d11c0 T _ZN4llvm8Argument8addAttrsERNS_11AttrBuilderE
00000000008d1230 T _ZNK4llvm8Function19getInstructionCountEv
00000000008d1600 T _ZN4llvm8Function16removeFromParentEv
00000000008d1660 T _ZNK4llvm8Function18BuildLazyArgumentsEv
00000000008d1740 T _ZNK4llvm8Argument17getParamByValTypeEv
00000000008d17b0 T _ZN4llvm8Function14clearArgumentsEv
00000000008d1860 T _ZN4llvm8Function21stealArgumentListFromERS0_
00000000008d1a70 T _ZN4llvm8Function17dropAllReferencesEv
00000000008d1b90 T _ZN4llvm8Function12addAttributeEjNS_9Attribute8AttrKindE
00000000008d1c00 T _ZN4llvm8Function12addAttributeEjNS_9AttributeE
00000000008d1c70 T _ZN4llvm8Function13addAttributesEjRKNS_11AttrBuilderE
00000000008d1ce0 T _ZN4llvm8Function12addParamAttrEjNS_9Attribute8AttrKindE
00000000008d1d50 T _ZN4llvm8Argument7addAttrENS_9Attribute8AttrKindE
00000000008d1d70 T _ZN4llvm8Function12addParamAttrEjNS_9AttributeE
00000000008d1df0 T _ZN4llvm8Argument7addAttrENS_9AttributeE
00000000008d1e10 T _ZN4llvm8Function13addParamAttrsEjRKNS_11AttrBuilderE
00000000008d1e80 T _ZN4llvm8Function15removeAttributeEjNS_9Attribute8AttrKindE
00000000008d1ef0 T _ZN4llvm8Function15removeAttributeEjNS_9StringRefE
00000000008d1f70 T _ZN4llvm8Function16removeAttributesEjRKNS_11AttrBuilderE
00000000008d1fe0 T _ZN4llvm8Function15removeParamAttrEjNS_9Attribute8AttrKindE
00000000008d2050 T _ZN4llvm8Argument10removeAttrENS_9Attribute8AttrKindE
00000000008d2070 T _ZN4llvm8Function15removeParamAttrEjNS_9StringRefE
00000000008d20e0 T _ZN4llvm8Function16removeParamAttrsEjRKNS_11AttrBuilderE
00000000008d2150 T _ZN4llvm8Function22addDereferenceableAttrEjm
00000000008d21c0 T _ZN4llvm8Function27addDereferenceableParamAttrEjm
00000000008d2230 T _ZN4llvm8Function28addDereferenceableOrNullAttrEjm
00000000008d22a0 T _ZN4llvm8Function33addDereferenceableOrNullParamAttrEjm
00000000008d2310 T _ZNK4llvm8Function5getGCB5cxx11Ev
00000000008d2330 T _ZN4llvm9Intrinsic7getNameEj
00000000008d2360 T _ZN4llvm9Intrinsic7getNameB5cxx11EjNS_8ArrayRefIPNS_4TypeEEE
00000000008d2560 T _ZN4llvm9Intrinsic28getIntrinsicInfoTableEntriesEjRNS_15SmallVectorImplINS0_13IITDescriptorEEE
00000000008d26d0 T _ZN4llvm9Intrinsic7getTypeERNS_11LLVMContextEjNS_8ArrayRefIPNS_4TypeEEE
00000000008d28b0 T _ZN4llvm9Intrinsic12isOverloadedEj
00000000008d28d0 T _ZN4llvm8Function17lookupIntrinsicIDENS_9StringRefE
00000000008d2b00 T _ZN4llvm8Function22recalculateIntrinsicIDEv
00000000008d2b50 T _ZN4llvm9Intrinsic6isLeafEj
00000000008d2b70 T _ZN4llvm9Intrinsic13getAttributesERNS_11LLVMContextEj
00000000008d7be0 T _ZN4llvm8FunctionC1EPNS_12FunctionTypeENS_11GlobalValue12LinkageTypesEjRKNS_5TwineEPNS_6ModuleE
00000000008d7e40 T _ZN4llvm8Function6CreateEPNS_12FunctionTypeENS_11GlobalValue12LinkageTypesERKNS_5TwineERNS_6ModuleE
00000000008d7ea0 T _ZN4llvm9Intrinsic14getDeclarationEPNS_6ModuleEjNS_8ArrayRefIPNS_4TypeEEE
00000000008d7f40 T _ZN4llvm9Intrinsic25getIntrinsicForGCCBuiltinEPKcNS_9StringRefE
00000000008d8950 T _ZN4llvm9Intrinsic24getIntrinsicForMSBuiltinEPKcNS_9StringRefE
00000000008d8af0 T _ZN4llvm9Intrinsic23matchIntrinsicSignatureEPNS_12FunctionTypeERNS_8ArrayRefINS0_13IITDescriptorEEERNS_15SmallVectorImplIPNS_4TypeEEE
00000000008d8c60 T _ZN4llvm9Intrinsic20matchIntrinsicVarArgEbRNS_8ArrayRefINS0_13IITDescriptorEEE
00000000008d8ca0 T _ZN4llvm9Intrinsic25remangleIntrinsicFunctionEPNS_8FunctionE
00000000008d8eb0 T _ZNK4llvm8Function15hasAddressTakenEPPKNS_4UserE
00000000008d8f30 T _ZNK4llvm8Function18isDefTriviallyDeadEv
00000000008d8fe0 T _ZNK4llvm8Function29callsFunctionThatReturnsTwiceEv
00000000008d90f0 T _ZNK4llvm8Function16getPersonalityFnEv
00000000008d9120 T _ZNK4llvm8Function13getPrefixDataEv
00000000008d9150 T _ZNK4llvm8Function15getPrologueDataEv
00000000008d9180 T _ZN4llvm8Function19allocHungoffUselistEv
00000000008d9390 T _ZN4llvm8Function23setValueSubclassDataBitEjb
00000000008d93c0 T _ZN4llvm8Function7clearGCEv
00000000008d9400 T _ZN4llvm8FunctionD1Ev
00000000008d94d0 T _ZN4llvm8Function15eraseFromParentEv
00000000008d9540 T _ZN4llvm8Function16setPersonalityFnEPNS_8ConstantE
00000000008d96e0 T _ZN4llvm8Function13setPrefixDataEPNS_8ConstantE
00000000008d9880 T _ZN4llvm8Function15setPrologueDataEPNS_8ConstantE
00000000008d9a20 T _ZN4llvm8Function5setGCENSt7__cxx1112basic_stringIcSt11char_traitsIcESaIcEEE
00000000008d9af0 T _ZN4llvm8Function18copyAttributesFromEPKS0_
00000000008d9ce0 T _ZNK4llvm8Function13getEntryCountEb
00000000008d9e30 T _ZN4llvm8Function16setSectionPrefixENS_9StringRefE
00000000008d9ea0 T _ZNK4llvm8Function16getSectionPrefixEv
00000000008d9f00 T _ZNK4llvm8Function20nullPointerIsDefinedEv
00000000008d9f70 T _ZN4llvm20NullPointerIsDefinedEPKNS_8FunctionEj
00000000008d9f90 T _ZNK4llvm8Argument14hasNonNullAttrEv
00000000008da070 T _ZNK4llvm8Function14getImportGUIDsEv
00000000008da790 T _ZN4llvm8Function13setEntryCountENS0_12ProfileCountEPKNS_8DenseSetImNS_12DenseMapInfoImEEEE
00000000008da850 T _ZN4llvm8Function13setEntryCountEmNS0_16ProfileCountTypeEPKNS_8DenseSetImNS_12DenseMapInfoImEEEE
00000000008da860 T _ZN4llvm14GVMaterializerD1Ev
00000000008da870 T _ZN4llvm14GVMaterializerD0Ev
00000000008da890 T _ZNK4llvm11GlobalValue16isMaterializableEv
00000000008da8b0 T _ZN4llvm11GlobalValue11materializeEv
00000000008da900 T _ZNK4llvm11GlobalValue15getAddressSpaceEv
00000000008da910 T _ZN4llvm12GlobalObject12setAlignmentENS_10MaybeAlignE
00000000008da940 T _ZN4llvm12GlobalObject12setAlignmentEj
00000000008da970 T _ZN4llvm11GlobalValue19getGlobalIdentifierB5cxx11ENS_9StringRefENS0_12LinkageTypesES1_
00000000008dac70 T _ZNK4llvm11GlobalValue19getGlobalIdentifierB5cxx11Ev
00000000008dad00 T _ZNK4llvm11GlobalValue12getPartitionEv
00000000008db340 T _ZN4llvm11GlobalValue12setPartitionENS_9StringRefE
00000000008db9f0 T _ZN4llvm11GlobalValue18copyAttributesFromEPKS0_
00000000008dba90 T _ZNK4llvm12GlobalObject14getSectionImplEv
00000000008dc0b0 T _ZN4llvm12GlobalObject10setSectionENS_9StringRefE
00000000008dc760 T _ZN4llvm12GlobalObject18copyAttributesFromEPKS0_
00000000008dc7f0 T _ZNK4llvm11GlobalValue13isDeclarationEv
00000000008dc840 T _ZNK4llvm11GlobalValue19isAbsoluteSymbolRefEv
00000000008dc880 T _ZNK4llvm11GlobalValue22getAbsoluteSymbolRangeEv
00000000008dc930 T _ZNK4llvm11GlobalValue27canBeOmittedFromSymbolTableEv
00000000008dc970 T _ZN4llvm14GlobalVariableC2EPNS_4TypeEbNS_11GlobalValue12LinkageTypesEPNS_8ConstantERKNS_5TwineENS3_15ThreadLocalModeEjb
00000000008dcaf0 T _ZN4llvm14GlobalVariableC2ERNS_6ModuleEPNS_4TypeEbNS_11GlobalValue12LinkageTypesEPNS_8ConstantERKNS_5TwineEPS0_NS5_15ThreadLocalModeEjb
00000000008dccf0 T _ZN4llvm14GlobalVariable16removeFromParentEv
00000000008dcd30 T _ZN4llvm14GlobalVariable14setInitializerEPNS_8ConstantE
00000000008dce20 T _ZN4llvm14GlobalVariable18copyAttributesFromEPKS0_
00000000008dce70 T _ZN4llvm14GlobalVariable17dropAllReferencesEv
00000000008dcef0 T _ZN4llvm14GlobalVariable15eraseFromParentEv
00000000008dcf50 T _ZN4llvm20GlobalIndirectSymbolC1EPNS_4TypeENS_5Value7ValueTyEjNS_11GlobalValue12LinkageTypesERKNS_5TwineEPNS_8ConstantE
00000000008dd080 T _ZN4llvm11GlobalAliasC2EPNS_4TypeEjNS_11GlobalValue12LinkageTypesERKNS_5TwineEPNS_8ConstantEPNS_6ModuleE
00000000008dd0f0 T _ZN4llvm11GlobalAlias6createEPNS_4TypeEjNS_11GlobalValue12LinkageTypesERKNS_5TwineEPNS_8ConstantEPNS_6ModuleE
00000000008dd160 T _ZN4llvm11GlobalAlias6createEPNS_4TypeEjNS_11GlobalValue12LinkageTypesERKNS_5TwineEPNS_6ModuleE
00000000008dd170 T _ZN4llvm11GlobalAlias6createEPNS_4TypeEjNS_11GlobalValue12LinkageTypesERKNS_5TwineEPS3_
00000000008dd180 T _ZN4llvm11GlobalAlias6createENS_11GlobalValue12LinkageTypesERKNS_5TwineEPS1_
00000000008dd1b0 T _ZN4llvm11GlobalAlias6createERKNS_5TwineEPNS_11GlobalValueE
00000000008dd1d0 T _ZN4llvm11GlobalAlias16removeFromParentEv
00000000008dd210 T _ZN4llvm11GlobalAlias15eraseFromParentEv
00000000008dd260 T _ZN4llvm11GlobalAlias10setAliaseeEPNS_8ConstantE
00000000008dd2d0 T _ZN4llvm11GlobalIFuncC2EPNS_4TypeEjNS_11GlobalValue12LinkageTypesERKNS_5TwineEPNS_8ConstantEPNS_6ModuleE
00000000008dd340 T _ZN4llvm11GlobalIFunc6createEPNS_4TypeEjNS_11GlobalValue12LinkageTypesERKNS_5TwineEPNS_8ConstantEPNS_6ModuleE
00000000008dd3b0 T _ZN4llvm11GlobalIFunc16removeFromParentEv
00000000008dd3f0 T _ZN4llvm11GlobalValue16removeFromParentEv
00000000008dd430 T _ZN4llvm11GlobalIFunc15eraseFromParentEv
00000000008dd480 T _ZN4llvm11GlobalValue15eraseFromParentEv
00000000008ddce0 T _ZNK4llvm20GlobalIndirectSymbol13getBaseObjectEv
00000000008ddd60 T _ZNK4llvm11GlobalValue12getAlignmentEv
00000000008dddd0 T _ZNK4llvm11GlobalValue10getSectionEv
00000000008dde20 T _ZNK4llvm11GlobalValue20canIncreaseAlignmentEv
00000000008ddf50 T _ZNK4llvm11GlobalValue9getComdatEv
00000000008ddfa0 T _ZNK4llvm11GlobalValue13getBaseObjectEv
00000000008de4b0 T _ZN4llvm13IRBuilderBase18CreateGlobalStringENS_9StringRefERKNS_5TwineEj
00000000008de560 T _ZNK4llvm13IRBuilderBase28getCurrentFunctionReturnTypeEv
00000000008de580 T _ZN4llvm13IRBuilderBase21getCastedInt8PtrValueEPNS_5ValueE
00000000008de6e0 T _ZN4llvm13IRBuilderBase12CreateMemSetEPNS_5ValueES2_S2_NS_10MaybeAlignEbPNS_6MDNodeES5_S5_
00000000008de940 T _ZN4llvm13IRBuilderBase34CreateElementUnorderedAtomicMemSetEPNS_5ValueES2_S2_NS_5AlignEjPNS_6MDNodeES5_S5_
00000000008deb30 T _ZN4llvm13IRBuilderBase12CreateMemCpyEPNS_5ValueENS_10MaybeAlignES2_S3_S2_bPNS_6MDNodeES5_S5_S5_
00000000008dee40 T _ZN4llvm13IRBuilderBase12CreateMemCpyEPNS_5ValueEjS2_jS2_bPNS_6MDNodeES4_S4_S4_
00000000008deed0 T _ZN4llvm13IRBuilderBase34CreateElementUnorderedAtomicMemCpyEPNS_5ValueEjS2_jS2_jPNS_6MDNodeES4_S4_S4_
00000000008df230 T _ZN4llvm13IRBuilderBase13CreateMemMoveEPNS_5ValueENS_10MaybeAlignES2_S3_S2_bPNS_6MDNodeES5_S5_
00000000008df510 T _ZN4llvm13IRBuilderBase35CreateElementUnorderedAtomicMemMoveEPNS_5ValueEjS2_jS2_jPNS_6MDNodeES4_S4_S4_
00000000008df7c0 T _ZN4llvm13IRBuilderBase16CreateFAddReduceEPNS_5ValueES2_
00000000008df870 T _ZN4llvm13IRBuilderBase16CreateFMulReduceEPNS_5ValueES2_
00000000008df920 T _ZN4llvm13IRBuilderBase15CreateAddReduceEPNS_5ValueE
00000000008df9b0 T _ZN4llvm13IRBuilderBase15CreateMulReduceEPNS_5ValueE
00000000008dfa40 T _ZN4llvm13IRBuilderBase15CreateAndReduceEPNS_5ValueE
00000000008dfad0 T _ZN4llvm13IRBuilderBase14CreateOrReduceEPNS_5ValueE
00000000008dfb60 T _ZN4llvm13IRBuilderBase15CreateXorReduceEPNS_5ValueE
00000000008dfbf0 T _ZN4llvm13IRBuilderBase18CreateIntMaxReduceEPNS_5ValueEb
00000000008dfc90 T _ZN4llvm13IRBuilderBase18CreateIntMinReduceEPNS_5ValueEb
00000000008dfd30 T _ZN4llvm13IRBuilderBase17CreateFPMaxReduceEPNS_5ValueEb
00000000008dfdf0 T _ZN4llvm13IRBuilderBase17CreateFPMinReduceEPNS_5ValueEb
00000000008dfeb0 T _ZN4llvm13IRBuilderBase19CreateLifetimeStartEPNS_5ValueEPNS_11ConstantIntE
00000000008dff90 T _ZN4llvm13IRBuilderBase17CreateLifetimeEndEPNS_5ValueEPNS_11ConstantIntE
00000000008e0070 T _ZN4llvm13IRBuilderBase20CreateInvariantStartEPNS_5ValueEPNS_11ConstantIntE
00000000008e0150 T _ZN4llvm13IRBuilderBase16CreateAssumptionEPNS_5ValueE
00000000008e01e0 T _ZN4llvm13IRBuilderBase21CreateMaskedIntrinsicEjNS_8ArrayRefIPNS_5ValueEEENS1_IPNS_4TypeEEERKNS_5TwineE
00000000008e0240 T _ZN4llvm13IRBuilderBase16CreateMaskedLoadEPNS_5ValueEjS2_S2_RKNS_5TwineE
00000000008e0330 T _ZN4llvm13IRBuilderBase17CreateMaskedStoreEPNS_5ValueES2_jS2_
00000000008e0400 T _ZN4llvm13IRBuilderBase18CreateMaskedGatherEPNS_5ValueEjS2_S2_RKNS_5TwineE
00000000008e0560 T _ZN4llvm13IRBuilderBase19CreateMaskedScatterEPNS_5ValueES2_jS2_
00000000008e0690 T _ZN4llvm13IRBuilderBase14CreateGCResultEPNS_11InstructionEPNS_4TypeERKNS_5TwineE
00000000008e0720 T _ZN4llvm13IRBuilderBase16CreateGCRelocateEPNS_11InstructionEiiPNS_4TypeERKNS_5TwineE
00000000008e07f0 T _ZN4llvm13IRBuilderBase20CreateUnaryIntrinsicEjPNS_5ValueEPNS_11InstructionERKNS_5TwineE
00000000008e0890 T _ZN4llvm13IRBuilderBase21CreateBinaryIntrinsicEjPNS_5ValueES2_PNS_11InstructionERKNS_5TwineE
00000000008e0950 T _ZN4llvm13IRBuilderBase15CreateIntrinsicEjNS_8ArrayRefIPNS_4TypeEEENS1_IPNS_5ValueEEEPNS_11InstructionERKNS_5TwineE
00000000008e09d0 w _ZNSt6vectorIPN4llvm5ValueESaIS2_EE12emplace_backIJS2_EEEvDpOT_
00000000008e0b00 w _ZNSt6vectorIPN4llvm5ValueESaIS2_EE17_M_realloc_insertIJRKS2_EEEvN9__gnu_cxx17__normal_iteratorIPS2_S4_EEDpOT_
00000000008e11d0 w _ZNSt6vectorIPN4llvm5ValueESaIS2_EE15_M_range_insertIPKS2_EEvN9__gnu_cxx17__normal_iteratorIPS2_S4_EET_SC_St20forward_iterator_tag
00000000008e16e0 T _ZN4llvm13IRBuilderBase22CreateGCStatepointCallEmjPNS_5ValueEjNS_8ArrayRefINS_3UseEEES5_S5_NS3_IS2_EERKNS_5TwineE
00000000008e1800 T _ZN4llvm13IRBuilderBase24CreateGCStatepointInvokeEmjPNS_5ValueEPNS_10BasicBlockES4_jNS_8ArrayRefINS_3UseEEES7_S7_NS5_IS2_EERKNS_5TwineE
00000000008e1b50 T _ZN4llvm13IRBuilderBase22CreateGCStatepointCallEmjPNS_5ValueENS_8ArrayRefINS_3UseEEENS3_IS2_EES6_RKNS_5TwineE
00000000008e1c60 T _ZN4llvm13IRBuilderBase24CreateGCStatepointInvokeEmjPNS_5ValueEPNS_10BasicBlockES4_NS_8ArrayRefINS_3UseEEENS5_IS2_EES8_RKNS_5TwineE
00000000008e1fa0 T _ZN4llvm13IRBuilderBase22CreateGCStatepointCallEmjPNS_5ValueENS_8ArrayRefIS2_EES4_S4_RKNS_5TwineE
00000000008e20b0 T _ZN4llvm13IRBuilderBase24CreateGCStatepointInvokeEmjPNS_5ValueEPNS_10BasicBlockES4_NS_8ArrayRefIS2_EES6_S6_RKNS_5TwineE
00000000008e2460 T _ZN4llvm15PrintModulePassC1Ev
00000000008e24e0 T _ZN4llvm15PrintModulePassC2ERNS_11raw_ostreamERKNSt7__cxx1112basic_stringIcSt11char_traitsIcESaIcEEEb
00000000008e25c0 T _ZN4llvm15PrintModulePass3runERNS_6ModuleERNS_15AnalysisManagerIS1_JEEE
00000000008e2990 T _ZN4llvm17PrintFunctionPassC1Ev
00000000008e2a10 T _ZN4llvm17PrintFunctionPassC2ERNS_11raw_ostreamERKNSt7__cxx1112basic_stringIcSt11char_traitsIcESaIcEEE
00000000008e2af0 T _ZN4llvm17PrintFunctionPass3runERNS_8FunctionERNS_15AnalysisManagerIS1_JEEE
00000000008e2ee0 T _ZN4llvm36initializePrintModulePassWrapperPassERNS_12PassRegistryE
00000000008e2f90 T _ZN4llvm38initializePrintFunctionPassWrapperPassERNS_12PassRegistryE
00000000008e3040 T _ZN4llvm21createPrintModulePassERNS_11raw_ostreamERKNSt7__cxx1112basic_stringIcSt11char_traitsIcESaIcEEEb
00000000008e30b0 T _ZN4llvm23createPrintFunctionPassERNS_11raw_ostreamERKNSt7__cxx1112basic_stringIcSt11char_traitsIcESaIcEEE
00000000008e3110 T _ZN4llvm16isIRPrintingPassEPNS_4PassE
00000000008e3140 T _ZN4llvm9InlineAsmC2EPNS_12FunctionTypeERKNSt7__cxx1112basic_stringIcSt11char_traitsIcESaIcEEESA_bbNS0_10AsmDialectE
00000000008e3310 T _ZNK4llvm9InlineAsm15getFunctionTypeEv
00000000008e3320 T _ZN4llvm9InlineAsm14ConstraintInfo17selectAlternativeEj
00000000008e3520 w _ZNSt6vectorIN4llvm9InlineAsm17SubConstraintInfoESaIS2_EE17_M_default_appendEm
00000000008e36a0 w _ZNSt6vectorIN4llvm9InlineAsm14ConstraintInfoESaIS2_EE17_M_realloc_insertIJRKS2_EEEvN9__gnu_cxx17__normal_iteratorIPS2_S4_EEDpOT_
00000000008e3d00 w _ZN4llvm12hash_combineIJPNS_11PointerTypeEjEEENS_9hash_codeEDpRKT_
00000000008e3e20 w _ZSt9__find_ifIPKcN9__gnu_cxx5__ops16_Iter_equals_valIS0_EEET_S6_S6_T0_St26random_access_iterator_tag
00000000008e3ed0 T _ZN4llvm9InlineAsm14ConstraintInfo5ParseENS_9StringRefERSt6vectorIS1_SaIS1_EE
00000000008e4b40 T _ZN4llvm9InlineAsm16ParseConstraintsENS_9StringRefE
00000000008e5510 T _ZN4llvm9InlineAsm6VerifyEPNS_12FunctionTypeENS_9StringRefE
00000000008e5890 T _ZN4llvm9InlineAsm3getEPNS_12FunctionTypeENS_9StringRefES3_bbNS0_10AsmDialectE
00000000008e6bf0 T _ZN4llvm9InlineAsm15destroyConstantEv
00000000008e72d0 T _ZN4llvm11InstructionC1EPNS_4TypeEjPNS_3UseEjPS0_
00000000008e7350 T _ZN4llvm11InstructionC1EPNS_4TypeEjPNS_3UseEjPNS_10BasicBlockE
00000000008e73c0 T _ZN4llvm11InstructionD1Ev
00000000008e7400 T _ZN4llvm11Instruction9setParentEPNS_10BasicBlockE
00000000008e7410 T _ZNK4llvm11Instruction9getModuleEv
00000000008e7420 T _ZNK4llvm11Instruction11getFunctionEv
00000000008e7430 T _ZN4llvm11Instruction16removeFromParentEv
00000000008e7470 T _ZN4llvm11Instruction15eraseFromParentEv
00000000008e74c0 T _ZN4llvm11Instruction12insertBeforeEPS0_
00000000008e7510 T _ZN4llvm11Instruction11insertAfterEPS0_
00000000008e7590 T _ZN4llvm11Instruction10moveBeforeERNS_10BasicBlockENS_14ilist_iteratorINS_12ilist_detail12node_optionsIS0_Lb0ELb0EvEELb0ELb0EEE
00000000008e7610 T _ZN4llvm11Instruction10moveBeforeEPS0_
00000000008e7630 T _ZN4llvm11Instruction9moveAfterEPS0_
00000000008e7650 T _ZN4llvm11Instruction20setHasNoUnsignedWrapEb
00000000008e7680 T _ZN4llvm11Instruction18setHasNoSignedWrapEb
00000000008e76b0 T _ZN4llvm11Instruction10setIsExactEb
00000000008e76e0 T _ZNK4llvm11Instruction17hasNoUnsignedWrapEv
00000000008e76f0 T _ZNK4llvm11Instruction15hasNoSignedWrapEv
00000000008e7700 T _ZN4llvm11Instruction25dropPoisonGeneratingFlagsEv
00000000008e7750 T _ZNK4llvm11Instruction7isExactEv
00000000008e7760 T _ZN4llvm11Instruction7setFastEb
00000000008e77c0 T _ZN4llvm11Instruction18setHasAllowReassocEb
00000000008e77f0 T _ZN4llvm11Instruction12setHasNoNaNsEb
00000000008e7820 T _ZN4llvm11Instruction12setHasNoInfsEb
00000000008e7850 T _ZN4llvm11Instruction19setHasNoSignedZerosEb
00000000008e7880 T _ZN4llvm11Instruction21setHasAllowReciprocalEb
00000000008e78a0 T _ZN4llvm11Instruction16setHasApproxFuncEb
00000000008e78c0 T _ZN4llvm11Instruction16setFastMathFlagsENS_13FastMathFlagsE
00000000008e78e0 T _ZN4llvm11Instruction17copyFastMathFlagsENS_13FastMathFlagsE
00000000008e7900 T _ZNK4llvm11Instruction6isFastEv
00000000008e7920 T _ZNK4llvm11Instruction15hasAllowReassocEv
00000000008e7930 T _ZNK4llvm11Instruction9hasNoNaNsEv
00000000008e7940 T _ZNK4llvm11Instruction9hasNoInfsEv
00000000008e7950 T _ZNK4llvm11Instruction16hasNoSignedZerosEv
00000000008e7960 T _ZNK4llvm11Instruction18hasAllowReciprocalEv
00000000008e7970 T _ZNK4llvm11Instruction16hasAllowContractEv
00000000008e7980 T _ZNK4llvm11Instruction13hasApproxFuncEv
00000000008e7990 T _ZNK4llvm11Instruction16getFastMathFlagsEv
00000000008e79b0 T _ZN4llvm11Instruction17copyFastMathFlagsEPKS0_
00000000008e79d0 T _ZN4llvm11Instruction11copyIRFlagsEPKNS_5ValueEb
00000000008e7c90 T _ZN4llvm11Instruction10andIRFlagsEPKNS_5ValueE
00000000008e7f90 T _ZN4llvm11Instruction13getOpcodeNameEj
00000000008e83d0 T _ZNK4llvm11Instruction24isIdenticalToWhenDefinedEPKS0_
00000000008e84d0 T _ZNK4llvm11Instruction13isIdenticalToEPKS0_
00000000008e8500 T _ZNK4llvm11Instruction17isSameOperationAsEPKS0_j
00000000008e8860 T _ZNK4llvm11Instruction20isUsedOutsideOfBlockEPKNS_10BasicBlockE
00000000008e8900 T _ZNK4llvm11Instruction17mayReadFromMemoryEv
00000000008e8a00 T _ZNK4llvm11Instruction16mayWriteToMemoryEv
00000000008e8b40 T _ZNK4llvm11Instruction8isAtomicEv
00000000008e8b80 T _ZNK4llvm11Instruction13hasAtomicLoadEv
00000000008e8ba0 T _ZNK4llvm11Instruction14hasAtomicStoreEv
00000000008e8bc0 T _ZNK4llvm11Instruction8mayThrowEv
00000000008e8c30 T _ZNK4llvm11Instruction14isSafeToRemoveEv
00000000008e8c90 T _ZNK4llvm11Instruction20isLifetimeStartOrEndEv
00000000008e8cd0 T _ZNK4llvm11Instruction26getNextNonDebugInstructionEv
00000000008e8d40 T _ZNK4llvm11Instruction26getPrevNonDebugInstructionEv
00000000008e8db0 T _ZNK4llvm11Instruction13isAssociativeEv
00000000008e8df0 T _ZNK4llvm11Instruction16getNumSuccessorsEv
00000000008e8e90 T _ZNK4llvm11Instruction12getSuccessorEj
00000000008e8fa0 T _ZN4llvm11Instruction12setSuccessorEjPNS_10BasicBlockE
00000000008e9310 T _ZN4llvm11Instruction20replaceSuccessorWithEPNS_10BasicBlockES2_
00000000008e9380 T _ZN4llvm11Instruction16swapProfMetadataEv
00000000008e94a0 T _ZN4llvm11Instruction13setProfWeightEm
00000000008e9580 T _ZN4llvm11Instruction12copyMetadataERKS0_NS_8ArrayRefIjEE
00000000008e9de0 T _ZNK4llvm11Instruction5cloneEv
00000000008ea140 T _ZNK4llvm8CallSite9getCalleeEv
00000000008ea150 T _ZN4llvm10SelectInst18areInvalidOperandsEPNS_5ValueES2_S2_
00000000008ea200 T _ZN4llvm7PHINodeC1ERKS0_
00000000008ea3e0 T _ZN4llvm7PHINode19removeIncomingValueEjb
00000000008ea680 T _ZN4llvm7PHINode12growOperandsEv
00000000008ea6b0 T _ZNK4llvm7PHINode16hasConstantValueEv
00000000008ea760 T _ZNK4llvm7PHINode23hasConstantOrUndefValueEv
00000000008ea830 T _ZN4llvm14LandingPadInstC1ERKS0_
00000000008ea990 T _ZN4llvm14LandingPadInst4initEjRKNS_5TwineE
00000000008ea9d0 T _ZN4llvm14LandingPadInstC1EPNS_4TypeEjRKNS_5TwineEPNS_11InstructionE
00000000008eaa10 T _ZN4llvm14LandingPadInst6CreateEPNS_4TypeEjRKNS_5TwineEPNS_11InstructionE
00000000008eaa60 T _ZN4llvm14LandingPadInstC1EPNS_4TypeEjRKNS_5TwineEPNS_10BasicBlockE
00000000008eaaa0 T _ZN4llvm14LandingPadInst6CreateEPNS_4TypeEjRKNS_5TwineEPNS_10BasicBlockE
00000000008eaaf0 T _ZN4llvm14LandingPadInst12growOperandsEj
00000000008eab30 T _ZN4llvm14LandingPadInst9addClauseEPNS_8ConstantE
00000000008eac00 T _ZN4llvm8CallBase9getCallerEv
00000000008eac10 T _ZNK4llvm8CallBase34getNumSubclassExtraOperandsDynamicEv
00000000008eac20 T _ZNK4llvm8CallBase14isIndirectCallEv
00000000008eac50 T _ZNK4llvm8CallBase14isMustTailCallEv
00000000008eac70 T _ZNK4llvm8CallBase10isTailCallEv
00000000008eac90 T _ZNK4llvm8CallBase14getIntrinsicIDEv
00000000008eacb0 T _ZNK4llvm8CallBase21getReturnedArgOperandEv
00000000008ead70 T _ZNK4llvm8CallBase10hasRetAttrENS_9Attribute8AttrKindE
00000000008eadf0 T _ZNK4llvm8CallBase15isReturnNonNullEv
00000000008eae80 T _ZNK4llvm8CallBase12paramHasAttrEjNS_9Attribute8AttrKindE
00000000008eaf00 T _ZNK4llvm8CallBase25hasFnAttrOnCalledFunctionENS_9Attribute8AttrKindE
00000000008eaf70 T _ZNK4llvm8CallBase25hasFnAttrOnCalledFunctionENS_9StringRefE
00000000008eafe0 T _ZN4llvm8CallBase26populateBundleOperandInfosENS_8ArrayRefINS_17OperandBundleDefTIPNS_5ValueEEEEEj
00000000008eb190 T _ZN4llvm8CallInst4initEPNS_12FunctionTypeEPNS_5ValueENS_8ArrayRefIS4_EENS5_INS_17OperandBundleDefTIS4_EEEERKNS_5TwineE
00000000008eb300 T _ZN4llvm8CallInst4initEPNS_12FunctionTypeEPNS_5ValueERKNS_5TwineE
00000000008eb380 T _ZN4llvm8CallInstC1EPNS_12FunctionTypeEPNS_5ValueERKNS_5TwineEPNS_11InstructionE
00000000008eb3e0 T _ZN4llvm8CallInstC2EPNS_12FunctionTypeEPNS_5ValueERKNS_5TwineEPNS_10BasicBlockE
00000000008eb440 T _ZN4llvm8CallInstC1ERKS0_
00000000008eb5d0 T _ZN4llvm8CallInst6CreateEPS0_NS_8ArrayRefINS_17OperandBundleDefTIPNS_5ValueEEEEEPNS_11InstructionE
00000000008ebab0 T _ZN4llvm8CallInst16updateProfWeightEmm
00000000008ec020 T _ZN4llvm10InvokeInst4initEPNS_12FunctionTypeEPNS_5ValueEPNS_10BasicBlockES6_NS_8ArrayRefIS4_EENS7_INS_17OperandBundleDefTIS4_EEEERKNS_5TwineE
00000000008ec270 T _ZN4llvm10InvokeInstC1ERKS0_
00000000008ec410 T _ZN4llvm10InvokeInst6CreateEPS0_NS_8ArrayRefINS_17OperandBundleDefTIPNS_5ValueEEEEEPNS_11InstructionE
00000000008ec870 T _ZNK4llvm10InvokeInst17getLandingPadInstEv
00000000008ec880 T _ZN4llvm10CallBrInst23updateArgBlockAddressesEjPNS_10BasicBlockE
00000000008ecae0 T _ZN4llvm10CallBrInst4initEPNS_12FunctionTypeEPNS_5ValueEPNS_10BasicBlockENS_8ArrayRefIS6_EENS7_IS4_EENS7_INS_17OperandBundleDefTIS4_EEEERKNS_5TwineE
00000000008ecdd0 T _ZN4llvm10CallBrInstC1ERKS0_
00000000008ecf70 T _ZN4llvm10CallBrInst6CreateEPS0_NS_8ArrayRefINS_17OperandBundleDefTIPNS_5ValueEEEEEPNS_11InstructionE
00000000008ed5a0 T _ZN4llvm10ReturnInstC1ERKS0_
00000000008ed6d0 T _ZN4llvm10ReturnInstC2ERNS_11LLVMContextEPNS_5ValueEPNS_11InstructionE
00000000008ed7c0 T _ZN4llvm10ReturnInstC2ERNS_11LLVMContextEPNS_5ValueEPNS_10BasicBlockE
00000000008ed8b0 T _ZN4llvm10ReturnInstC2ERNS_11LLVMContextEPNS_10BasicBlockE
00000000008ed8f0 T _ZN4llvm10ResumeInstC1ERKS0_
00000000008ed9a0 T _ZN4llvm10ResumeInstC2EPNS_5ValueEPNS_11InstructionE
00000000008eda60 T _ZN4llvm10ResumeInstC2EPNS_5ValueEPNS_10BasicBlockE
00000000008edb20 T _ZN4llvm17CleanupReturnInstC2ERKS0_
00000000008edcc0 T _ZN4llvm17CleanupReturnInst4initEPNS_5ValueEPNS_10BasicBlockE
00000000008eddf0 T _ZN4llvm17CleanupReturnInstC1EPNS_5ValueEPNS_10BasicBlockEjPNS_11InstructionE
00000000008ede70 T _ZN4llvm17CleanupReturnInstC1EPNS_5ValueEPNS_10BasicBlockEjS4_
00000000008edef0 T _ZN4llvm15CatchReturnInst4initEPNS_5ValueEPNS_10BasicBlockE
00000000008edfd0 T _ZN4llvm15CatchReturnInstC1ERKS0_
00000000008ee0f0 T _ZN4llvm15CatchReturnInstC2EPNS_5ValueEPNS_10BasicBlockEPNS_11InstructionE
00000000008ee150 T _ZN4llvm15CatchReturnInstC1EPNS_5ValueEPNS_10BasicBlockES4_
00000000008ee1b0 T _ZN4llvm15CatchSwitchInst4initEPNS_5ValueEPNS_10BasicBlockEj
00000000008ee340 T _ZN4llvm15CatchSwitchInstC2EPNS_5ValueEPNS_10BasicBlockEjRKNS_5TwineEPNS_11InstructionE
00000000008ee3a0 T _ZN4llvm15CatchSwitchInstC1EPNS_5ValueEPNS_10BasicBlockEjRKNS_5TwineES4_
00000000008ee400 T _ZN4llvm15CatchSwitchInstC1ERKS0_
00000000008ee5c0 T _ZN4llvm15CatchSwitchInst12growOperandsEj
00000000008ee5f0 T _ZN4llvm15CatchSwitchInst10addHandlerEPNS_10BasicBlockE
00000000008ee6c0 T _ZN4llvm15CatchSwitchInst13removeHandlerENS_15mapped_iteratorIPNS_3UseEPFPNS_10BasicBlockEPNS_5ValueEES5_EE
00000000008ee7b0 T _ZN4llvm14FuncletPadInst4initEPNS_5ValueENS_8ArrayRefIS2_EERKNS_5TwineE
00000000008ee8d0 T _ZN4llvm14FuncletPadInstC2ERKS0_
00000000008eea40 T _ZN4llvm14FuncletPadInstC2ENS_11Instruction13FuncletPadOpsEPNS_5ValueENS_8ArrayRefIS4_EEjRKNS_5TwineEPS1_
00000000008eeaa0 T _ZN4llvm14FuncletPadInstC2ENS_11Instruction13FuncletPadOpsEPNS_5ValueENS_8ArrayRefIS4_EEjRKNS_5TwineEPNS_10BasicBlockE
00000000008eeb00 T _ZN4llvm15UnreachableInstC1ERNS_11LLVMContextEPNS_11InstructionE
00000000008eeb40 T _ZN4llvm15UnreachableInstC2ERNS_11LLVMContextEPNS_10BasicBlockE
00000000008eeb80 T _ZN4llvm10BranchInst8AssertOKEv
00000000008eeb90 T _ZN4llvm10BranchInstC2EPNS_10BasicBlockEPNS_11InstructionE
00000000008eec50 T _ZN4llvm10BranchInstC2EPNS_10BasicBlockES2_PNS_5ValueEPNS_11InstructionE
00000000008eedf0 T _ZN4llvm10BranchInstC2EPNS_10BasicBlockES2_
00000000008eeeb0 T _ZN4llvm10BranchInstC2EPNS_10BasicBlockES2_PNS_5ValueES2_
00000000008ef050 T _ZN4llvm10BranchInstC1ERKS0_
00000000008ef230 T _ZN4llvm10BranchInst14swapSuccessorsEv
00000000008ef250 T _ZN4llvm10AllocaInst12setAlignmentENS_10MaybeAlignE
00000000008ef280 T _ZN4llvm10AllocaInstC1EPNS_4TypeEjPNS_5ValueENS_10MaybeAlignERKNS_5TwineEPNS_11InstructionE
00000000008ef3e0 T _ZN4llvm10AllocaInstC1EPNS_4TypeEjPNS_5ValueERKNS_5TwineEPNS_11InstructionE
00000000008ef400 T _ZN4llvm10AllocaInstC2EPNS_4TypeEjRKNS_5TwineEPNS_11InstructionE
00000000008ef420 T _ZN4llvm10AllocaInstC2EPNS_4TypeEjPNS_5ValueENS_10MaybeAlignERKNS_5TwineEPNS_10BasicBlockE
00000000008ef580 T _ZN4llvm10AllocaInstC2EPNS_4TypeEjPNS_5ValueERKNS_5TwineEPNS_10BasicBlockE
00000000008ef5a0 T _ZN4llvm10AllocaInstC1EPNS_4TypeEjRKNS_5TwineEPNS_10BasicBlockE
00000000008ef5c0 T _ZNK4llvm10AllocaInst17isArrayAllocationEv
00000000008ef610 T _ZNK4llvm10AllocaInst23getAllocationSizeInBitsERKNS_10DataLayoutE
00000000008ef800 T _ZNK4llvm10AllocaInst14isStaticAllocaEv
00000000008ef840 T _ZN4llvm8LoadInst8AssertOKEv
00000000008ef850 T _ZN4llvm8LoadInst12setAlignmentENS_10MaybeAlignE
00000000008ef880 T _ZN4llvm8LoadInstC1EPNS_4TypeEPNS_5ValueERKNS_5TwineEbNS_10MaybeAlignENS_14AtomicOrderingEhPNS_11InstructionE
00000000008ef9a0 T _ZN4llvm8LoadInstC2EPNS_4TypeEPNS_5ValueERKNS_5TwineEbNS_10MaybeAlignEPNS_11InstructionE
00000000008ef9c0 T _ZN4llvm8LoadInstC1EPNS_4TypeEPNS_5ValueERKNS_5TwineEbPNS_11InstructionE
00000000008ef9e0 T _ZN4llvm8LoadInstC2EPNS_4TypeEPNS_5ValueERKNS_5TwineEPNS_11InstructionE
00000000008ef9f0 T _ZN4llvm8LoadInstC2EPNS_4TypeEPNS_5ValueERKNS_5TwineEbNS_10MaybeAlignENS_14AtomicOrderingEhPNS_10BasicBlockE
00000000008efb10 T _ZN4llvm8LoadInstC2EPNS_4TypeEPNS_5ValueERKNS_5TwineEbNS_10MaybeAlignEPNS_10BasicBlockE
00000000008efb30 T _ZN4llvm8LoadInstC1EPNS_4TypeEPNS_5ValueERKNS_5TwineEbPNS_10BasicBlockE
00000000008efb50 T _ZN4llvm8LoadInstC1EPNS_4TypeEPNS_5ValueERKNS_5TwineEPNS_10BasicBlockE
00000000008efb60 T _ZN4llvm9StoreInst8AssertOKEv
00000000008efb70 T _ZN4llvm9StoreInst12setAlignmentENS_10MaybeAlignE
00000000008efba0 T _ZN4llvm9StoreInstC1EPNS_5ValueES2_bNS_10MaybeAlignENS_14AtomicOrderingEhPNS_11InstructionE
00000000008efd30 T _ZN4llvm9StoreInstC2EPNS_5ValueES2_bNS_10MaybeAlignEPNS_11InstructionE
00000000008efd50 T _ZN4llvm9StoreInstC2EPNS_5ValueES2_bPNS_11InstructionE
00000000008efd70 T _ZN4llvm9StoreInstC1EPNS_5ValueES2_PNS_11InstructionE
00000000008efd80 T _ZN4llvm9StoreInstC2EPNS_5ValueES2_bNS_10MaybeAlignENS_14AtomicOrderingEhPNS_10BasicBlockE
00000000008eff10 T _ZN4llvm9StoreInstC1EPNS_5ValueES2_bNS_10MaybeAlignEPNS_10BasicBlockE
00000000008eff30 T _ZN4llvm9StoreInstC2EPNS_5ValueES2_bPNS_10BasicBlockE
00000000008eff50 T _ZN4llvm9StoreInstC1EPNS_5ValueES2_PNS_10BasicBlockE
00000000008eff60 T _ZN4llvm17AtomicCmpXchgInst4InitEPNS_5ValueES2_S2_NS_14AtomicOrderingES3_h
00000000008f00e0 T _ZN4llvm17AtomicCmpXchgInstC2EPNS_5ValueES2_S2_NS_14AtomicOrderingES3_hPNS_11InstructionE
00000000008f0220 T _ZN4llvm17AtomicCmpXchgInstC1EPNS_5ValueES2_S2_NS_14AtomicOrderingES3_hPNS_10BasicBlockE
00000000008f0360 T _ZN4llvm13AtomicRMWInst4InitENS0_5BinOpEPNS_5ValueES3_NS_14AtomicOrderingEh
00000000008f0470 T _ZN4llvm13AtomicRMWInstC2ENS0_5BinOpEPNS_5ValueES3_NS_14AtomicOrderingEhPNS_11InstructionE
00000000008f04e0 T _ZN4llvm13AtomicRMWInstC1ENS0_5BinOpEPNS_5ValueES3_NS_14AtomicOrderingEhPNS_10BasicBlockE
00000000008f0550 T _ZN4llvm13AtomicRMWInst16getOperationNameENS0_5BinOpE
00000000008f0650 T _ZN4llvm9FenceInstC2ERNS_11LLVMContextENS_14AtomicOrderingEhPNS_11InstructionE
00000000008f06b0 T _ZN4llvm9FenceInstC2ERNS_11LLVMContextENS_14AtomicOrderingEhPNS_10BasicBlockE
00000000008f0710 T _ZN4llvm17GetElementPtrInst4initEPNS_5ValueENS_8ArrayRefIS2_EERKNS_5TwineE
00000000008f0850 T _ZN4llvm17GetElementPtrInstC2ERKS0_
00000000008f0970 T _ZN4llvm17GetElementPtrInst14getIndexedTypeEPNS_4TypeENS_8ArrayRefIPNS_5ValueEEE
00000000008f0a30 T _ZN4llvm17GetElementPtrInst14getIndexedTypeEPNS_4TypeENS_8ArrayRefIPNS_8ConstantEEE
00000000008f0af0 T _ZN4llvm17GetElementPtrInst14getIndexedTypeEPNS_4TypeENS_8ArrayRefImEE
00000000008f0bb0 T _ZNK4llvm17GetElementPtrInst17hasAllZeroIndicesEv
00000000008f0c40 T _ZNK4llvm17GetElementPtrInst21hasAllConstantIndicesEv
00000000008f0c90 T _ZN4llvm17GetElementPtrInst13setIsInBoundsEb
00000000008f0cc0 T _ZNK4llvm17GetElementPtrInst10isInBoundsEv
00000000008f0cd0 T _ZNK4llvm17GetElementPtrInst24accumulateConstantOffsetERKNS_10DataLayoutERNS_5APIntE
00000000008f0ce0 T _ZN4llvm18ExtractElementInstC2EPNS_5ValueES2_RKNS_5TwineEPNS_11InstructionE
00000000008f0e00 T _ZN4llvm18ExtractElementInstC1EPNS_5ValueES2_RKNS_5TwineEPNS_10BasicBlockE
00000000008f0f20 T _ZN4llvm18ExtractElementInst15isValidOperandsEPKNS_5ValueES3_
00000000008f0f40 T _ZN4llvm17InsertElementInstC1EPNS_5ValueES2_S2_RKNS_5TwineEPNS_11InstructionE
00000000008f10d0 T _ZN4llvm17InsertElementInstC2EPNS_5ValueES2_S2_RKNS_5TwineEPNS_10BasicBlockE
00000000008f1260 T _ZN4llvm17InsertElementInst15isValidOperandsEPKNS_5ValueES3_S3_
00000000008f1290 T _ZN4llvm17ShuffleVectorInstC2EPNS_5ValueES2_S2_RKNS_5TwineEPNS_11InstructionE
00000000008f1450 T _ZN4llvm17ShuffleVectorInstC2EPNS_5ValueES2_S2_RKNS_5TwineEPNS_10BasicBlockE
00000000008f1610 T _ZN4llvm17ShuffleVectorInst15isValidOperandsEPKNS_5ValueES3_S3_
00000000008f1790 T _ZN4llvm17ShuffleVectorInst12getMaskValueEPKNS_8ConstantEj
00000000008f17e0 T _ZN4llvm17ShuffleVectorInst7commuteEv
00000000008f19f0 T _ZN4llvm17ShuffleVectorInst14getShuffleMaskEPKNS_8ConstantERNS_15SmallVectorImplIiEE
00000000008f1b10 T _ZN4llvm17ShuffleVectorInst18isSingleSourceMaskENS_8ArrayRefIiEE
00000000008f1b70 T _ZN4llvm17ShuffleVectorInst14isIdentityMaskENS_8ArrayRefIiEE
00000000008f1c00 T _ZN4llvm17ShuffleVectorInst13isReverseMaskENS_8ArrayRefIiEE
00000000008f1c80 T _ZN4llvm17ShuffleVectorInst18isZeroEltSplatMaskENS_8ArrayRefIiEE
00000000008f1ce0 T _ZN4llvm17ShuffleVectorInst12isSelectMaskENS_8ArrayRefIiEE
00000000008f1d50 T _ZN4llvm17ShuffleVectorInst15isTransposeMaskENS_8ArrayRefIiEE
00000000008f1db0 T _ZN4llvm17ShuffleVectorInst22isExtractSubvectorMaskENS_8ArrayRefIiEEiRi
00000000008f1e80 T _ZNK4llvm17ShuffleVectorInst21isIdentityWithPaddingEv
00000000008f1fd0 T _ZNK4llvm17ShuffleVectorInst21isIdentityWithExtractEv
00000000008f20e0 T _ZNK4llvm17ShuffleVectorInst8isConcatEv
00000000008f2220 T _ZN4llvm15InsertValueInst4initEPNS_5ValueES2_NS_8ArrayRefIjEERKNS_5TwineE
00000000008f2380 T _ZN4llvm16ExtractValueInst4initENS_8ArrayRefIjEERKNS_5TwineE
00000000008f2410 T _ZN4llvm16ExtractValueInst14getIndexedTypeEPNS_4TypeENS_8ArrayRefIjEE
00000000008f2470 T _ZN4llvm13UnaryOperator8AssertOKEv
00000000008f2480 T _ZN4llvm13UnaryOperatorC1ENS_11Instruction8UnaryOpsEPNS_5ValueEPNS_4TypeERKNS_5TwineEPS1_
00000000008f25b0 T _ZN4llvm13UnaryOperator6CreateENS_11Instruction8UnaryOpsEPNS_5ValueERKNS_5TwineEPS1_
00000000008f2610 T _ZN4llvm13UnaryOperator6CreateENS_11Instruction8UnaryOpsEPNS_5ValueERKNS_5TwineEPNS_10BasicBlockE
00000000008f2660 T _ZN4llvm13UnaryOperatorC1ENS_11Instruction8UnaryOpsEPNS_5ValueEPNS_4TypeERKNS_5TwineEPNS_10BasicBlockE
00000000008f2790 T _ZN4llvm14BinaryOperator8AssertOKEv
00000000008f27a0 T _ZN4llvm14BinaryOperatorC2ENS_11Instruction9BinaryOpsEPNS_5ValueES4_PNS_4TypeERKNS_5TwineEPS1_
00000000008f28d0 T _ZN4llvm14BinaryOperatorC2ENS_11Instruction9BinaryOpsEPNS_5ValueES4_PNS_4TypeERKNS_5TwineEPNS_10BasicBlockE
00000000008f2a00 T _ZN4llvm14BinaryOperator6CreateENS_11Instruction9BinaryOpsEPNS_5ValueES4_RKNS_5TwineEPS1_
00000000008f2a70 T _ZN4llvm14BinaryOperator6CreateENS_11Instruction9BinaryOpsEPNS_5ValueES4_RKNS_5TwineEPNS_10BasicBlockE
00000000008f2ac0 T _ZN4llvm14BinaryOperator9CreateNegEPNS_5ValueERKNS_5TwineEPNS_11InstructionE
00000000008f2b30 T _ZN4llvm14BinaryOperator9CreateNegEPNS_5ValueERKNS_5TwineEPNS_10BasicBlockE
00000000008f2ba0 T _ZN4llvm14BinaryOperator12CreateNSWNegEPNS_5ValueERKNS_5TwineEPNS_11InstructionE
00000000008f2bf0 T _ZN4llvm14BinaryOperator12CreateNSWNegEPNS_5ValueERKNS_5TwineEPNS_10BasicBlockE
00000000008f2c40 T _ZN4llvm14BinaryOperator12CreateNUWNegEPNS_5ValueERKNS_5TwineEPNS_11InstructionE
00000000008f2c90 T _ZN4llvm14BinaryOperator12CreateNUWNegEPNS_5ValueERKNS_5TwineEPNS_10BasicBlockE
00000000008f2ce0 T _ZN4llvm14BinaryOperator10CreateFNegEPNS_5ValueERKNS_5TwineEPNS_11InstructionE
00000000008f2d50 T _ZN4llvm14BinaryOperator10CreateFNegEPNS_5ValueERKNS_5TwineEPNS_10BasicBlockE
00000000008f2dc0 T _ZN4llvm14BinaryOperator9CreateNotEPNS_5ValueERKNS_5TwineEPNS_11InstructionE
00000000008f2e30 T _ZN4llvm14BinaryOperator9CreateNotEPNS_5ValueERKNS_5TwineEPNS_10BasicBlockE
00000000008f2ea0 T _ZN4llvm14BinaryOperator12swapOperandsEv
00000000008f2f00 T _ZNK4llvm14FPMathOperator13getFPAccuracyEv
00000000008f2f80 T _ZNK4llvm8CastInst13isIntegerCastEv
00000000008f2fd0 T _ZNK4llvm8CastInst14isLosslessCastEv
00000000008f3010 T _ZN4llvm8CastInst10isNoopCastENS_11Instruction7CastOpsEPNS_4TypeES4_RKNS_10DataLayoutE
00000000008f30c0 T _ZNK4llvm8CastInst10isNoopCastERKNS_10DataLayoutE
00000000008f30f0 T _ZN4llvm8CastInst20isEliminableCastPairENS_11Instruction7CastOpsES2_PNS_4TypeES4_S4_S4_S4_S4_
00000000008f3420 T _ZN4llvm8CastInst10isCastableEPNS_4TypeES2_
00000000008f3590 T _ZN4llvm8CastInst13isBitCastableEPNS_4TypeES2_
00000000008f36a0 T _ZN4llvm8CastInst26isBitOrNoopPointerCastableEPNS_4TypeES2_RKNS_10DataLayoutE
00000000008f3910 T _ZN4llvm8CastInst13getCastOpcodeEPKNS_5ValueEbPNS_4TypeEb
00000000008f3ae0 T _ZN4llvm8CastInst11castIsValidENS_11Instruction7CastOpsEPNS_5ValueEPNS_4TypeE
00000000008f3f90 T _ZN4llvm9TruncInstC1EPNS_5ValueEPNS_4TypeERKNS_5TwineEPNS_11InstructionE
00000000008f4040 T _ZN4llvm9TruncInstC1EPNS_5ValueEPNS_4TypeERKNS_5TwineEPNS_10BasicBlockE
00000000008f40f0 T _ZN4llvm8ZExtInstC2EPNS_5ValueEPNS_4TypeERKNS_5TwineEPNS_11InstructionE
00000000008f41a0 T _ZN4llvm8ZExtInstC1EPNS_5ValueEPNS_4TypeERKNS_5TwineEPNS_10BasicBlockE
00000000008f4250 T _ZN4llvm8SExtInstC2EPNS_5ValueEPNS_4TypeERKNS_5TwineEPNS_11InstructionE
00000000008f4300 T _ZN4llvm8SExtInstC1EPNS_5ValueEPNS_4TypeERKNS_5TwineEPNS_10BasicBlockE
00000000008f43b0 T _ZN4llvm11FPTruncInstC1EPNS_5ValueEPNS_4TypeERKNS_5TwineEPNS_11InstructionE
00000000008f4460 T _ZN4llvm11FPTruncInstC1EPNS_5ValueEPNS_4TypeERKNS_5TwineEPNS_10BasicBlockE
00000000008f4510 T _ZN4llvm9FPExtInstC1EPNS_5ValueEPNS_4TypeERKNS_5TwineEPNS_11InstructionE
00000000008f45c0 T _ZN4llvm9FPExtInstC2EPNS_5ValueEPNS_4TypeERKNS_5TwineEPNS_10BasicBlockE
00000000008f4670 T _ZN4llvm10UIToFPInstC2EPNS_5ValueEPNS_4TypeERKNS_5TwineEPNS_11InstructionE
00000000008f4720 T _ZN4llvm10UIToFPInstC2EPNS_5ValueEPNS_4TypeERKNS_5TwineEPNS_10BasicBlockE
00000000008f47d0 T _ZN4llvm10SIToFPInstC2EPNS_5ValueEPNS_4TypeERKNS_5TwineEPNS_11InstructionE
00000000008f4880 T _ZN4llvm10SIToFPInstC1EPNS_5ValueEPNS_4TypeERKNS_5TwineEPNS_10BasicBlockE
00000000008f4930 T _ZN4llvm10FPToUIInstC1EPNS_5ValueEPNS_4TypeERKNS_5TwineEPNS_11InstructionE
00000000008f49e0 T _ZN4llvm10FPToUIInstC1EPNS_5ValueEPNS_4TypeERKNS_5TwineEPNS_10BasicBlockE
00000000008f4a90 T _ZN4llvm10FPToSIInstC2EPNS_5ValueEPNS_4TypeERKNS_5TwineEPNS_11InstructionE
00000000008f4b40 T _ZN4llvm10FPToSIInstC1EPNS_5ValueEPNS_4TypeERKNS_5TwineEPNS_10BasicBlockE
00000000008f4bf0 T _ZN4llvm12PtrToIntInstC2EPNS_5ValueEPNS_4TypeERKNS_5TwineEPNS_11InstructionE
00000000008f4ca0 T _ZN4llvm12PtrToIntInstC1EPNS_5ValueEPNS_4TypeERKNS_5TwineEPNS_10BasicBlockE
00000000008f4d50 T _ZN4llvm12IntToPtrInstC2EPNS_5ValueEPNS_4TypeERKNS_5TwineEPNS_11InstructionE
00000000008f4e00 T _ZN4llvm12IntToPtrInstC1EPNS_5ValueEPNS_4TypeERKNS_5TwineEPNS_10BasicBlockE
00000000008f4eb0 T _ZN4llvm11BitCastInstC1EPNS_5ValueEPNS_4TypeERKNS_5TwineEPNS_11InstructionE
00000000008f4f60 T _ZN4llvm11BitCastInstC1EPNS_5ValueEPNS_4TypeERKNS_5TwineEPNS_10BasicBlockE
00000000008f54d0 T _ZN4llvm8CallInst10CreateFreeEPNS_5ValueEPNS_11InstructionE
00000000008f54f0 T _ZN4llvm8CallInst10CreateFreeEPNS_5ValueENS_8ArrayRefINS_17OperandBundleDefTIS2_EEEEPNS_11InstructionE
00000000008f5500 T _ZN4llvm8CallInst10CreateFreeEPNS_5ValueEPNS_10BasicBlockE
00000000008f5520 T _ZN4llvm8CallInst10CreateFreeEPNS_5ValueENS_8ArrayRefINS_17OperandBundleDefTIS2_EEEEPNS_10BasicBlockE
00000000008f5530 T _ZN4llvm17AddrSpaceCastInstC2EPNS_5ValueEPNS_4TypeERKNS_5TwineEPNS_11InstructionE
00000000008f55e0 T _ZN4llvm8CastInst6CreateENS_11Instruction7CastOpsEPNS_5ValueEPNS_4TypeERKNS_5TwineEPS1_
00000000008f5820 T _ZN4llvm8CastInst19CreateZExtOrBitCastEPNS_5ValueEPNS_4TypeERKNS_5TwineEPNS_11InstructionE
00000000008f5880 T _ZN4llvm8CastInst19CreateSExtOrBitCastEPNS_5ValueEPNS_4TypeERKNS_5TwineEPNS_11InstructionE
00000000008f58e0 T _ZN4llvm8CastInst20CreateTruncOrBitCastEPNS_5ValueEPNS_4TypeERKNS_5TwineEPNS_11InstructionE
00000000008f5940 T _ZN4llvm8CastInst35CreatePointerBitCastOrAddrSpaceCastEPNS_5ValueEPNS_4TypeERKNS_5TwineEPNS_11InstructionE
00000000008f59b0 T _ZN4llvm8CastInst17CreatePointerCastEPNS_5ValueEPNS_4TypeERKNS_5TwineEPNS_11InstructionE
00000000008f59f0 T _ZN4llvm8CastInst22CreateBitOrPointerCastEPNS_5ValueEPNS_4TypeERKNS_5TwineEPNS_11InstructionE
00000000008f5a60 T _ZN4llvm8CastInst17CreateIntegerCastEPNS_5ValueEPNS_4TypeEbRKNS_5TwineEPNS_11InstructionE
00000000008f5ad0 T _ZN4llvm8CastInst12CreateFPCastEPNS_5ValueEPNS_4TypeERKNS_5TwineEPNS_11InstructionE
00000000008f5b30 T _ZN4llvm17AddrSpaceCastInstC1EPNS_5ValueEPNS_4TypeERKNS_5TwineEPNS_10BasicBlockE
00000000008f5be0 T _ZN4llvm8CastInst6CreateENS_11Instruction7CastOpsEPNS_5ValueEPNS_4TypeERKNS_5TwineEPNS_10BasicBlockE
00000000008f5e20 T _ZN4llvm8CastInst19CreateZExtOrBitCastEPNS_5ValueEPNS_4TypeERKNS_5TwineEPNS_10BasicBlockE
00000000008f5e80 T _ZN4llvm8CastInst19CreateSExtOrBitCastEPNS_5ValueEPNS_4TypeERKNS_5TwineEPNS_10BasicBlockE
00000000008f5ee0 T _ZN4llvm8CastInst20CreateTruncOrBitCastEPNS_5ValueEPNS_4TypeERKNS_5TwineEPNS_10BasicBlockE
00000000008f5f40 T _ZN4llvm8CastInst35CreatePointerBitCastOrAddrSpaceCastEPNS_5ValueEPNS_4TypeERKNS_5TwineEPNS_10BasicBlockE
00000000008f5fb0 T _ZN4llvm8CastInst17CreatePointerCastEPNS_5ValueEPNS_4TypeERKNS_5TwineEPNS_10BasicBlockE
00000000008f5ff0 T _ZN4llvm8CastInst17CreateIntegerCastEPNS_5ValueEPNS_4TypeEbRKNS_5TwineEPNS_10BasicBlockE
00000000008f67c0 T _ZN4llvm8CallInst12CreateMallocEPNS_11InstructionEPNS_4TypeES4_PNS_5ValueES6_PNS_8FunctionERKNS_5TwineE
00000000008f67f0 T _ZN4llvm8CallInst12CreateMallocEPNS_11InstructionEPNS_4TypeES4_PNS_5ValueES6_NS_8ArrayRefINS_17OperandBundleDefTIS6_EEEEPNS_8FunctionERKNS_5TwineE
00000000008f6820 T _ZN4llvm8CallInst12CreateMallocEPNS_10BasicBlockEPNS_4TypeES4_PNS_5ValueES6_PNS_8FunctionERKNS_5TwineE
00000000008f6850 T _ZN4llvm8CallInst12CreateMallocEPNS_10BasicBlockEPNS_4TypeES4_PNS_5ValueES6_NS_8ArrayRefINS_17OperandBundleDefTIS6_EEEEPNS_8FunctionERKNS_5TwineE
00000000008f6890 T _ZN4llvm8CastInst12CreateFPCastEPNS_5ValueEPNS_4TypeERKNS_5TwineEPNS_10BasicBlockE
00000000008f68f0 T _ZN4llvm7CmpInstC2EPNS_4TypeENS_11Instruction8OtherOpsENS0_9PredicateEPNS_5ValueES7_RKNS_5TwineEPS3_SB_
00000000008f6a60 T _ZN4llvm7CmpInstC1EPNS_4TypeENS_11Instruction8OtherOpsENS0_9PredicateEPNS_5ValueES7_RKNS_5TwineEPNS_10BasicBlockE
00000000008f6ba0 T _ZN4llvm7CmpInst6CreateENS_11Instruction8OtherOpsENS0_9PredicateEPNS_5ValueES5_RKNS_5TwineEPS1_
00000000008f6db0 T _ZN4llvm7CmpInst6CreateENS_11Instruction8OtherOpsENS0_9PredicateEPNS_5ValueES5_RKNS_5TwineEPNS_10BasicBlockE
00000000008f6ee0 T _ZNK4llvm7CmpInst13isCommutativeEv
00000000008f6f30 T _ZNK4llvm7CmpInst10isEqualityEv
00000000008f6f70 T _ZN4llvm7CmpInst19getInversePredicateENS0_9PredicateE
00000000008f7120 T _ZN4llvm7CmpInst16getPredicateNameENS0_9PredicateE
00000000008f72b0 T _ZN4llvm8ICmpInst18getSignedPredicateENS_7CmpInst9PredicateE
00000000008f7310 T _ZN4llvm8ICmpInst20getUnsignedPredicateENS_7CmpInst9PredicateE
00000000008f7370 T _ZN4llvm7CmpInst29getFlippedStrictnessPredicateENS0_9PredicateE
00000000008f7490 T _ZN4llvm7CmpInst19getSwappedPredicateENS0_9PredicateE
00000000008f75b0 T _ZN4llvm7CmpInst12swapOperandsEv
00000000008f75f0 T _ZN4llvm7CmpInst21getNonStrictPredicateENS0_9PredicateE
00000000008f7690 T _ZN4llvm7CmpInst18getSignedPredicateENS0_9PredicateE
00000000008f76a0 T _ZN4llvm7CmpInst10isUnsignedENS0_9PredicateE
00000000008f76b0 T _ZN4llvm7CmpInst8isSignedENS0_9PredicateE
00000000008f76c0 T _ZN4llvm7CmpInst9isOrderedENS0_9PredicateE
00000000008f76d0 T _ZN4llvm7CmpInst11isUnorderedENS0_9PredicateE
00000000008f76e0 T _ZN4llvm7CmpInst15isTrueWhenEqualENS0_9PredicateE
00000000008f7710 T _ZN4llvm7CmpInst16isFalseWhenEqualENS0_9PredicateE
00000000008f7740 T _ZN4llvm7CmpInst26isImpliedTrueByMatchingCmpENS0_9PredicateES1_
00000000008f77b0 T _ZN4llvm7CmpInst27isImpliedFalseByMatchingCmpENS0_9PredicateES1_
00000000008f77d0 T _ZN4llvm10SwitchInst4initEPNS_5ValueEPNS_10BasicBlockEj
00000000008f7930 T _ZN4llvm10SwitchInstC2EPNS_5ValueEPNS_10BasicBlockEjPNS_11InstructionE
00000000008f7990 T _ZN4llvm10SwitchInstC1EPNS_5ValueEPNS_10BasicBlockEjS4_
00000000008f79f0 T _ZN4llvm10SwitchInstC2ERKS0_
00000000008f7bf0 T _ZN4llvm10SwitchInst10removeCaseENS0_16CaseIteratorImplINS0_10CaseHandleEEE
00000000008f7dd0 T _ZN4llvm10SwitchInst12growOperandsEv
00000000008f7df0 T _ZN4llvm10SwitchInst7addCaseEPNS_11ConstantIntEPNS_10BasicBlockE
00000000008f7f90 T _ZN4llvm27SwitchInstProfUpdateWrapper22getProfBranchWeightsMDERKNS_10SwitchInstE
00000000008f8010 T _ZN4llvm27SwitchInstProfUpdateWrapper24buildProfBranchWeightsMDEv
00000000008f8180 T _ZN4llvm27SwitchInstProfUpdateWrapper10removeCaseENS_10SwitchInst16CaseIteratorImplINS1_10CaseHandleEEE
00000000008f81b0 T _ZN4llvm27SwitchInstProfUpdateWrapper15eraseFromParentEv
00000000008f81e0 T _ZN4llvm27SwitchInstProfUpdateWrapper18getSuccessorWeightEj
00000000008f8220 T _ZN4llvm27SwitchInstProfUpdateWrapper18getSuccessorWeightERKNS_10SwitchInstEj
00000000008f8290 T _ZN4llvm14IndirectBrInst4initEPNS_5ValueEj
00000000008f8360 T _ZN4llvm14IndirectBrInst12growOperandsEv
00000000008f8380 T _ZN4llvm14IndirectBrInstC1EPNS_5ValueEjPNS_11InstructionE
00000000008f83e0 T _ZN4llvm14IndirectBrInstC1EPNS_5ValueEjPNS_10BasicBlockE
00000000008f8440 T _ZN4llvm14IndirectBrInstC1ERKS0_
00000000008f85a0 T _ZN4llvm14IndirectBrInst14addDestinationEPNS_10BasicBlockE
00000000008f86a0 T _ZN4llvm14IndirectBrInst17removeDestinationEj
00000000008f87a0 T _ZN4llvm10FreezeInstC2EPNS_5ValueERKNS_5TwineEPNS_11InstructionE
00000000008f8850 T _ZN4llvm10FreezeInstC1EPNS_5ValueERKNS_5TwineEPNS_10BasicBlockE
00000000008f8900 T _ZNK4llvm17GetElementPtrInst9cloneImplEv
00000000008f8940 T _ZNK4llvm13UnaryOperator9cloneImplEv
00000000008f89a0 T _ZNK4llvm14BinaryOperator9cloneImplEv
00000000008f8a00 T _ZNK4llvm8FCmpInst9cloneImplEv
00000000008f8af0 T _ZNK4llvm8ICmpInst9cloneImplEv
00000000008f8be0 T _ZNK4llvm10AllocaInst9cloneImplEv
00000000008f8d00 T _ZNK4llvm8LoadInst9cloneImplEv
00000000008f8df0 T _ZNK4llvm9StoreInst9cloneImplEv
00000000008f8ea0 T _ZNK4llvm17AtomicCmpXchgInst9cloneImplEv
00000000008f8f60 T _ZNK4llvm13AtomicRMWInst9cloneImplEv
00000000008f9000 T _ZNK4llvm9FenceInst9cloneImplEv
00000000008f9060 T _ZNK4llvm9TruncInst9cloneImplEv
00000000008f90e0 T _ZNK4llvm8ZExtInst9cloneImplEv
00000000008f9160 T _ZNK4llvm8SExtInst9cloneImplEv
00000000008f91e0 T _ZNK4llvm11FPTruncInst9cloneImplEv
00000000008f9260 T _ZNK4llvm9FPExtInst9cloneImplEv
00000000008f92e0 T _ZNK4llvm10UIToFPInst9cloneImplEv
00000000008f9360 T _ZNK4llvm10SIToFPInst9cloneImplEv
00000000008f93e0 T _ZNK4llvm10FPToUIInst9cloneImplEv
00000000008f9460 T _ZNK4llvm10FPToSIInst9cloneImplEv
00000000008f94e0 T _ZNK4llvm12PtrToIntInst9cloneImplEv
00000000008f9560 T _ZNK4llvm12IntToPtrInst9cloneImplEv
00000000008f95e0 T _ZNK4llvm11BitCastInst9cloneImplEv
00000000008f9660 T _ZNK4llvm17AddrSpaceCastInst9cloneImplEv
00000000008f96e0 T _ZNK4llvm8CallInst9cloneImplEv
00000000008f97c0 T _ZNK4llvm10SelectInst9cloneImplEv
00000000008f99c0 T _ZNK4llvm9VAArgInst9cloneImplEv
00000000008f9ad0 T _ZNK4llvm18ExtractElementInst9cloneImplEv
00000000008f9b50 T _ZNK4llvm17InsertElementInst9cloneImplEv
00000000008f9be0 T _ZNK4llvm17ShuffleVectorInst9cloneImplEv
00000000008f9c70 T _ZNK4llvm7PHINode9cloneImplEv
00000000008f9cb0 T _ZNK4llvm14LandingPadInst9cloneImplEv
00000000008f9cf0 T _ZNK4llvm10ReturnInst9cloneImplEv
00000000008f9d30 T _ZNK4llvm10BranchInst9cloneImplEv
00000000008f9d70 T _ZNK4llvm10SwitchInst9cloneImplEv
00000000008f9db0 T _ZNK4llvm14IndirectBrInst9cloneImplEv
00000000008f9df0 T _ZNK4llvm10InvokeInst9cloneImplEv
00000000008f9ed0 T _ZNK4llvm10CallBrInst9cloneImplEv
00000000008f9fb0 T _ZNK4llvm10ResumeInst9cloneImplEv
00000000008f9ff0 T _ZNK4llvm17CleanupReturnInst9cloneImplEv
00000000008fa030 T _ZNK4llvm15CatchReturnInst9cloneImplEv
00000000008fa070 T _ZNK4llvm15CatchSwitchInst9cloneImplEv
00000000008fa0b0 T _ZNK4llvm14FuncletPadInst9cloneImplEv
00000000008fa0f0 T _ZNK4llvm15UnreachableInst9cloneImplEv
00000000008fa130 T _ZNK4llvm10FreezeInst9cloneImplEv
00000000008fa280 T _ZN4llvm15InsertValueInstC2ERKS0_
00000000008fa470 T _ZNK4llvm15InsertValueInst9cloneImplEv
00000000008fa4b0 T _ZN4llvm16ExtractValueInstC1ERKS0_
00000000008fa5a0 T _ZNK4llvm16ExtractValueInst9cloneImplEv
00000000008fa710 T _ZN4llvm27SwitchInstProfUpdateWrapper7addCaseEPNS_11ConstantIntEPNS_10BasicBlockENS_8OptionalIjEE
00000000008fa920 T _ZN4llvm27SwitchInstProfUpdateWrapper4initEv
00000000008faae0 T _ZN4llvm27SwitchInstProfUpdateWrapper18setSuccessorWeightEjNS_8OptionalIjEE
00000000008faca0 T _ZNK4llvm20DbgVariableIntrinsic19getVariableLocationEb
00000000008facf0 T _ZNK4llvm20DbgVariableIntrinsic21getFragmentSizeInBitsEv
00000000008fada0 T _ZN4llvm9Intrinsic25lookupLLVMIntrinsicByNameENS_8ArrayRefIPKcEENS_9StringRefE
00000000008fb130 T _ZNK4llvm22InstrProfIncrementInst7getStepEv
00000000008fb1a0 T _ZNK4llvm22ConstrainedFPIntrinsic15getRoundingModeEv
00000000008fb2c0 T _ZNK4llvm22ConstrainedFPIntrinsic20getExceptionBehaviorEv
00000000008fb3e0 T _ZNK4llvm25ConstrainedFPCmpIntrinsic12getPredicateEv
00000000008fb680 T _ZNK4llvm22ConstrainedFPIntrinsic9isUnaryOpEv
00000000008fb6d0 T _ZNK4llvm22ConstrainedFPIntrinsic11isTernaryOpEv
00000000008fb700 T _ZN4llvm22ConstrainedFPIntrinsic7classofEPKNS_13IntrinsicInstE
00000000008fb740 T _ZNK4llvm17BinaryOpIntrinsic11getBinaryOpEv
00000000008fb7a0 T _ZNK4llvm17BinaryOpIntrinsic8isSignedEv
00000000008fb7f0 T _ZNK4llvm17BinaryOpIntrinsic13getNoWrapKindEv
00000000008fb810 T _ZN4llvm11LLVMContextD1Ev
00000000008fb840 T _ZN4llvm11LLVMContext9addModuleEPNS_6ModuleE
00000000008fb920 T _ZN4llvm11LLVMContext12removeModuleEPNS_6ModuleE
00000000008fb9f0 T _ZN4llvm11LLVMContext29setInlineAsmDiagnosticHandlerEPFvRKNS_12SMDiagnosticEPvjES4_
00000000008fba00 T _ZNK4llvm11LLVMContext29getInlineAsmDiagnosticHandlerEv
00000000008fba10 T _ZNK4llvm11LLVMContext29getInlineAsmDiagnosticContextEv
00000000008fba20 T _ZN4llvm11LLVMContext28setDiagnosticHandlerCallBackEPFvRKNS_14DiagnosticInfoEPvES4_b
00000000008fba40 T _ZN4llvm11LLVMContext20setDiagnosticHandlerEOSt10unique_ptrINS_17DiagnosticHandlerESt14default_deleteIS2_EEb
00000000008fbab0 T _ZN4llvm11LLVMContext30setDiagnosticsHotnessRequestedEb
00000000008fbac0 T _ZNK4llvm11LLVMContext30getDiagnosticsHotnessRequestedEv
00000000008fbad0 T _ZN4llvm11LLVMContext30setDiagnosticsHotnessThresholdEm
00000000008fbae0 T _ZNK4llvm11LLVMContext30getDiagnosticsHotnessThresholdEv
00000000008fbaf0 T _ZN4llvm11LLVMContext17getRemarkStreamerEv
00000000008fbb00 T _ZNK4llvm11LLVMContext17getRemarkStreamerEv
00000000008fbb10 T _ZN4llvm11LLVMContext17setRemarkStreamerESt10unique_ptrINS_14RemarkStreamerESt14default_deleteIS2_EE
00000000008fbb90 T _ZNK4llvm11LLVMContext28getDiagnosticHandlerCallBackEv
00000000008fbba0 T _ZNK4llvm11LLVMContext20getDiagnosticContextEv
00000000008fbbb0 T _ZN4llvm11LLVMContext16setYieldCallbackEPFvPS0_PvES2_
00000000008fbbc0 T _ZN4llvm11LLVMContext5yieldEv
00000000008fbbf0 T _ZN4llvm11LLVMContext26getDiagnosticMessagePrefixENS_18DiagnosticSeverityE
00000000008fbc20 T _ZN4llvm11LLVMContext8diagnoseERKNS_14DiagnosticInfoE
00000000008fbef0 T _ZN4llvm11LLVMContext9emitErrorERKNS_5TwineE
00000000008fbf60 T _ZN4llvm11LLVMContext9emitErrorEPKNS_11InstructionERKNS_5TwineE
00000000008fbfc0 T _ZN4llvm11LLVMContext9emitErrorEjRKNS_5TwineE
00000000008fc030 T _ZNK4llvm11LLVMContext20getOperandBundleTagsERNS_15SmallVectorImplINS_9StringRefEEE
00000000008fc040 T _ZNK4llvm11LLVMContext21getOperandBundleTagIDENS_9StringRefE
00000000008fc050 T _ZN4llvm11LLVMContext22getOrInsertSyncScopeIDENS_9StringRefE
00000000008fc060 T _ZNK4llvm11LLVMContext17getSyncScopeNamesERNS_15SmallVectorImplINS_9StringRefEEE
00000000008fc080 T _ZN4llvm11LLVMContext5getGCB5cxx11ERKNS_8FunctionE
00000000008fc700 T _ZN4llvm11LLVMContext8deleteGCERKNS_8FunctionE
00000000008fc7b0 T _ZNK4llvm11LLVMContext23shouldDiscardValueNamesEv
00000000008fc7c0 T _ZNK4llvm11LLVMContext23isODRUniquingDebugTypesEv
00000000008fc7d0 T _ZN4llvm11LLVMContext26enableDebugTypeODRUniquingEv
00000000008fc810 T _ZN4llvm11LLVMContext27disableDebugTypeODRUniquingEv
00000000008fc850 T _ZN4llvm11LLVMContext20setDiscardValueNamesEb
00000000008fc860 T _ZNK4llvm11LLVMContext14getOptPassGateEv
00000000008fc870 T _ZN4llvm11LLVMContext14setOptPassGateERNS_11OptPassGateE
00000000008fc880 T _ZNK4llvm11LLVMContext17getDiagHandlerPtrEv
00000000008fc890 T _ZN4llvm11LLVMContext20getDiagnosticHandlerEv
00000000008fc8b0 T _ZNK4llvm11LLVMContext11getMDKindIDENS_9StringRefE
00000000008fca40 T _ZN4llvm11LLVMContextC1Ev
00000000008fcb60 T _ZNK4llvm11LLVMContext14getMDKindNamesERNS_15SmallVectorImplINS_9StringRefEEE
00000000008fcd50 T _ZN4llvm11LLVMContext5setGCERKNS_8FunctionENSt7__cxx1112basic_stringIcSt11char_traitsIcESaIcEEE
00000000008fdcb0 T _ZN4llvm15LLVMContextImplC1ERNS_11LLVMContextE
00000000008fe800 T _ZNK4llvm15LLVMContextImpl14getOptPassGateEv
00000000008fe860 T _ZN4llvm15LLVMContextImpl14setOptPassGateERNS_11OptPassGateE
00000000008ffd20 w _ZN4llvm7hashing6detail23hash_combine_range_implIPKNS_9MDOperandEEENS_9hash_codeET_S7_
0000000000900600 T _ZN4llvm12MDNodeOpsKey13calculateHashEPNS_6MDNodeEj
0000000000900630 w _ZN4llvm7hashing6detail23hash_combine_range_implIKPNS_8MetadataEEENSt9enable_ifIXsrNS1_16is_hashable_dataIT_EE5valueENS_9hash_codeEE4typeEPS8_SD_
0000000000900d20 T _ZN4llvm12MDNodeOpsKey13calculateHashENS_8ArrayRefIPNS_8MetadataEEE
0000000000900ff0 T _ZNK4llvm15LLVMContextImpl21getOperandBundleTagIDENS_9StringRefE
0000000000901090 T _ZNK4llvm15LLVMContextImpl20getOperandBundleTagsERNS_15SmallVectorImplINS_9StringRefEEE
0000000000901250 T _ZNK4llvm15LLVMContextImpl17getSyncScopeNamesERNS_15SmallVectorImplINS_9StringRefEEE
00000000009021b0 T _ZN4llvm15LLVMContextImpl20getOrInsertBundleTagENS_9StringRefE
0000000000902380 T _ZN4llvm15LLVMContextImpl22getOrInsertSyncScopeIDENS_9StringRefE
00000000009025e0 T _ZN4llvm15LLVMContextImpl31dropTriviallyDeadConstantArraysEv
0000000000902750 T _ZN4llvm6Module31dropTriviallyDeadConstantArraysEv
0000000000902920 T _ZN4llvm15LLVMContextImplD1Ev
00000000009071c0 T _ZN4llvm6legacy23FunctionPassManagerImpl6anchorEv
00000000009072e0 w _ZNSt17_Function_handlerIFvRKPKN4llvm8PassInfoEENS0_2cl4listIS3_bNS0_14PassNameParserEE8CallbackMUlS5_E_EE9_M_invokeERKSt9_Any_dataS5_
00000000009072f0 w _ZNSt14_Function_base13_Base_managerIN4llvm2cl4listIPKNS1_8PassInfoEbNS1_14PassNameParserEE8CallbackMUlRKS6_E_EE10_M_managerERSt9_Any_dataRKSD_St18_Manager_operation
0000000000907940 T _ZN4llvm13FPPassManager16doInitializationERNS_6ModuleE
00000000009079d0 T _ZN4llvm13FPPassManager14doFinalizationERNS_6ModuleE
0000000000907d60 T _ZN4llvm6legacy23FunctionPassManagerImpl14doFinalizationERNS_6ModuleE
0000000000908620 T _ZNK4llvm27PassManagerPrettyStackEntry5printERNS_11raw_ostreamE
00000000009088d0 T _ZN4llvm21shouldPrintBeforePassEv
0000000000908900 T _ZN4llvm20shouldPrintAfterPassEv
0000000000908930 T _ZN4llvm21shouldPrintBeforePassENS_9StringRefE
00000000009089e0 T _ZN4llvm20shouldPrintAfterPassENS_9StringRefE
0000000000908a90 T _ZN4llvm18forcePrintModuleIREv
0000000000908aa0 T _ZNK4llvm13PMDataManager31isPassDebuggingExecutionsOrMoreEv
0000000000908ab0 T _ZNK4llvm17PMTopLevelManager10dumpPassesEv
0000000000908b50 T _ZN4llvm17PMTopLevelManagerD2Ev
0000000000909030 T _ZN4llvm17PMTopLevelManagerD0Ev
0000000000909050 T _ZN4llvm13PMDataManager23verifyPreservedAnalysisEPNS_4PassE
0000000000909060 T _ZN4llvm13PMDataManager12dumpPassInfoEPNS_4PassENS_19PassDebuggingStringES3_NS_9StringRefE
0000000000909290 T _ZN4llvm13PMDataManagerD1Ev
0000000000909b50 T _ZN4llvm13PMDataManagerD0Ev
0000000000909b70 T _ZN4llvm6legacy19FunctionPassManager16doInitializationEv
0000000000909b90 T _ZN4llvm6legacy19FunctionPassManager14doFinalizationEv
0000000000909bb0 T _ZN4llvm13FPPassManager7cleanupEv
0000000000909c00 T _ZN4llvm6legacy23FunctionPassManagerImpl21releaseMemoryOnTheFlyEv
0000000000909c90 T _ZN4llvm7PMStack3popEv
0000000000909eb0 T _ZNK4llvm7PMStack4dumpEv
0000000000909fd0 T _ZN4llvm6legacy15PassManagerBaseD1Ev
0000000000909fe0 T _ZN4llvm6legacy19FunctionPassManagerD1Ev
000000000090a010 T _ZN4llvm6legacy19FunctionPassManagerD0Ev
000000000090a030 T _ZN4llvm6legacy11PassManagerD2Ev
000000000090a060 T _ZN4llvm6legacy11PassManagerD0Ev
000000000090a080 T _ZN4llvm6legacy15PassManagerBaseD0Ev
000000000090a2a0 w _ZNSt6vectorISt4pairIPKvPN4llvm4PassEESaIS6_EE17_M_realloc_insertIJRKS6_EEEvN9__gnu_cxx17__normal_iteratorIPS6_S8_EEDpOT_
000000000090a460 w _ZNSt6vectorIPKN4llvm8PassInfoESaIS3_EE17_M_realloc_insertIJRKS3_EEEvN9__gnu_cxx17__normal_iteratorIPS3_S5_EEDpOT_
000000000090a5c0 w _ZN4llvm15SmallVectorImplIPKvEaSERKS3_
000000000090a690 w _ZNKSt10_HashtableINSt7__cxx1112basic_stringIcSt11char_traitsIcESaIcEEES5_SaIS5_ENSt8__detail9_IdentityESt8equal_toIS5_ESt4hashIS5_ENS7_18_Mod_range_hashingENS7_20_Default_ranged_hashENS7_20_Prime_rehash_policyENS7_17_Hashtable_traitsILb1ELb1ELb1EEEE5countERKS5_
000000000090a820 w _ZNSt6vectorIPN4llvm13PMDataManagerESaIS2_EE17_M_realloc_insertIJRKS2_EEEvN9__gnu_cxx17__normal_iteratorIPS2_S4_EEDpOT_
000000000090a980 T _ZN4llvm7PMStack4pushEPNS_13PMDataManagerE
000000000090aa60 T _ZN4llvm17PMTopLevelManagerC2EPNS_13PMDataManagerE
000000000090ac50 T _ZN4llvm6legacy11PassManagerC1Ev
000000000090ae50 T _ZN4llvm6legacy19FunctionPassManagerC1EPNS_6ModuleE
000000000090b060 w _ZNSt10_HashtableINSt7__cxx1112basic_stringIcSt11char_traitsIcESaIcEEES5_SaIS5_ENSt8__detail9_IdentityESt8equal_toIS5_ESt4hashIS5_ENS7_18_Mod_range_hashingENS7_20_Default_ranged_hashENS7_20_Prime_rehash_policyENS7_17_Hashtable_traitsILb1ELb1ELb1EEEEC2IN9__gnu_cxx17__normal_iteratorIPS5_St6vectorIS5_S6_EEEEET_SQ_mRKSC_RKSD_RKSE_RKSA_RKS8_RKS6_
000000000090b680 T _ZN4llvm13PMDataManager18initSizeRemarkInfoERNS_6ModuleERNS_9StringMapISt4pairIjjENS_15MallocAllocatorEEE
000000000090ba00 T _ZN4llvm17PMTopLevelManager25initializeAllAnalysisInfoEv
000000000090c7e0 T _ZN4llvm17PMTopLevelManager15collectLastUsesERNS_15SmallVectorImplIPNS_4PassEEES3_
000000000090ca00 T _ZNK4llvm13PMDataManager12dumpLastUsesEPNS_4PassEj
000000000090cb80 T _ZN4llvm13FPPassManager17dumpPassStructureEj
000000000090cee0 T _ZN4llvm13PMDataManager16findAnalysisPassEPKvb
000000000090d040 T _ZN4llvm17PMTopLevelManager16findAnalysisPassEPKv
000000000090d190 T _ZNK4llvm16AnalysisResolver22getAnalysisIfAvailableEPKvb
000000000090d250 T _ZN4llvm21isFunctionInPrintListENS_9StringRefE
000000000090d3b0 w _ZN4llvmlsINS_26OptimizationRemarkAnalysisEEERT_S3_NSt9enable_ifIXsrSt10is_base_ofINS_30DiagnosticInfoOptimizationBaseES2_E5valueENS6_8ArgumentEE4typeE
000000000090dc10 T _ZN4llvm13PMDataManager27emitInstrCountChangedRemarkEPNS_4PassERNS_6ModuleEljRNS_9StringMapISt4pairIjjENS_15MallocAllocatorEEEPNS_8FunctionE
000000000090e870 w _ZSt9__find_ifIPKPKvN9__gnu_cxx5__ops16_Iter_equals_valIS2_EEET_S8_S8_T0_St26random_access_iterator_tag
000000000090e930 w _ZNSt6vectorISt4pairIPN4llvm4PassEPNS1_6legacy23FunctionPassManagerImplEESaIS7_EE17_M_realloc_insertIJS7_EEEvN9__gnu_cxx17__normal_iteratorIPS7_S9_EEDpOT_
000000000090ef40 T _ZN4llvm17PMTopLevelManager17findAnalysisUsageEPNS_4PassE
000000000090f620 T _ZN4llvm17PMTopLevelManager11setLastUserENS_8ArrayRefIPNS_4PassEEES3_
000000000090fcc0 T _ZN4llvm13PMDataManager27preserveHigherLevelAnalysisEPNS_4PassE
000000000090fda0 T _ZN4llvm13PMDataManager26removeNotPreservedAnalysisEPNS_4PassE
0000000000910180 T _ZN4llvm13PMDataManager30collectRequiredAndUsedAnalysesERNS_15SmallVectorImplIPNS_4PassEEERNS1_IPKvEES3_
00000000009103d0 T _ZN4llvm13PMDataManager22initializeAnalysisImplEPNS_4PassE
0000000000910690 T _ZNK4llvm17PMTopLevelManager20findAnalysisPassInfoEPKv
0000000000910920 T _ZN4llvm13PMDataManager8freePassEPNS_4PassENS_9StringRefENS_19PassDebuggingStringE
0000000000910c40 T _ZN4llvm13PMDataManager16removeDeadPassesEPNS_4PassENS_9StringRefENS_19PassDebuggingStringE
0000000000910da0 T _ZNK4llvm13PMDataManager17dumpPassArgumentsEv
0000000000910e40 T _ZNK4llvm17PMTopLevelManager13dumpArgumentsEv
0000000000911020 T _ZN4llvm13PMDataManager25addLowerLevelRequiredPassEPNS_4PassES2_
0000000000911050 T _ZN4llvm6legacy23FunctionPassManagerImpl16doInitializationERNS_6ModuleE
00000000009111c0 T _ZNK4llvm13PMDataManager17dumpAnalysisUsageENS_9StringRefEPKNS_4PassERKNS_15SmallVectorImplIPKvEE
0000000000911410 T _ZNK4llvm13PMDataManager15dumpRequiredSetEPKNS_4PassE
0000000000911560 T _ZNK4llvm13PMDataManager16dumpPreservedSetEPKNS_4PassE
00000000009116a0 T _ZNK4llvm13PMDataManager11dumpUsedSetEPKNS_4PassE
0000000000911d90 T _ZN4llvm17PMTopLevelManager16addImmutablePassEPNS_13ImmutablePassE
00000000009124c0 T _ZN4llvm13PMDataManager23recordAvailableAnalysisEPNS_4PassE
0000000000912d50 T _ZN4llvm13PMDataManager3addEPNS_4PassEb
0000000000913120 T _ZN4llvm10ModulePass17assignPassManagerERNS_7PMStackENS_15PassManagerTypeE
0000000000913170 T _ZN4llvm12FunctionPass17assignPassManagerERNS_7PMStackENS_15PassManagerTypeE
0000000000913440 T _ZN4llvm13FPPassManager13runOnFunctionERNS_8FunctionE
0000000000913970 T _ZN4llvm6legacy23FunctionPassManagerImpl3runERNS_8FunctionE
0000000000913a60 T _ZN4llvm6legacy19FunctionPassManager3runERNS_8FunctionE
0000000000914660 T _ZN4llvm16AnalysisResolver12findImplPassEPNS_4PassEPKvRNS_8FunctionE
0000000000914de0 T _ZN4llvm13FPPassManager11runOnModuleERNS_6ModuleE
0000000000914e80 T _ZN4llvm6legacy15PassManagerImpl3runERNS_6ModuleE
00000000009154a0 T _ZN4llvm6legacy11PassManager3runERNS_6ModuleE
00000000009154b0 T _ZN4llvm17PMTopLevelManager12schedulePassEPNS_4PassE
0000000000915b60 T _ZN4llvm6legacy19FunctionPassManager3addEPNS_4PassE
0000000000915b80 T _ZN4llvm6legacy11PassManager3addEPNS_4PassE
0000000000917400 T _ZN4llvm9MDBuilder12createStringENS_9StringRefE
0000000000917410 T _ZN4llvm9MDBuilder14createConstantEPNS_8ConstantE
0000000000917420 T _ZN4llvm9MDBuilder12createFPMathEf
00000000009174c0 T _ZN4llvm9MDBuilder19createBranchWeightsENS_8ArrayRefIjEE
0000000000917630 T _ZN4llvm9MDBuilder19createBranchWeightsEjj
0000000000917680 T _ZN4llvm9MDBuilder19createUnpredictableEv
00000000009176a0 T _ZN4llvm9MDBuilder27createFunctionSectionPrefixENS_9StringRefE
0000000000917730 T _ZN4llvm9MDBuilder11createRangeEPNS_8ConstantES2_
00000000009177b0 T _ZN4llvm9MDBuilder11createRangeERKNS_5APIntES3_
0000000000917810 T _ZN4llvm9MDBuilder13createCalleesENS_8ArrayRefIPNS_8FunctionEEE
0000000000917930 T _ZN4llvm9MDBuilder22createCallbackEncodingEjNS_8ArrayRefIiEEb
0000000000917b40 T _ZN4llvm9MDBuilder22mergeCallbackEncodingsEPNS_6MDNodeES2_
0000000000917d10 T _ZN4llvm9MDBuilder21createAnonymousAARootENS_9StringRefEPNS_6MDNodeE
0000000000917e70 T _ZN4llvm9MDBuilder14createTBAARootENS_9StringRefE
0000000000917ed0 T _ZN4llvm9MDBuilder14createTBAANodeENS_9StringRefEPNS_6MDNodeEb
0000000000917fc0 T _ZN4llvm9MDBuilder22createAliasScopeDomainENS_9StringRefE
0000000000918020 T _ZN4llvm9MDBuilder16createAliasScopeENS_9StringRefEPNS_6MDNodeE
0000000000918090 T _ZN4llvm9MDBuilder20createTBAAStructNodeENS_8ArrayRefINS0_15TBAAStructFieldEEE
0000000000918210 T _ZN4llvm9MDBuilder24createTBAAStructTypeNodeENS_9StringRefENS_8ArrayRefISt4pairIPNS_6MDNodeEmEEE
0000000000918390 T _ZN4llvm9MDBuilder24createTBAAScalarTypeNodeENS_9StringRefEPNS_6MDNodeEm
0000000000918440 T _ZN4llvm9MDBuilder23createTBAAStructTagNodeEPNS_6MDNodeES2_mb
0000000000918530 T _ZN4llvm9MDBuilder18createTBAATypeNodeEPNS_6MDNodeEmPNS_8MetadataENS_8ArrayRefINS0_15TBAAStructFieldEEE
00000000009186f0 T _ZN4llvm9MDBuilder19createTBAAAccessTagEPNS_6MDNodeES2_mmb
0000000000918840 T _ZN4llvm9MDBuilder26createMutableTBAAAccessTagEPNS_6MDNodeE
0000000000918990 T _ZN4llvm9MDBuilder25createIrrLoopHeaderWeightEm
0000000000918a20 T _ZN4llvm9MDBuilder15createMisExpectEmmm
0000000000918b40 w _ZNSt3_V28__rotateIPmEET_S2_S2_S2_St26random_access_iterator_tag
0000000000918ee0 w _ZSt22__merge_without_bufferIPmlN9__gnu_cxx5__ops15_Iter_less_iterEEvT_S4_S4_T0_S5_T1_
0000000000919090 w _ZSt21__inplace_stable_sortIPmN9__gnu_cxx5__ops15_Iter_less_iterEEvT_S4_T0_
00000000009191a0 w _ZSt17__rotate_adaptiveIPmS0_lET_S1_S1_S1_T1_S2_T0_S2_
00000000009192b0 w _ZSt16__merge_adaptiveIPmlS0_N9__gnu_cxx5__ops15_Iter_less_iterEEvT_S4_S4_T0_S5_T1_S5_T2_
00000000009195d0 w _ZSt22__stable_sort_adaptiveIPmS0_lN9__gnu_cxx5__ops15_Iter_less_iterEEvT_S4_T0_T1_T2_
0000000000919690 T _ZN4llvm9MDBuilder24createFunctionEntryCountEmbPKNS_8DenseSetImNS_12DenseMapInfoImEEEE
0000000000919e50 T _ZN4llvm7Mangler17getNameWithPrefixERNS_11raw_ostreamERKNS_5TwineERKNS_10DataLayoutE
0000000000919e90 T _ZN4llvm7Mangler17getNameWithPrefixERNS_15SmallVectorImplIcEERKNS_5TwineERKNS_10DataLayoutE
000000000091a1b0 T _ZNK4llvm7Mangler17getNameWithPrefixERNS_11raw_ostreamEPKNS_11GlobalValueEb
000000000091ada0 T _ZNK4llvm7Mangler17getNameWithPrefixERNS_15SmallVectorImplIcEEPKNS_11GlobalValueEb
000000000091ae60 T _ZN4llvm28emitLinkerFlagsForGlobalCOFFERNS_11raw_ostreamEPKNS_11GlobalValueERKNS_6TripleERNS_7ManglerE
000000000091b280 T _ZN4llvm26emitLinkerFlagsForUsedCOFFERNS_11raw_ostreamEPKNS_11GlobalValueERKNS_6TripleERNS_7ManglerE
000000000091c330 T _ZN4llvm23ReplaceableMetadataImpl7dropRefEPv
000000000091c3d0 T _ZN4llvm23ReplaceableMetadataImpl11getOrCreateERNS_8MetadataE
000000000091c4e0 T _ZN4llvm23ReplaceableMetadataImpl11getIfExistsERNS_8MetadataE
000000000091c530 T _ZN4llvm16MetadataTracking7untrackEPvRNS_8MetadataE
000000000091c580 T _ZN4llvm15MetadataAsValue7untrackEv
000000000091c5b0 T _ZN4llvm15MetadataAsValueD1Ev
000000000091c650 T _ZN4llvm23ReplaceableMetadataImpl13isReplaceableERKNS_8MetadataE
000000000091c690 T _ZN4llvm16MetadataTracking13isReplaceableERKNS_8MetadataE
000000000091c6a0 T _ZN4llvm15ValueAsMetadata11getIfExistsEPNS_5ValueE
000000000091c720 T _ZNK4llvm8MDString9getStringEv
000000000091c760 T _ZN4llvm6MDNodenwEmj
000000000091c7b0 T _ZN4llvm6MDNodedlEPv
000000000091c820 T _ZN4llvm6MDNode23countUnresolvedOperandsEv
000000000091c890 T _ZN4llvm7MDTuple15recalculateHashEv
000000000091c8b0 T _ZN4llvm6MDNode20getMostGenericFPMathEPS0_S1_
000000000091ca90 T _ZN4llvm6MDNode40getMostGenericAlignmentOrDereferenceableEPS0_S1_
000000000091caf0 T _ZN4llvm11NamedMDNodeC1ERKNS_5TwineE
000000000091cb70 T _ZNK4llvm11NamedMDNode14getNumOperandsEv
000000000091cb80 T _ZNK4llvm11NamedMDNode10getOperandEj
000000000091cba0 T _ZN4llvm11NamedMDNode15eraseFromParentEv
000000000091cbb0 T _ZN4llvm11NamedMDNode13clearOperandsEv
000000000091cc00 T _ZN4llvm11NamedMDNodeD1Ev
000000000091ccc0 T _ZNK4llvm11NamedMDNode7getNameEv
000000000091ccd0 T _ZNK4llvm15MDAttachmentMap6lookupEj
000000000091cd10 T _ZNK4llvm21MDGlobalAttachmentMap6lookupEj
000000000091cd50 T _ZNK4llvm21MDGlobalAttachmentMap3getEjRNS_15SmallVectorImplIPNS_6MDNodeEEE
000000000091cdf0 T _ZN4llvm11Instruction24clearMetadataHashEntriesEv
000000000091cf10 T _ZN4llvm12GlobalObject13clearMetadataEv
000000000091d030 w _ZN4llvm12is_containedIRNS_11SmallPtrSetIPNS_8MetadataELj4EEES3_EEbOT_RKT0_
000000000091d170 w _ZN4llvm23SmallVectorTemplateBaseISt4pairIjPNS_6MDNodeEELb0EE4growEm
000000000091d280 T _ZNK4llvm15MDAttachmentMap6getAllERNS_15SmallVectorImplISt4pairIjPNS_6MDNodeEEEE
000000000091d4f0 w _ZN4llvm23SmallVectorTemplateBaseISt4pairIPvS1_INS_12PointerUnionIJPNS_15MetadataAsValueEPNS_8MetadataEEEEmEELb0EE4growEm
000000000091d610 T _ZN4llvm23ReplaceableMetadataImpl14resolveAllUsesEb
000000000091dd50 T _ZN4llvm6MDNode19dropReplaceableUsesEv
000000000091ddd0 T _ZN4llvm6MDNode7resolveEv
000000000091dde0 T _ZN4llvm6MDNode13resolveCyclesEv
000000000091de70 T _ZN4llvm6MDNode31decrementUnresolvedOperandCountEv
000000000091dea0 T _ZN4llvm6MDNode25resolveAfterOperandChangeEPNS_8MetadataES2_
000000000091df70 T _ZN4llvm8MDString3getERNS_11LLVMContextENS_9StringRefE
000000000091e8f0 w _ZNSt6vectorIPN4llvm6MDNodeESaIS2_EE17_M_realloc_insertIJS2_EEEvN9__gnu_cxx17__normal_iteratorIPS2_S4_EEDpOT_
000000000091ea50 T _ZN4llvm6MDNode22storeDistinctInContextEv
000000000091eb00 T _ZN4llvm6MDNode12makeDistinctEv
000000000091eb20 T _ZN4llvm6MDNode23replaceWithDistinctImplEv
000000000091ec30 T _ZNK4llvm11Instruction18getAllMetadataImplERNS_15SmallVectorImplISt4pairIjPNS_6MDNodeEEEE
000000000091edd0 T _ZNK4llvm11Instruction35getAllMetadataOtherThanDebugLocImplERNS_15SmallVectorImplISt4pairIjPNS_6MDNodeEEEE
000000000091f120 T _ZN4llvm6MDNode14eraseFromStoreEv
000000000091fe00 w _ZSt16__insertion_sortIPSt4pairIjPN4llvm6MDNodeEEN9__gnu_cxx5__ops15_Iter_comp_iterINS1_10less_firstEEEEvT_SB_T0_
0000000000920560 T _ZN4llvm23ReplaceableMetadataImpl7moveRefEPvS1_RKNS_8MetadataE
0000000000920960 T _ZN4llvm16MetadataTracking7retrackEPvRNS_8MetadataES1_
00000000009209a0 w _ZN4llvm23SmallVectorTemplateBaseISt4pairIjNS_18TypedTrackingMDRefINS_6MDNodeEEEELb0EE4growEm
0000000000920b40 w _ZN4llvm23SmallVectorTemplateBaseINS_21MDGlobalAttachmentMap10AttachmentELb0EE4growEm
0000000000920ce0 T _ZN4llvm21MDGlobalAttachmentMap5eraseEj
0000000000920ee0 T _ZN4llvm15MDAttachmentMap5eraseEj
0000000000920fd0 T _ZN4llvm23ReplaceableMetadataImpl6addRefEPvNS_12PointerUnionIJPNS_15MetadataAsValueEPNS_8MetadataEEEE
0000000000921260 T _ZN4llvm16MetadataTracking5trackEPvRNS_8MetadataENS_12PointerUnionIJPNS_15MetadataAsValueEPS2_EEE
00000000009212b0 T _ZN4llvm15MetadataAsValue5trackEv
00000000009212e0 T _ZN4llvm15MetadataAsValueC2EPNS_4TypeEPNS_8MetadataE
0000000000921310 T _ZN4llvm6MDNode10setOperandEjPNS_8MetadataE
0000000000921380 T _ZN4llvm6MDNodeC2ERNS_11LLVMContextEjNS_8Metadata11StorageTypeENS_8ArrayRefIPS3_EES7_
0000000000921480 T _ZN4llvm6MDNode17dropAllReferencesEv
0000000000921540 T _ZN4llvm6MDNode16deleteAsSubclassEv
00000000009215a0 T _ZN4llvm11NamedMDNode10addOperandEPNS_6MDNodeE
0000000000921730 T _ZN4llvm15MDAttachmentMap3setEjRNS_6MDNodeE
00000000009217f0 T _ZN4llvm21MDGlobalAttachmentMap6insertEjRNS_6MDNodeE
00000000009218c0 T _ZN4llvm6MDNode11makeUniquedEv
0000000000921960 T _ZN4llvm11NamedMDNode10setOperandEjPNS_6MDNodeE
0000000000921b90 T _ZN4llvm15ValueAsMetadata3getEPNS_5ValueE
00000000009222f0 T _ZN4llvm7MDTuple7getImplERNS_11LLVMContextENS_8ArrayRefIPNS_8MetadataEEENS4_11StorageTypeEb
00000000009225c0 T _ZN4llvm15MetadataAsValue21handleChangedMetadataEPNS_8MetadataE
0000000000922930 T _ZN4llvm6MDNode19getMostGenericRangeEPS0_S1_
0000000000922fb0 T _ZNK4llvm6MDNode5cloneEv
0000000000924590 T _ZN4llvm15MetadataAsValue11getIfExistsERNS_11LLVMContextEPNS_8MetadataE
0000000000924680 T _ZN4llvm15MetadataAsValue3getERNS_11LLVMContextEPNS_8MetadataE
0000000000928ca0 T _ZN4llvm6MDNode8uniquifyEv
000000000092b250 T _ZN4llvm6MDNode20handleChangedOperandEPvPNS_8MetadataE
000000000092b3c0 T _ZN4llvm23ReplaceableMetadataImpl18replaceAllUsesWithEPNS_8MetadataE
000000000092b900 T _ZN4llvm15ValueAsMetadata14handleDeletionEPNS_5ValueE
000000000092ba90 T _ZN4llvm6MDNode15deleteTemporaryEPS0_
000000000092bad0 T _ZN4llvm6MDNode18replaceOperandWithEjPNS_8MetadataE
000000000092bb10 T _ZN4llvm6MDNode22replaceWithUniquedImplEv
000000000092bb70 T _ZN4llvm6MDNode24replaceWithPermanentImplEv
000000000092c0d0 T _ZN4llvm6MDNode9intersectEPS0_S1_
000000000092cdf0 T _ZN4llvm6MDNode11concatenateEPS0_S1_
000000000092d6e0 T _ZN4llvm6MDNode24getMostGenericAliasScopeEPS0_S1_
000000000092d700 w _ZNSt3_V28__rotateIPSt4pairIjPN4llvm6MDNodeEEEET_S7_S7_S7_St26random_access_iterator_tag
000000000092d870 w _ZSt22__merge_without_bufferIPSt4pairIjPN4llvm6MDNodeEElN9__gnu_cxx5__ops15_Iter_comp_iterINS1_10less_firstEEEEvT_SB_SB_T0_SC_T1_
000000000092da40 w _ZSt21__inplace_stable_sortIPSt4pairIjPN4llvm6MDNodeEEN9__gnu_cxx5__ops15_Iter_comp_iterINS1_10less_firstEEEEvT_SB_T0_
000000000092dac0 w _ZSt17__rotate_adaptiveIPSt4pairIjPN4llvm6MDNodeEES5_lET_S6_S6_S6_T1_S7_T0_S7_
000000000092dcf0 w _ZSt16__merge_adaptiveIPSt4pairIjPN4llvm6MDNodeEElS5_N9__gnu_cxx5__ops15_Iter_comp_iterINS1_10less_firstEEEEvT_SB_SB_T0_SC_T1_SC_T2_
000000000092e120 w _ZSt12__move_mergeIPSt4pairIjPN4llvm6MDNodeEES5_N9__gnu_cxx5__ops15_Iter_comp_iterINS1_10less_firstEEEET0_T_SC_SC_SC_SB_T1_
000000000092e230 w _ZSt24__merge_sort_with_bufferIPSt4pairIjPN4llvm6MDNodeEES5_N9__gnu_cxx5__ops15_Iter_comp_iterINS1_10less_firstEEEEvT_SB_T0_T1_
000000000092e440 w _ZSt22__stable_sort_adaptiveIPSt4pairIjPN4llvm6MDNodeEES5_lN9__gnu_cxx5__ops15_Iter_comp_iterINS1_10less_firstEEEEvT_SB_T0_T1_T2_
000000000092e500 T _ZNK4llvm21MDGlobalAttachmentMap6getAllERNS_15SmallVectorImplISt4pairIjPNS_6MDNodeEEEE
000000000092e980 w _ZN4llvm15SmallVectorImplISt4pairIjNS_18TypedTrackingMDRefINS_6MDNodeEEEEEaSEOS6_
000000000092ef70 T _ZNK4llvm11Instruction15getMetadataImplEj
000000000092f130 T _ZNK4llvm11Instruction15getMetadataImplENS_9StringRefE
000000000092f170 T _ZNK4llvm11Instruction19extractProfMetadataERmS1_
000000000092f2a0 T _ZNK4llvm11Instruction22extractProfTotalWeightERm
000000000092f400 T _ZN4llvm11Instruction27dropUnknownNonDebugMetadataENS_8ArrayRefIjEE
000000000092ff00 T _ZN4llvm11Instruction11setMetadataEjPNS_6MDNodeE
00000000009303f0 T _ZN4llvm11Instruction11setMetadataENS_9StringRefEPNS_6MDNodeE
0000000000930460 T _ZN4llvm11Instruction13setAAMetadataERKNS_9AAMDNodesE
00000000009304c0 w _ZN4llvm15SmallVectorImplINS_21MDGlobalAttachmentMap10AttachmentEEaSEOS3_
0000000000930a90 T _ZNK4llvm12GlobalObject11getMetadataEjRNS_15SmallVectorImplIPNS_6MDNodeEEE
0000000000930c50 T _ZNK4llvm12GlobalObject11getMetadataENS_9StringRefERNS_15SmallVectorImplIPNS_6MDNodeEEE
0000000000930cb0 T _ZNK4llvm14GlobalVariable12getDebugInfoERNS_15SmallVectorImplIPNS_26DIGlobalVariableExpressionEEE
0000000000930d90 T _ZN4llvm12GlobalObject11addMetadataEjRNS_6MDNodeE
0000000000930f40 T _ZN4llvm12GlobalObject11addMetadataENS_9StringRefERNS_6MDNodeE
0000000000930f90 T _ZN4llvm12GlobalObject15addTypeMetadataEjPNS_8MetadataE
0000000000931040 T _ZN4llvm12GlobalObject26addVCallVisibilityMetadataENS0_15VCallVisibilityE
00000000009310d0 T _ZN4llvm14GlobalVariable12addDebugInfoEPNS_26DIGlobalVariableExpressionE
00000000009310e0 T _ZNK4llvm12GlobalObject11getMetadataEj
0000000000931290 T _ZNK4llvm12GlobalObject11getMetadataENS_9StringRefE
00000000009312d0 T _ZNK4llvm12GlobalObject18getVCallVisibilityEv
0000000000931310 T _ZNK4llvm8Function13getSubprogramEv
0000000000931350 T _ZNK4llvm8Function23isDebugInfoForProfilingEv
0000000000931390 T _ZN4llvm15ValueAsMetadata10handleRAUWEPNS_5ValueES2_
0000000000931760 T _ZN4llvm12GlobalObject13eraseMetadataEj
0000000000931930 T _ZN4llvm12GlobalObject11setMetadataEjPNS_6MDNodeE
0000000000931970 T _ZN4llvm12GlobalObject11setMetadataENS_9StringRefEPNS_6MDNodeE
00000000009319c0 T _ZN4llvm8Function13setSubprogramEPNS_12DISubprogramE
00000000009319d0 T _ZNK4llvm12GlobalObject14getAllMetadataERNS_15SmallVectorImplISt4pairIjPNS_6MDNodeEEEE
0000000000931b80 T _ZN4llvm12GlobalObject12copyMetadataEPKS0_j
0000000000931fa0 w _ZN4llvm21SymbolTableListTraitsINS_8FunctionEE12getListOwnerEv
0000000000931fb0 w _ZN4llvm21SymbolTableListTraitsINS_8FunctionEE7getListEPNS_6ModuleE
0000000000931fc0 w _ZN4llvm21SymbolTableListTraitsINS_8FunctionEE9getSymTabEPNS_6ModuleE
0000000000931fe0 w _ZN4llvm21SymbolTableListTraitsINS_8FunctionEE13addNodeToListEPS1_
0000000000932010 w _ZN4llvm21SymbolTableListTraitsINS_8FunctionEE18removeNodeFromListEPS1_
0000000000932060 w _ZN4llvm21SymbolTableListTraitsINS_8FunctionEE21transferNodesFromListERS2_NS_14ilist_iteratorINS_12ilist_detail12node_optionsIS1_Lb0ELb0EvEELb0ELb0EEES8_
0000000000932160 w _ZN4llvm21SymbolTableListTraitsINS_8FunctionEE5toPtrEPNS_16ValueSymbolTableE
0000000000932170 w _ZN4llvm21SymbolTableListTraitsINS_8FunctionEE5toPtrERNS_16ValueSymbolTableE
0000000000932180 w _ZN4llvm21SymbolTableListTraitsINS_14GlobalVariableEE12getListOwnerEv
0000000000932190 w _ZN4llvm21SymbolTableListTraitsINS_14GlobalVariableEE7getListEPNS_6ModuleE
00000000009321a0 w _ZN4llvm21SymbolTableListTraitsINS_14GlobalVariableEE9getSymTabEPNS_6ModuleE
00000000009321c0 w _ZN4llvm21SymbolTableListTraitsINS_14GlobalVariableEE13addNodeToListEPS1_
00000000009321f0 w _ZN4llvm21SymbolTableListTraitsINS_14GlobalVariableEE18removeNodeFromListEPS1_
0000000000932240 w _ZN4llvm21SymbolTableListTraitsINS_14GlobalVariableEE21transferNodesFromListERS2_NS_14ilist_iteratorINS_12ilist_detail12node_optionsIS1_Lb0ELb0EvEELb0ELb0EEES8_
0000000000932340 w _ZN4llvm21SymbolTableListTraitsINS_14GlobalVariableEE5toPtrEPNS_16ValueSymbolTableE
0000000000932350 w _ZN4llvm21SymbolTableListTraitsINS_14GlobalVariableEE5toPtrERNS_16ValueSymbolTableE
0000000000932360 w _ZN4llvm21SymbolTableListTraitsINS_11GlobalAliasEE12getListOwnerEv
0000000000932370 w _ZN4llvm21SymbolTableListTraitsINS_11GlobalAliasEE7getListEPNS_6ModuleE
0000000000932380 w _ZN4llvm21SymbolTableListTraitsINS_11GlobalAliasEE9getSymTabEPNS_6ModuleE
00000000009323a0 w _ZN4llvm21SymbolTableListTraitsINS_11GlobalAliasEE13addNodeToListEPS1_
00000000009323d0 w _ZN4llvm21SymbolTableListTraitsINS_11GlobalAliasEE18removeNodeFromListEPS1_
0000000000932420 w _ZN4llvm21SymbolTableListTraitsINS_11GlobalAliasEE21transferNodesFromListERS2_NS_14ilist_iteratorINS_12ilist_detail12node_optionsIS1_Lb0ELb0EvEELb0ELb0EEES8_
0000000000932520 w _ZN4llvm21SymbolTableListTraitsINS_11GlobalAliasEE5toPtrEPNS_16ValueSymbolTableE
0000000000932530 w _ZN4llvm21SymbolTableListTraitsINS_11GlobalAliasEE5toPtrERNS_16ValueSymbolTableE
0000000000932540 w _ZN4llvm21SymbolTableListTraitsINS_11GlobalIFuncEE12getListOwnerEv
0000000000932550 w _ZN4llvm21SymbolTableListTraitsINS_11GlobalIFuncEE7getListEPNS_6ModuleE
0000000000932560 w _ZN4llvm21SymbolTableListTraitsINS_11GlobalIFuncEE9getSymTabEPNS_6ModuleE
0000000000932580 w _ZN4llvm21SymbolTableListTraitsINS_11GlobalIFuncEE13addNodeToListEPS1_
00000000009325b0 w _ZN4llvm21SymbolTableListTraitsINS_11GlobalIFuncEE18removeNodeFromListEPS1_
0000000000932600 w _ZN4llvm21SymbolTableListTraitsINS_11GlobalIFuncEE21transferNodesFromListERS2_NS_14ilist_iteratorINS_12ilist_detail12node_optionsIS1_Lb0ELb0EvEELb0ELb0EEES8_
0000000000932700 w _ZN4llvm21SymbolTableListTraitsINS_11GlobalIFuncEE5toPtrEPNS_16ValueSymbolTableE
0000000000932710 w _ZN4llvm21SymbolTableListTraitsINS_11GlobalIFuncEE5toPtrERNS_16ValueSymbolTableE
0000000000932720 T _ZN4llvm6ModuleC2ENS_9StringRefERNS_11LLVMContextE
0000000000932ad0 T _ZNK4llvm6Module9createRNGEPKNS_4PassE
0000000000932c50 T _ZNK4llvm6Module11getMDKindIDENS_9StringRefE
0000000000932c60 T _ZNK4llvm6Module14getMDKindNamesERNS_15SmallVectorImplINS_9StringRefEEE
0000000000932c70 T _ZNK4llvm6Module20getOperandBundleTagsERNS_15SmallVectorImplINS_9StringRefEEE
0000000000932c80 T _ZN4llvm6Module22isValidModFlagBehaviorEPNS_8MetadataERNS0_15ModFlagBehaviorE
0000000000932d00 T _ZN4llvm6Module13setDataLayoutENS_9StringRefE
0000000000932d10 T _ZN4llvm6Module13setDataLayoutERKNS_10DataLayoutE
00000000009331a0 T _ZNK4llvm6Module13getDataLayoutEv
00000000009331b0 T _ZNK4llvm6Module28debug_compile_units_iteratordeEv
00000000009331c0 T _ZNK4llvm6Module28debug_compile_units_iteratorptEv
00000000009331d0 T _ZN4llvm6Module28debug_compile_units_iterator14SkipNoDebugCUsEv
0000000000933230 T _ZN4llvm6Module14global_objectsEv
0000000000933270 T _ZNK4llvm6Module14global_objectsEv
00000000009332b0 T _ZN4llvm6Module13global_valuesEv
0000000000933320 T _ZNK4llvm6Module13global_valuesEv
0000000000933390 T _ZN4llvm6Module15setMaterializerEPNS_14GVMaterializerE
00000000009333c0 T _ZN4llvm6Module11materializeEPNS_11GlobalValueE
0000000000933420 T _ZN4llvm6Module14materializeAllEv
00000000009334a0 T _ZN4llvm6Module19materializeMetadataEv
0000000000933510 T _ZN4llvm6Module17dropAllReferencesEv
00000000009336f0 T _ZN4llvm6ModuleD1Ev
0000000000933c80 T _ZN4llvm6Module19getInstructionCountEv
0000000000933cf0 T _ZN4llvm6Module20setOwnedMemoryBufferESt10unique_ptrINS_12MemoryBufferESt14default_deleteIS2_EE
0000000000933d70 T _ZNK4llvm6Module13getNamedValueENS_9StringRefE
0000000000933e20 T _ZN4llvm6Module19getOrInsertFunctionENS_9StringRefEPNS_12FunctionTypeENS_13AttributeListE
0000000000933f40 T _ZN4llvm6Module19getOrInsertFunctionENS_9StringRefEPNS_12FunctionTypeE
0000000000933f50 T _ZNK4llvm6Module11getFunctionENS_9StringRefE
0000000000933f80 T _ZNK4llvm6Module17getGlobalVariableENS_9StringRefEb
0000000000933fc0 T _ZN4llvm26collectUsedGlobalVariablesERKNS_6ModuleERNS_15SmallPtrSetImplIPNS_11GlobalValueEEEb
0000000000934150 T _ZN4llvm6Module17getOrInsertGlobalENS_9StringRefEPNS_4TypeENS_12function_refIFPNS_14GlobalVariableEvEEE
00000000009341e0 T _ZN4llvm6Module17getOrInsertGlobalENS_9StringRefEPNS_4TypeE
0000000000934250 T _ZNK4llvm6Module13getNamedAliasENS_9StringRefE
0000000000934280 T _ZNK4llvm6Module13getNamedIFuncENS_9StringRefE
00000000009342b0 w _ZNSt6vectorIPN4llvm10StructTypeESaIS2_EE13_M_assign_auxIN9__gnu_cxx17__normal_iteratorIPS2_S4_EEEEvT_SA_St20forward_iterator_tag
0000000000934400 T _ZNK4llvm6Module24getIdentifiedStructTypesEv
00000000009345c0 T _ZNK4llvm6Module16getNamedMetadataERKNS_5TwineE
0000000000934760 T _ZNK4llvm6Module22getModuleFlagsMetadataEv
00000000009347c0 T _ZNK4llvm6Module22getModuleFlagsMetadataERNS_15SmallVectorImplINS0_15ModuleFlagEntryEEE
0000000000934900 T _ZNK4llvm6Module13getModuleFlagENS_9StringRefE
00000000009349f0 T _ZNK4llvm6Module27getNumberRegisterParametersEv
0000000000934a30 T _ZNK4llvm6Module15getDwarfVersionEv
0000000000934a70 T _ZNK4llvm6Module15getCodeViewFlagEv
0000000000934ab0 T _ZNK4llvm6Module11getPICLevelEv
0000000000934af0 T _ZNK4llvm6Module11getPIELevelEv
0000000000934b30 T _ZNK4llvm6Module12getCodeModelEv
0000000000934b70 T _ZN4llvm6Module17getProfileSummaryEb
0000000000934bb0 T _ZNK4llvm6Module14getRtLibUseGOTEv
0000000000934bf0 T _ZNK4llvm6Module13getSDKVersionEv
0000000000934d30 T _ZN4llvm6Module24getOrInsertNamedMetadataENS_9StringRefE
0000000000934f40 T _ZN4llvm6Module30getOrInsertModuleFlagsMetadataEv
0000000000934f60 T _ZN4llvm6Module13addModuleFlagENS0_15ModFlagBehaviorENS_9StringRefEPNS_8MetadataE
0000000000935020 T _ZN4llvm6Module13addModuleFlagENS0_15ModFlagBehaviorENS_9StringRefEPNS_8ConstantE
0000000000935070 T _ZN4llvm6Module13addModuleFlagENS0_15ModFlagBehaviorENS_9StringRefEj
00000000009350c0 T _ZN4llvm6Module11setPICLevelENS_8PICLevel5LevelE
00000000009350e0 T _ZN4llvm6Module11setPIELevelENS_8PIELevel5LevelE
0000000000935100 T _ZN4llvm6Module12setCodeModelENS_9CodeModel5ModelE
0000000000935120 T _ZN4llvm6Module14setRtLibUseGOTEv
0000000000935140 T _ZN4llvm6Module13setSDKVersionERKNS_12VersionTupleE
0000000000935260 T _ZN4llvm6Module17setProfileSummaryEPNS_8MetadataENS_14ProfileSummary4KindE
00000000009352a0 T _ZN4llvm6Module13addModuleFlagEPNS_6MDNodeE
00000000009352c0 T _ZN4llvm6Module18eraseNamedMetadataEPNS_11NamedMDNodeE
0000000000935400 T _ZN4llvm6Module17getOrInsertComdatENS_9StringRefE
0000000000936610 T _ZNK4llvm9ValueInfo10isDSOLocalEv
0000000000936720 T _ZNK4llvm9ValueInfo11canAutoHideEv
0000000000936830 T _ZNK4llvm15FunctionSummary16specialRefCountsEv
00000000009368d0 T _ZNK4llvm18ModuleSummaryIndex32collectDefinedFunctionsForModuleENS_9StringRefERNS_8DenseMapImPNS_18GlobalValueSummaryENS_12DenseMapInfoImEENS_6detail12DenseMapPairImS4_EEEE
0000000000936fb0 T _ZNK4llvm18ModuleSummaryIndex21getGlobalValueSummaryEmb
0000000000937030 T _ZNK4llvm18ModuleSummaryIndex10isGUIDLiveEm
00000000009370d0 T _ZNK4llvm18ModuleSummaryIndex18canImportGlobalVarEPNS_18GlobalValueSummaryEb
0000000000937150 T _ZN4llvm18ModuleSummaryIndex19propagateAttributesERKNS_8DenseSetImNS_12DenseMapInfoImEEEE
00000000009373b0 w _ZStplIcSt11char_traitsIcESaIcEENSt7__cxx1112basic_stringIT_T0_T1_EEOS8_S9_
0000000000937490 w _ZNSt8_Rb_treeIN4llvm9ValueInfoESt4pairIKS1_bESt10_Select1stIS4_ESt4lessIS1_ESaIS4_EE8_M_eraseEPSt13_Rb_tree_nodeIS4_E
00000000009376d0 w _ZNSt8_Rb_treeIN4llvm9ValueInfoESt4pairIKS1_bESt10_Select1stIS4_ESt4lessIS1_ESaIS4_EE24_M_get_insert_unique_posERS3_
0000000000937780 w _ZNSt8_Rb_treeIN4llvm9ValueInfoESt4pairIKS1_bESt10_Select1stIS4_ESt4lessIS1_ESaIS4_EE17_M_emplace_uniqueIJRS1_bEEES2_ISt17_Rb_tree_iteratorIS4_EbEDpOT_
00000000009379b0 w _ZNSt6vectorISt4pairIN4llvm9ValueInfoENS1_10CalleeInfoEESaIS4_EE17_M_realloc_insertIJS4_EEEvN9__gnu_cxx17__normal_iteratorIPS4_S6_EEDpOT_
0000000000938bb0 w _ZNSt6vectorIN4llvm9ValueInfoESaIS1_EE17_M_realloc_insertIJRKS1_EEEvN9__gnu_cxx17__normal_iteratorIPS1_S3_EEDpOT_
0000000000938da0 w _ZNSt8_Rb_treeImSt4pairIKmPN4llvm18GlobalValueSummaryEESt10_Select1stIS5_ESt4lessImESaIS5_EE29_M_get_insert_hint_unique_posESt23_Rb_tree_const_iteratorIS5_ERS1_
00000000009390f0 w _ZNSt8_Rb_treeIN4llvm9StringRefESt4pairIKS1_St3mapImPNS0_18GlobalValueSummaryESt4lessImESaIS2_IKmS6_EEEESt10_Select1stISD_ES7_IS1_ESaISD_EE24_M_get_insert_unique_posERS3_
00000000009392c0 w _ZNSt8_Rb_treeIN4llvm9StringRefESt4pairIKS1_St3mapImPNS0_18GlobalValueSummaryESt4lessImESaIS2_IKmS6_EEEESt10_Select1stISD_ES7_IS1_ESaISD_EE29_M_get_insert_hint_unique_posESt23_Rb_tree_const_iteratorISD_ERS3_
00000000009397f0 w _ZNSt6vectorIN4llvm12scc_iteratorIPNS0_18ModuleSummaryIndexENS0_11GraphTraitsIS3_EEE12StackElementESaIS7_EE17_M_realloc_insertIJS7_EEEvN9__gnu_cxx17__normal_iteratorIPS7_S9_EEDpOT_
0000000000939970 w _ZN4llvm12scc_iteratorIPNS_18ModuleSummaryIndexENS_11GraphTraitsIS2_EEE11DFSVisitOneENS_9ValueInfoE
000000000093a000 w _ZN4llvm12scc_iteratorIPNS_18ModuleSummaryIndexENS_11GraphTraitsIS2_EEE16DFSVisitChildrenEv
000000000093a1e0 w _ZN4llvm12scc_iteratorIPNS_18ModuleSummaryIndexENS_11GraphTraitsIS2_EEE10GetNextSCCEv
000000000093aef0 T _ZN4llvm18ModuleSummaryIndex8dumpSCCsERNS_11raw_ostreamE
000000000093b660 w _ZNSt8_Rb_treeImSt4pairIKmPN4llvm18GlobalValueSummaryEESt10_Select1stIS5_ESt4lessImESaIS5_EE8_M_eraseEPSt13_Rb_tree_nodeIS5_E
000000000093b6b0 w _ZNSt8_Rb_treeIN4llvm9StringRefESt4pairIKS1_St3mapImPNS0_18GlobalValueSummaryESt4lessImESaIS2_IKmS6_EEEESt10_Select1stISD_ES7_IS1_ESaISD_EE8_M_eraseEPSt13_Rb_tree_nodeISD_E
000000000093b730 T _ZNK4llvm18ModuleSummaryIndex11exportToDotERNS_11raw_ostreamERKNS_8DenseSetImNS_12DenseMapInfoImEEEE
000000000093ec10 T _ZNK4llvm11GEPOperator20getSourceElementTypeEv
000000000093ec30 T _ZNK4llvm11GEPOperator20getResultElementTypeEv
000000000093ec50 T _ZNK4llvm11GEPOperator24accumulateConstantOffsetERKNS_10DataLayoutERNS_5APIntE
000000000093f4d0 T _ZN4llvm9OptBisectC2Ev
000000000093f500 T _ZN4llvm9OptBisect9checkPassENS_9StringRefES1_
000000000093f860 T _ZN4llvm9OptBisect13shouldRunPassEPKNS_4PassENS_9StringRefE
000000000093f8e0 T _ZNK4llvm10ModulePass27getPotentialPassManagerTypeEv
000000000093f8f0 T _ZNK4llvm4Pass16getAnalysisUsageERNS_13AnalysisUsageE
000000000093f900 T _ZNK4llvm4Pass27getPotentialPassManagerTypeEv
000000000093f910 T _ZNK4llvm4Pass14verifyAnalysisEv
000000000093f920 T _ZN4llvm4Pass26getAdjustedAnalysisPointerEPKv
000000000093f930 T _ZN4llvm4Pass18getAsImmutablePassEv
000000000093f940 T _ZN4llvm4Pass18getAsPMDataManagerEv
000000000093f950 T _ZNK4llvm12FunctionPass27getPotentialPassManagerTypeEv
000000000093fa30 T _ZNK4llvm10ModulePass17createPrinterPassERNS_11raw_ostreamERKNSt7__cxx1112basic_stringIcSt11char_traitsIcESaIcEEE
000000000093fa50 T _ZNK4llvm4Pass11getPassNameEv
000000000093fa90 T _ZNK4llvm12FunctionPass17createPrinterPassERNS_11raw_ostreamERKNSt7__cxx1112basic_stringIcSt11char_traitsIcESaIcEEE
000000000093faa0 T _ZN4llvm14PassNameParserD1Ev
000000000093fad0 T _ZN4llvm14PassNameParserD0Ev
000000000093fc30 T _ZThn8_N4llvm14PassNameParserD0Ev
000000000093fc50 T _ZThn8_N4llvm14PassNameParserD1Ev
0000000000940020 T _ZNK4llvm4Pass5printERNS_11raw_ostreamEPKNS_6ModuleE
00000000009401a0 T _ZN4llvm4Pass17dumpPassStructureEj
0000000000940690 T _ZN4llvm4PassD1Ev
00000000009406e0 T _ZN4llvm4PassD0Ev
0000000000940700 T _ZN4llvm10ModulePassD1Ev
0000000000940720 T _ZN4llvm13ImmutablePassD1Ev
0000000000940740 T _ZN4llvm13ImmutablePassD0Ev
0000000000940760 T _ZN4llvm10ModulePassD0Ev
0000000000940780 T _ZNK4llvm10ModulePass10skipModuleERNS_6ModuleE
0000000000940a40 T _ZNK4llvm4Pass22mustPreserveAnalysisIDERc
0000000000940a70 T _ZN4llvm4Pass11setResolverEPNS_16AnalysisResolverE
0000000000940a80 T _ZNK4llvm12FunctionPass12skipFunctionERKNS_8FunctionE
0000000000940d90 T _ZN4llvm4Pass14lookupPassInfoEPKv
0000000000940db0 T _ZN4llvm4Pass14lookupPassInfoENS_9StringRefE
0000000000940de0 T _ZN4llvm4Pass10createPassEPKv
0000000000940e10 T _ZN4llvm14RegisterAGBaseC1ENS_9StringRefEPKvS3_b
0000000000940e90 T _ZN4llvm24PassRegistrationListener15enumeratePassesEv
0000000000940eb0 T _ZN4llvm14PassNameParserC1ERNS_2cl6OptionE
0000000000940f10 T _ZN4llvm13AnalysisUsage15setPreservesCFGEv
0000000000940f60 T _ZN4llvm13AnalysisUsage12addPreservedENS_9StringRefE
0000000000940fd0 T _ZN4llvm13AnalysisUsage13addRequiredIDEPKv
0000000000941020 T _ZN4llvm13AnalysisUsage13addRequiredIDERc
0000000000941070 T _ZN4llvm13AnalysisUsage23addRequiredTransitiveIDERc
00000000009418e0 w _ZN4llvm13AllAnalysesOnINS_6ModuleEE2IDEv
00000000009418f0 w _ZN4llvm13AllAnalysesOnINS_8FunctionEE2IDEv
0000000000941900 w _ZN4llvm11PassManagerINS_6ModuleENS_15AnalysisManagerIS1_JEEEJEEC1Eb
0000000000941920 w _ZN4llvm11PassManagerINS_6ModuleENS_15AnalysisManagerIS1_JEEEJEEC2EOS4_
0000000000941950 w _ZN4llvm11PassManagerINS_6ModuleENS_15AnalysisManagerIS1_JEEEJEEaSEOS4_
00000000009419e0 w _ZN4llvm11PassManagerINS_8FunctionENS_15AnalysisManagerIS1_JEEEJEEC1Eb
0000000000941a00 w _ZN4llvm11PassManagerINS_8FunctionENS_15AnalysisManagerIS1_JEEEJEEC2EOS4_
0000000000941a30 w _ZN4llvm11PassManagerINS_8FunctionENS_15AnalysisManagerIS1_JEEEJEEaSEOS4_
0000000000941ac0 w _ZN4llvm15AnalysisManagerINS_6ModuleEJEEC2Eb
0000000000941b10 w _ZNK4llvm15AnalysisManagerINS_6ModuleEJEE5emptyEv
0000000000941b20 w _ZN4llvm15AnalysisManagerINS_6ModuleEJEE5clearEv
0000000000942000 w _ZN4llvm15AnalysisManagerINS_6ModuleEJEE11InvalidatorC1ERNS_13SmallDenseMapIPNS_11AnalysisKeyEbLj8ENS_12DenseMapInfoIS6_EENS_6detail12DenseMapPairIS6_bEEEERKNS_8DenseMapISt4pairIS6_PS1_ESt14_List_iteratorISF_IS6_St10unique_ptrINS9_21AnalysisResultConceptIS1_NS_17PreservedAnalysesES3_EESt14default_deleteISM_EEEENS7_ISH_EENSA_ISH_SR_EEEE
0000000000942020 w _ZN4llvm15AnalysisManagerINS_8FunctionEJEEC1Eb
0000000000942070 w _ZNK4llvm15AnalysisManagerINS_8FunctionEJEE5emptyEv
0000000000942080 w _ZN4llvm15AnalysisManagerINS_8FunctionEJEE5clearEv
0000000000942560 w _ZN4llvm15AnalysisManagerINS_8FunctionEJEE11InvalidatorC1ERNS_13SmallDenseMapIPNS_11AnalysisKeyEbLj8ENS_12DenseMapInfoIS6_EENS_6detail12DenseMapPairIS6_bEEEERKNS_8DenseMapISt4pairIS6_PS1_ESt14_List_iteratorISF_IS6_St10unique_ptrINS9_21AnalysisResultConceptIS1_NS_17PreservedAnalysesES3_EESt14default_deleteISM_EEEENS7_ISH_EENSA_ISH_SR_EEEE
0000000000942580 w _ZN4llvm25InnerAnalysisManagerProxyINS_15AnalysisManagerINS_8FunctionEJEEENS_6ModuleEJEEC1ERS3_
0000000000942590 w _ZN4llvm25InnerAnalysisManagerProxyINS_15AnalysisManagerINS_8FunctionEJEEENS_6ModuleEJEE3runERS4_RNS1_IS4_JEEE
00000000009425a0 w _ZN4llvm25InnerAnalysisManagerProxyINS_15AnalysisManagerINS_8FunctionEJEEENS_6ModuleEJEE6ResultC2ERS3_
00000000009425b0 w _ZN4llvm25InnerAnalysisManagerProxyINS_15AnalysisManagerINS_8FunctionEJEEENS_6ModuleEJEE6ResultC2EOS6_
00000000009425d0 w _ZN4llvm25InnerAnalysisManagerProxyINS_15AnalysisManagerINS_8FunctionEJEEENS_6ModuleEJEE6ResultD1Ev
0000000000942ac0 w _ZN4llvm25InnerAnalysisManagerProxyINS_15AnalysisManagerINS_8FunctionEJEEENS_6ModuleEJEE6ResultaSEOS6_
0000000000942ae0 w _ZN4llvm25InnerAnalysisManagerProxyINS_15AnalysisManagerINS_8FunctionEJEEENS_6ModuleEJEE6Result10getManagerEv
0000000000942af0 w _ZN4llvm25OuterAnalysisManagerProxyINS_15AnalysisManagerINS_6ModuleEJEEENS_8FunctionEJEEC1ERKS3_
0000000000942b00 w _ZN4llvm25OuterAnalysisManagerProxyINS_15AnalysisManagerINS_6ModuleEJEEENS_8FunctionEJEE3runERS4_RNS1_IS4_JEEE
0000000000942b40 w _ZN4llvm25OuterAnalysisManagerProxyINS_15AnalysisManagerINS_6ModuleEJEEENS_8FunctionEJEE6ResultC2ERKS3_
0000000000942b80 w _ZNK4llvm25OuterAnalysisManagerProxyINS_15AnalysisManagerINS_6ModuleEJEEENS_8FunctionEJEE6Result10getManagerEv
0000000000942b90 w _ZNK4llvm25OuterAnalysisManagerProxyINS_15AnalysisManagerINS_6ModuleEJEEENS_8FunctionEJEE6Result21getOuterInvalidationsEv
0000000000943310 w _ZN4llvm15AnalysisManagerINS_6ModuleEJEE5clearERS1_NS_9StringRefE
00000000009437f0 w _ZN4llvm15AnalysisManagerINS_6ModuleEJEE10lookUpPassEPNS_11AnalysisKeyE
0000000000943920 w _ZNK4llvm15AnalysisManagerINS_6ModuleEJEE10lookUpPassEPNS_11AnalysisKeyE
0000000000943a80 w _ZN4llvm15AnalysisManagerINS_6ModuleEJEE14invalidateImplEPNS_11AnalysisKeyERS1_
0000000000944690 w _ZNK4llvm15AnalysisManagerINS_6ModuleEJEE19getCachedResultImplEPNS_11AnalysisKeyERS1_
0000000000944870 w _ZN4llvm15AnalysisManagerINS_8FunctionEJEE5clearERS1_NS_9StringRefE
0000000000944d10 w _ZN4llvm15AnalysisManagerINS_8FunctionEJEE10lookUpPassEPNS_11AnalysisKeyE
0000000000944e40 w _ZNK4llvm15AnalysisManagerINS_8FunctionEJEE10lookUpPassEPNS_11AnalysisKeyE
0000000000944fa0 w _ZN4llvm15AnalysisManagerINS_8FunctionEJEE14invalidateImplEPNS_11AnalysisKeyERS1_
0000000000945bb0 w _ZNK4llvm15AnalysisManagerINS_8FunctionEJEE19getCachedResultImplEPNS_11AnalysisKeyERS1_
00000000009469c0 w _ZN4llvm15AnalysisManagerINS_6ModuleEJEE11Invalidator10invalidateEPNS_11AnalysisKeyERS1_RKNS_17PreservedAnalysesE
0000000000947020 w _ZN4llvm15AnalysisManagerINS_8FunctionEJEE11Invalidator10invalidateEPNS_11AnalysisKeyERS1_RKNS_17PreservedAnalysesE
0000000000947030 w _ZN4llvm15AnalysisManagerINS_6ModuleEJEE10invalidateERS1_RKNS_17PreservedAnalysesE
0000000000948120 w _ZSt9__find_ifIPPN4llvm11AnalysisKeyEN9__gnu_cxx5__ops10_Iter_predIZNS0_25OuterAnalysisManagerProxyINS0_15AnalysisManagerINS0_6ModuleEJEEENS0_8FunctionEJEE6Result10invalidateERSB_RKNS0_17PreservedAnalysesERNS8_ISB_JEE11InvalidatorEEUlS2_E_EEET_SN_SN_T0_St26random_access_iterator_tag
0000000000949bc0 w _ZN4llvm25OuterAnalysisManagerProxyINS_15AnalysisManagerINS_6ModuleEJEEENS_8FunctionEJEE6Result10invalidateERS4_RKNS_17PreservedAnalysesERNS1_IS4_JEE11InvalidatorE
000000000094b450 w _ZN4llvm15AnalysisManagerINS_6ModuleEJEE13getResultImplEPNS_11AnalysisKeyERS1_
000000000094bce0 w _ZN4llvm11PassManagerINS_6ModuleENS_15AnalysisManagerIS1_JEEEJEE3runERS1_RS3_
000000000094ca40 w _ZN4llvm15AnalysisManagerINS_8FunctionEJEE10invalidateERS1_RKNS_17PreservedAnalysesE
000000000094db20 T _ZN4llvm25InnerAnalysisManagerProxyINS_15AnalysisManagerINS_8FunctionEJEEENS_6ModuleEJEE6Result10invalidateERS4_RKNS_17PreservedAnalysesERNS1_IS4_JEE11InvalidatorE
000000000094f080 w _ZN4llvm15AnalysisManagerINS_8FunctionEJEE13getResultImplEPNS_11AnalysisKeyERS1_
000000000094fc40 w _ZN4llvm11PassManagerINS_8FunctionENS_15AnalysisManagerIS1_JEEEJEE3runERS1_RS3_
0000000000950760 T _ZN4llvm12PassRegistry15getPassRegistryEv
00000000009507b0 T _ZN4llvm12PassRegistryD1Ev
00000000009508d0 T _ZN4llvm12PassRegistry26removeRegistrationListenerEPNS_24PassRegistrationListenerE
0000000000950a80 w _ZNSt6vectorIPN4llvm24PassRegistrationListenerESaIS2_EE17_M_realloc_insertIJRKS2_EEEvN9__gnu_cxx17__normal_iteratorIPS2_S4_EEDpOT_
0000000000950be0 T _ZN4llvm12PassRegistry23addRegistrationListenerEPNS_24PassRegistrationListenerE
0000000000950cd0 T _ZNK4llvm12PassRegistry11getPassInfoEPKv
0000000000950ed0 T _ZNK4llvm12PassRegistry11getPassInfoENS_9StringRefE
0000000000951000 w _ZNSt6vectorISt10unique_ptrIKN4llvm8PassInfoESt14default_deleteIS3_EESaIS6_EE17_M_realloc_insertIJS6_EEEvN9__gnu_cxx17__normal_iteratorIPS6_S8_EEDpOT_
0000000000951270 T _ZN4llvm12PassRegistry13enumerateWithEPNS_24PassRegistrationListenerE
0000000000951460 T _ZN4llvm12PassRegistry12registerPassERKNS_8PassInfoEb
0000000000951d70 T _ZN4llvm12PassRegistry21registerAnalysisGroupEPKvS2_RNS_8PassInfoEbb
0000000000952640 T _ZN4llvm21reportAndResetTimingsEPNS_11raw_ostreamE
00000000009526d0 T _ZN4llvm17TimePassesHandlerC1Eb
0000000000952770 T _ZN4llvm17TimePassesHandler12setOutStreamERNS_11raw_ostreamE
0000000000952780 T _ZN4llvm17TimePassesHandler5printEv
0000000000952810 T _ZNK4llvm17TimePassesHandler4dumpEv
0000000000952f80 T _ZN4llvm17TimePassesHandler9stopTimerENS_9StringRefE
0000000000952fc0 T _ZN4llvm17TimePassesHandler12runAfterPassENS_9StringRefE
0000000000953310 T _ZN4llvm12getPassTimerEPNS_4PassE
0000000000954470 T _ZN4llvm17TimePassesHandler12getPassTimerENS_9StringRefE
0000000000954e60 T _ZN4llvm17TimePassesHandler10startTimerENS_9StringRefE
0000000000954ef0 T _ZN4llvm17TimePassesHandler13runBeforePassENS_9StringRefE
00000000009550e0 w _ZN4llvm23SmallVectorTemplateBaseINS_15unique_functionIFbNS_9StringRefENS_3AnyEEEELb0EE4growEm
0000000000955300 w _ZN4llvm23SmallVectorTemplateBaseINS_15unique_functionIFvNS_9StringRefENS_3AnyEEEELb0EE4growEm
0000000000955520 w _ZN4llvm23SmallVectorTemplateBaseINS_15unique_functionIFvNS_9StringRefEEEELb0EE4growEm
00000000009556b0 T _ZN4llvm17TimePassesHandler17registerCallbacksERNS_28PassInstrumentationCallbacksE
0000000000955ca0 T _ZN4llvm14RemarkStreamerC2ESt10unique_ptrINS_7remarks16RemarkSerializerESt14default_deleteIS3_EENS_8OptionalINS_9StringRefEEE
0000000000955e10 T _ZN4llvm14RemarkStreamer9setFilterENS_9StringRefE
0000000000955f30 T _ZN4llvm14RemarkStreamer8toRemarkERKNS_30DiagnosticInfoOptimizationBaseE
0000000000956260 T _ZN4llvm14RemarkStreamer4emitERKNS_30DiagnosticInfoOptimizationBaseE
0000000000956310 T _ZNK4llvm14RemarkStreamer12needsSectionEv
00000000009563b0 w _ZN4llvm15handleErrorImplIZNS_20RemarkSetupErrorInfoINS_22RemarkSetupFormatErrorEEC4ENS_5ErrorEEUlRKNS_13ErrorInfoBaseEE_JEEES4_St10unique_ptrIS5_St14default_deleteIS5_EEOT_DpOT0_
00000000009566e0 w _ZN4llvm12handleErrorsIJZNS_20RemarkSetupErrorInfoINS_22RemarkSetupFormatErrorEEC4ENS_5ErrorEEUlRKNS_13ErrorInfoBaseEE_EEES4_S4_DpOT_
0000000000956c20 w _ZN4llvm15handleErrorImplIZNS_20RemarkSetupErrorInfoINS_20RemarkSetupFileErrorEEC4ENS_5ErrorEEUlRKNS_13ErrorInfoBaseEE_JEEES4_St10unique_ptrIS5_St14default_deleteIS5_EEOT_DpOT0_
0000000000956f50 w _ZN4llvm12handleErrorsIJZNS_20RemarkSetupErrorInfoINS_20RemarkSetupFileErrorEEC4ENS_5ErrorEEUlRKNS_13ErrorInfoBaseEE_EEES4_S4_DpOT_
0000000000957490 w _ZN4llvm15handleErrorImplIZNS_20RemarkSetupErrorInfoINS_23RemarkSetupPatternErrorEEC4ENS_5ErrorEEUlRKNS_13ErrorInfoBaseEE_JEEES4_St10unique_ptrIS5_St14default_deleteIS5_EEOT_DpOT0_
00000000009577c0 w _ZN4llvm12handleErrorsIJZNS_20RemarkSetupErrorInfoINS_23RemarkSetupPatternErrorEEC4ENS_5ErrorEEUlRKNS_13ErrorInfoBaseEE_EEES4_S4_DpOT_
0000000000957d00 T _ZN4llvm24setupOptimizationRemarksERNS_11LLVMContextERNS_11raw_ostreamENS_9StringRefES4_bj
0000000000958230 T _ZN4llvm24setupOptimizationRemarksERNS_11LLVMContextENS_9StringRefES2_S2_bj
0000000000958d20 T _ZN4llvm33initializeSafepointIRVerifierPassERNS_12PassRegistryE
0000000000958dd0 T _ZN4llvm29createSafepointIRVerifierPassEv
0000000000958e70 w _ZNSt6vectorIPKN4llvm10BasicBlockESaIS3_EE17_M_realloc_insertIJRKS3_EEEvN9__gnu_cxx17__normal_iteratorIPS3_S5_EEDpOT_
0000000000958fd0 w _ZNSt6vectorIPKN4llvm3UseESaIS3_EE17_M_realloc_insertIJRKS3_EEEvN9__gnu_cxx17__normal_iteratorIPS3_S5_EEDpOT_
00000000009592f0 w _ZNSt6vectorIPKN4llvm10BasicBlockESaIS3_EE17_M_realloc_insertIJS3_EEEvN9__gnu_cxx17__normal_iteratorIPS3_S5_EEDpOT_
000000000095aee0 w _ZN4llvm13set_intersectINS_8DenseSetIPKNS_5ValueENS_12DenseMapInfoIS4_EEEES7_EEvRT_RKT0_
000000000095b130 w _ZN4llvm9set_unionINS_8DenseSetIPKNS_5ValueENS_12DenseMapInfoIS4_EEEES7_EEbRT_RKT0_
0000000000960ad0 w _ZNSt6vectorISt4pairIPKN4llvm10BasicBlockENS1_12SuccIteratorIKNS1_11InstructionES3_EEESaIS9_EE17_M_realloc_insertIJS9_EEEvN9__gnu_cxx17__normal_iteratorIPS9_SB_EEDpOT_
0000000000965be0 T _ZN4llvm23SafepointIRVerifierPass3runERNS_8FunctionERNS_15AnalysisManagerIS1_JEEE
00000000009669b0 T _ZN4llvm17verifySafepointIRERNS_8FunctionE
0000000000966c90 w _ZNSt6vectorIN4llvm19ProfileSummaryEntryESaIS1_EE12emplace_backIJmmmEEEvDpOT_
0000000000966e40 T _ZN4llvm14ProfileSummary9getFromMDEPNS_8MetadataE
0000000000967270 w _ZNSt6vectorIPN4llvm8MetadataESaIS2_EE17_M_realloc_insertIJS2_EEEvN9__gnu_cxx17__normal_iteratorIPS2_S4_EEDpOT_
00000000009673d0 T _ZN4llvm14ProfileSummary20getDetailedSummaryMDERNS_11LLVMContextE
00000000009675a0 T _ZN4llvm14ProfileSummary5getMDERNS_11LLVMContextE
0000000000967900 T _ZN4llvm12isStatepointEPKNS_8CallBaseE
0000000000967930 T _ZN4llvm12isStatepointEPKNS_5ValueE
0000000000967970 T _ZN4llvm12isStatepointERKNS_5ValueE
0000000000967980 T _ZN4llvm12isGCRelocateEPKNS_8CallBaseE
00000000009679b0 T _ZN4llvm12isGCRelocateEPKNS_5ValueE
00000000009679f0 T _ZN4llvm10isGCResultEPKNS_8CallBaseE
0000000000967a20 T _ZN4llvm10isGCResultEPKNS_5ValueE
0000000000967a60 T _ZN4llvm25isStatepointDirectiveAttrENS_9AttributeE
0000000000967ac0 T _ZN4llvm34parseStatepointDirectivesFromAttrsENS_13AttributeListE
0000000000967c10 T _ZNK4llvm4Type11isIntegerTyEj
0000000000967c30 T _ZNK4llvm4Type9isEmptyTyEv
0000000000967cb0 T _ZNK4llvm4Type22getPrimitiveSizeInBitsEv
0000000000967d80 T _ZNK4llvm4Type22canLosslesslyBitCastToEPS0_
0000000000967e80 T _ZNK4llvm4Type19getScalarSizeInBitsEv
0000000000967ea0 T _ZNK4llvm4Type18getFPMantissaWidthEv
0000000000967f20 T _ZN4llvm4Type9getVoidTyERNS_11LLVMContextE
0000000000967f30 T _ZN4llvm4Type10getLabelTyERNS_11LLVMContextE
0000000000967f40 T _ZN4llvm4Type9getHalfTyERNS_11LLVMContextE
0000000000967f50 T _ZN4llvm4Type10getFloatTyERNS_11LLVMContextE
0000000000967f60 T _ZN4llvm4Type11getDoubleTyERNS_11LLVMContextE
0000000000967f70 T _ZN4llvm4Type13getMetadataTyERNS_11LLVMContextE
0000000000967f80 T _ZN4llvm4Type10getTokenTyERNS_11LLVMContextE
0000000000967f90 T _ZN4llvm4Type13getX86_FP80TyERNS_11LLVMContextE
0000000000967fa0 T _ZN4llvm4Type10getFP128TyERNS_11LLVMContextE
0000000000967fb0 T _ZN4llvm4Type14getPPC_FP128TyERNS_11LLVMContextE
0000000000967fc0 T _ZN4llvm4Type12getX86_MMXTyERNS_11LLVMContextE
0000000000967fd0 T _ZN4llvm4Type16getPrimitiveTypeERNS_11LLVMContextENS0_6TypeIDE
0000000000968050 T _ZN4llvm4Type9getInt1TyERNS_11LLVMContextE
0000000000968060 T _ZN4llvm4Type9getInt8TyERNS_11LLVMContextE
0000000000968070 T _ZN4llvm4Type10getInt16TyERNS_11LLVMContextE
0000000000968080 T _ZN4llvm4Type10getInt32TyERNS_11LLVMContextE
0000000000968090 T _ZN4llvm4Type10getInt64TyERNS_11LLVMContextE
00000000009680a0 T _ZN4llvm4Type11getInt128TyERNS_11LLVMContextE
00000000009680c0 T _ZN4llvm11IntegerType3getERNS_11LLVMContextEj
0000000000968880 T _ZN4llvm4Type9getIntNTyERNS_11LLVMContextEj
0000000000968890 T _ZNK4llvm11IntegerType19isPowerOf2ByteWidthEv
00000000009688c0 T _ZNK4llvm11IntegerType7getMaskEv
0000000000968910 T _ZN4llvm12FunctionTypeC1EPNS_4TypeENS_8ArrayRefIS2_EEb
00000000009689d0 T _ZN4llvm12FunctionType17isValidReturnTypeEPNS_4TypeE
00000000009689f0 T _ZN4llvm12FunctionType19isValidArgumentTypeEPNS_4TypeE
0000000000968a10 T _ZN4llvm10StructType7setBodyENS_8ArrayRefIPNS_4TypeEEEb
0000000000968d80 T _ZNK4llvm10StructType7isSizedEPNS_15SmallPtrSetImplIPNS_4TypeEEE
0000000000968f50 T _ZNK4llvm4Type18isSizedDerivedTypeEPNS_15SmallPtrSetImplIPS0_EE
0000000000968fb0 T _ZNK4llvm10StructType7getNameEv
0000000000968fd0 T _ZN4llvm10StructType18isValidElementTypeEPNS_4TypeE
0000000000969010 T _ZNK4llvm10StructType17isLayoutIdenticalEPS0_
0000000000969090 T _ZNK4llvm13CompositeType14getTypeAtIndexEPKNS_5ValueE
00000000009690d0 T _ZNK4llvm13CompositeType14getTypeAtIndexEj
00000000009690f0 T _ZNK4llvm13CompositeType10indexValidEPKNS_5ValueE
00000000009691d0 T _ZNK4llvm13CompositeType10indexValidEj
00000000009691f0 T _ZN4llvm9ArrayTypeC1EPNS_4TypeEm
0000000000969220 T _ZN4llvm9ArrayType3getEPNS_4TypeEm
0000000000969bd0 T _ZN4llvm9ArrayType18isValidElementTypeEPNS_4TypeE
0000000000969c10 T _ZN4llvm10VectorTypeC2EPNS_4TypeENS_12ElementCountE
0000000000969c50 T _ZN4llvm10VectorType3getEPNS_4TypeENS_12ElementCountE
000000000096a7f0 T _ZN4llvm10VectorType18isValidElementTypeEPNS_4TypeE
000000000096a820 T _ZN4llvm11PointerTypeC1EPNS_4TypeEj
000000000096a860 T _ZN4llvm11PointerType3getEPNS_4TypeEj
000000000096b850 T _ZNK4llvm4Type12getPointerToEj
000000000096b860 T _ZN4llvm4Type12getHalfPtrTyERNS_11LLVMContextEj
000000000096b880 T _ZN4llvm4Type13getFloatPtrTyERNS_11LLVMContextEj
000000000096b8a0 T _ZN4llvm4Type14getDoublePtrTyERNS_11LLVMContextEj
000000000096b8c0 T _ZN4llvm4Type16getX86_FP80PtrTyERNS_11LLVMContextEj
000000000096b8e0 T _ZN4llvm4Type13getFP128PtrTyERNS_11LLVMContextEj
000000000096b900 T _ZN4llvm4Type17getPPC_FP128PtrTyERNS_11LLVMContextEj
000000000096b920 T _ZN4llvm4Type15getX86_MMXPtrTyERNS_11LLVMContextEj
000000000096b940 T _ZN4llvm4Type12getIntNPtrTyERNS_11LLVMContextEjj
000000000096b960 T _ZN4llvm4Type12getInt1PtrTyERNS_11LLVMContextEj
000000000096b980 T _ZN4llvm4Type12getInt8PtrTyERNS_11LLVMContextEj
000000000096b9a0 T _ZN4llvm4Type13getInt16PtrTyERNS_11LLVMContextEj
000000000096b9c0 T _ZN4llvm4Type13getInt32PtrTyERNS_11LLVMContextEj
000000000096b9e0 T _ZN4llvm4Type13getInt64PtrTyERNS_11LLVMContextEj
000000000096ba00 T _ZN4llvm11PointerType18isValidElementTypeEPNS_4TypeE
000000000096ba30 T _ZN4llvm11PointerType24isLoadableOrStorableTypeEPNS_4TypeE
000000000096ba50 w _ZN4llvm12hash_combineIJPKNS_4TypeENS_9hash_codeEbEEES4_DpRKT_
000000000096bbe0 w _ZN4llvm12hash_combineIJNS_9hash_codeEbEEES1_DpRKT_
000000000096bd00 w _ZN4llvm7hashing6detail23hash_combine_range_implIKPNS_4TypeEEENSt9enable_ifIXsrNS1_16is_hashable_dataIT_EE5valueENS_9hash_codeEE4typeEPS8_SD_
000000000096c440 T _ZN4llvm12FunctionType3getEPNS_4TypeENS_8ArrayRefIS2_EEb
000000000096d340 T _ZN4llvm12FunctionType3getEPNS_4TypeEb
000000000096d3b0 T _ZN4llvm10StructType3getERNS_11LLVMContextENS_8ArrayRefIPNS_4TypeEEEb
000000000096e020 T _ZN4llvm10StructType3getERNS_11LLVMContextEb
000000000096e080 T _ZN4llvm10StructType7setNameENS_9StringRefE
000000000096e5c0 T _ZN4llvm10StructType6createERNS_11LLVMContextENS_9StringRefE
000000000096e750 T _ZN4llvm10StructType6createERNS_11LLVMContextE
000000000096e760 T _ZN4llvm10StructType6createERNS_11LLVMContextENS_8ArrayRefIPNS_4TypeEEENS_9StringRefEb
000000000096e7b0 T _ZN4llvm10StructType6createERNS_11LLVMContextENS_8ArrayRefIPNS_4TypeEEE
000000000096e7d0 T _ZN4llvm10StructType6createENS_8ArrayRefIPNS_4TypeEEENS_9StringRefEb
000000000096e800 T _ZN4llvm10StructType6createENS_8ArrayRefIPNS_4TypeEEE
000000000096e860 T _ZNK4llvm6Module13getTypeByNameENS_9StringRefE
000000000096e930 T _ZN4llvm10TypeFinder5clearEv
000000000096ee10 w _ZNSt6vectorIPN4llvm10StructTypeESaIS2_EE17_M_realloc_insertIJRKS2_EEEvN9__gnu_cxx17__normal_iteratorIPS2_S4_EEDpOT_
000000000096efb0 T _ZN4llvm10TypeFinder15incorporateTypeEPNS_4TypeE
000000000096feb0 T _ZN4llvm10TypeFinder17incorporateMDNodeEPKNS_6MDNodeE
0000000000970620 T _ZN4llvm10TypeFinder16incorporateValueEPKNS_5ValueE
0000000000970d40 T _ZN4llvm10TypeFinder3runERKNS_6ModuleEb
0000000000971170 T _ZN4llvm3Use4swapERS0_
0000000000971270 T _ZN4llvm3Use8initTagsEPS0_S1_
0000000000971300 T _ZN4llvm3Use3zapEPS0_PKS0_b
0000000000971360 T _ZNK4llvm3Use14getImpliedUserEv
00000000009713d0 T _ZNK4llvm3Use7getUserEv
0000000000971400 T _ZNK4llvm3Use12getOperandNoEv
0000000000971450 T _ZN4llvm4User17replaceUsesOfWithEPNS_5ValueES2_
00000000009715c0 T _ZN4llvm4User16allocHungoffUsesEjb
0000000000971610 T _ZN4llvm4User15growHungoffUsesEjb
0000000000971770 T _ZN4llvm4User13getDescriptorEv
00000000009717a0 T _ZNK4llvm4User13getDescriptorEv
00000000009717c0 T _ZN4llvm4UsernwEmj
0000000000971820 T _ZN4llvm4UsernwEmjj
00000000009718e0 T _ZN4llvm4UsernwEm
0000000000971920 T _ZN4llvm4UserdlEPv
00000000009719d0 T _ZNK4llvm5Value30assertModuleIsMaterializedImplEv
0000000000971aa0 T _ZN4llvm5ValueC2EPNS_4TypeEj
0000000000971ad0 T _ZNK4llvm5Value8hasNUsesEj
0000000000971b00 T _ZNK4llvm5Value14hasNUsesOrMoreEj
0000000000971b40 T _ZNK4llvm5Value18isUsedInBasicBlockEPKNS_10BasicBlockE
0000000000971d00 T _ZNK4llvm5Value10getNumUsesEv
0000000000971d30 T _ZN4llvm5Value23replaceUsesOutsideBlockEPS0_PNS_10BasicBlockE
0000000000971e50 T _ZNK4llvm5Value17stripPointerCastsEv
0000000000972160 T _ZNK4llvm5Value27stripPointerCastsAndAliasesEv
00000000009724c0 T _ZNK4llvm5Value35stripPointerCastsSameRepresentationEv
00000000009727e0 T _ZNK4llvm5Value28stripInBoundsConstantOffsetsEv
0000000000972aa0 T _ZNK4llvm5Value35stripPointerCastsAndInvariantGroupsEv
0000000000972e50 T _ZNK4llvm5Value33stripAndAccumulateConstantOffsetsERKNS_10DataLayoutERNS_5APIntEb
0000000000973310 T _ZNK4llvm5Value20stripInBoundsOffsetsEv
0000000000973550 T _ZNK4llvm5Value30getPointerDereferenceableBytesERKNS_10DataLayoutERb
0000000000973850 T _ZNK4llvm5Value19getPointerAlignmentERKNS_10DataLayoutE
0000000000973c70 T _ZNK4llvm5Value16DoPHITranslationEPKNS_10BasicBlockES3_
0000000000973d60 T _ZNK4llvm5Value10getContextEv
0000000000973d80 T _ZN4llvm5Value12setValueNameEPNS_14StringMapEntryIPS0_EE
0000000000974480 T _ZN4llvm5Value14reverseUseListEv
00000000009744e0 T _ZNK4llvm5Value12isSwiftErrorEv
0000000000974510 T _ZN4llvm15ValueHandleBase20AddToExistingUseListEPPS0_
0000000000974550 T _ZN4llvm15ValueHandleBase25AddToExistingUseListAfterEPS0_
0000000000974590 T _ZN4llvm15ValueHandleBase17RemoveFromUseListEv
00000000009746c0 T _ZN4llvm15ValueHandleBase14ValueIsDeletedEPNS_5ValueE
0000000000974e10 T _ZNK4llvm5Value12getValueNameEv
0000000000974f20 T _ZNK4llvm5Value7getNameEv
0000000000974f50 T _ZN4llvm5Value16destroyValueNameEv
0000000000974f80 T _ZN4llvm5ValueD1Ev
0000000000974fc0 T _ZN4llvm5Value11deleteValueEv
0000000000975230 T _ZN4llvm5Value11setNameImplERKNS_5TwineE
0000000000975540 T _ZN4llvm5Value7setNameERKNS_5TwineE
0000000000975570 T _ZN4llvm5Value8takeNameEPS0_
0000000000975760 T _ZN4llvm15ValueHandleBase12AddToUseListEv
0000000000976410 T _ZN4llvm15ValueHandleBase12ValueIsRAUWdEPNS_5ValueES2_
0000000000976c30 T _ZN4llvm5Value6doRAUWEPS0_NS0_19ReplaceMetadataUsesE
0000000000976de0 T _ZN4llvm5Value18replaceAllUsesWithEPS0_
0000000000976df0 T _ZN4llvm5Value26replaceNonMetadataUsesWithEPS0_
0000000000976e10 T _ZN4llvm16ValueSymbolTableD2Ev
0000000000976e70 T _ZN4llvm16ValueSymbolTable15removeValueNameEPNS_14StringMapEntryIPNS_5ValueEEE
0000000000976ec0 T _ZN4llvm16ValueSymbolTable14makeUniqueNameEPNS_5ValueERNS_11SmallStringILj256EEE
00000000009772c0 T _ZN4llvm16ValueSymbolTable13reinsertValueEPNS_5ValueE
0000000000977440 T _ZN4llvm16ValueSymbolTable15createValueNameENS_9StringRefEPNS_5ValueE
000000000097e000 T _ZN4llvm12TBAAVerifier28getFieldNodeFromTBAABaseNodeERNS_11InstructionEPKNS_6MDNodeERNS_5APIntEb
000000000097e180 T _ZN4llvm32initializeVerifierLegacyPassPassERNS_12PassRegistryE
000000000097e290 T _ZN4llvm18createVerifierPassEb
000000000097e300 T _ZN4llvm12VerifierPass3runERNS_6ModuleERNS_15AnalysisManagerIS1_JEEE
000000000097e3b0 T _ZN4llvm12VerifierPass3runERNS_8FunctionERNS_15AnalysisManagerIS1_JEEE
0000000000986e70 w _ZNSt6vectorISt4pairIPN4llvm11InstructionES3_ESaIS4_EE17_M_realloc_insertIJS4_EEEvN9__gnu_cxx17__normal_iteratorIPS4_S6_EEDpOT_
000000000098ccb0 w _ZSt16__insertion_sortIPSt4pairIPN4llvm10BasicBlockEPNS1_5ValueEEN9__gnu_cxx5__ops15_Iter_less_iterEEvT_SB_T0_
000000000098fc10 T _ZN4llvm12TBAAVerifier21isValidScalarTBAANodeEPKNS_6MDNodeE
000000000098ffe0 T _ZN4llvm12TBAAVerifier22verifyTBAABaseNodeImplERNS_11InstructionEPKNS_6MDNodeEb
0000000000990650 T _ZN4llvm12TBAAVerifier18verifyTBAABaseNodeERNS_11InstructionEPKNS_6MDNodeEb
0000000000990940 T _ZN4llvm12TBAAVerifier17visitTBAAMetadataERNS_11InstructionEPKNS_6MDNodeE
00000000009998a0 w _ZSt13__adjust_heapIPPN4llvm10BasicBlockElS2_N9__gnu_cxx5__ops15_Iter_less_iterEEvT_T0_S8_T1_T2_
0000000000999ba0 w _ZSt13__adjust_heapIPSt4pairIPN4llvm10BasicBlockEPNS1_5ValueEElS6_N9__gnu_cxx5__ops15_Iter_less_iterEEvT_T0_SC_T1_T2_
000000000099aa80 T _ZN4llvm14verifyFunctionERKNS_8FunctionEPNS_11raw_ostreamE
000000000099b710 T _ZN4llvm16VerifierAnalysis3runERNS_8FunctionERNS_15AnalysisManagerIS1_JEEE
000000000099b750 T _ZN4llvm12verifyModuleERKNS_6ModuleEPNS_11raw_ostreamEPb
000000000099c470 T _ZN4llvm16VerifierAnalysis3runERNS_6ModuleERNS_15AnalysisManagerIS1_JEEE
000000000099d3d0 T _ZN4llvm11writeModuleERKNS_6ModuleEPhm
000000000099d4d0 w _ZNSt6vectorIPKcSaIS1_EE7reserveEm
000000000099d590 T _ZN4llvm17runFuzzerOnInputsEiPPcPFiPKhmEPFiPiPS1_E
000000000099dbd0 T _ZN4llvm11parseModuleEPKhmRNS_11LLVMContextE
000000000099e0e0 T _ZN4llvm14parseAndVerifyEPKhmRNS_11LLVMContextE
000000000099e190 T _ZN4llvm17parseFuzzerCLOptsEiPPc
000000000099e350 T _ZN4llvm27handleExecNameEncodedBEOptsENS_9StringRefE
000000000099f170 T _ZN4llvm34handleExecNameEncodedOptimizerOptsENS_9StringRefE
00000000009a08b0 T _ZN4llvm21InstDeleterIRStrategy9getWeightEmmm
00000000009a0fc0 T _ZN4llvm18InjectorIRStrategy13getDefaultOpsEv
00000000009a1170 w _ZNSt6vectorISt10unique_ptrIN4llvm6detail11PassConceptINS1_8FunctionENS1_15AnalysisManagerIS4_JEEEJEEESt14default_deleteIS7_EESaISA_EE17_M_realloc_insertIJPNS2_9PassModelIS4_NS1_7DCEPassENS1_17PreservedAnalysesES6_JEEEEEEvN9__gnu_cxx17__normal_iteratorIPSA_SC_EEDpOT_
00000000009a1380 w _ZN4llvm23SmallVectorTemplateBaseINS_8fuzzerop10SourcePredELb0EE4growEm
00000000009a15a0 w _ZN4llvm15SmallVectorImplINS_8fuzzerop10SourcePredEEaSERKS3_
00000000009a1a00 w _ZNSt23mersenne_twister_engineImLm32ELm624ELm397ELm31ELm2567483615ELm11ELm4294967295ELm7ELm2636928640ELm15ELm4022730752ELm18ELm1812433253EEclEv
00000000009a1b60 w _ZNSt24uniform_int_distributionImEclISt23mersenne_twister_engineImLm32ELm624ELm397ELm31ELm2567483615ELm11ELm4294967295ELm7ELm2636928640ELm15ELm4022730752ELm18ELm1812433253EEEEmRT_RKNS0_10param_typeE
00000000009a1c80 T _ZN4llvm9IRMutator12mutateModuleERNS_6ModuleEimm
00000000009a1f70 T _ZN4llvm18InjectorIRStrategy15chooseOperationEPNS_5ValueERNS_15RandomIRBuilderE
00000000009a2380 T _ZN4llvm18InjectorIRStrategy6mutateERNS_10BasicBlockERNS_15RandomIRBuilderE
00000000009a28a0 T _ZN4llvm18IRMutationStrategy6mutateERNS_8FunctionERNS_15RandomIRBuilderE
00000000009a2990 T _ZN4llvm18IRMutationStrategy6mutateERNS_6ModuleERNS_15RandomIRBuilderE
00000000009a2b70 T _ZN4llvm18IRMutationStrategy6mutateERNS_10BasicBlockERNS_15RandomIRBuilderE
00000000009a2c60 T _ZN4llvm21InstDeleterIRStrategy6mutateERNS_11InstructionERNS_15RandomIRBuilderE
00000000009a61d0 T _ZN4llvm18InjectorIRStrategy6mutateERNS_8FunctionERNS_15RandomIRBuilderE
00000000009a61f0 T _ZN4llvm21InstDeleterIRStrategy6mutateERNS_8FunctionERNS_15RandomIRBuilderE
00000000009a63a0 w _ZNSt6vectorIPN4llvm8ConstantESaIS2_EE17_M_realloc_insertIJS2_EEEvN9__gnu_cxx17__normal_iteratorIPS2_S4_EEDpOT_
00000000009a6500 T _ZN4llvm8fuzzerop21makeConstantsWithTypeEPNS_4TypeERSt6vectorIPNS_8ConstantESaIS5_EE
00000000009a6ce0 T _ZN4llvm8fuzzerop21makeConstantsWithTypeEPNS_4TypeE
00000000009a7350 w _ZNSt17_Function_handlerIFSt6vectorIPN4llvm8ConstantESaIS3_EENS1_8ArrayRefIPNS1_5ValueEEENS6_IPNS1_4TypeEEEEZNS1_8fuzzerop10SourcePredC4ESt8functionIFbS9_PKS7_EENS1_8NoneTypeEEUlS9_SC_E_E9_M_invokeERKSt9_Any_dataOS9_OSC_
00000000009a7da0 w _ZNSt14_Function_base13_Base_managerIZN4llvm8fuzzerop10SourcePredC4ESt8functionIFbNS1_8ArrayRefIPNS1_5ValueEEEPKS6_EENS1_8NoneTypeEEUlS8_NS5_IPNS1_4TypeEEEE_E10_M_managerERSt9_Any_dataRKSJ_St18_Manager_operation
00000000009a8630 T _ZN4llvm8fuzzerop20splitBlockDescriptorEj
00000000009a8a60 T _ZN4llvm8fuzzerop23insertElementDescriptorEj
00000000009a9050 T _ZN4llvm8fuzzerop23shuffleVectorDescriptorEj
00000000009a9570 T _ZN4llvm8fuzzerop21insertValueDescriptorEj
00000000009a9a90 T _ZN4llvm8fuzzerop22extractValueDescriptorEj
00000000009a9ea0 T _ZN4llvm8fuzzerop24extractElementDescriptorEj
00000000009aa380 T _ZN4llvm8fuzzerop13gepDescriptorEj
00000000009aa790 T _ZN4llvm8fuzzerop15cmpOpDescriptorEjNS_11Instruction8OtherOpsENS_7CmpInst9PredicateE
00000000009aafc0 T _ZN4llvm8fuzzerop15binOpDescriptorEjNS_11Instruction9BinaryOpsE
00000000009ab7d0 w _ZN4llvm15SmallVectorImplINS_8fuzzerop10SourcePredEEaSEOS3_
00000000009abde0 w _ZNSt6vectorIN4llvm8fuzzerop12OpDescriptorESaIS2_EE17_M_realloc_insertIJS2_EEEvN9__gnu_cxx17__normal_iteratorIPS2_S4_EEDpOT_
00000000009ac280 T _ZN4llvm24describeFuzzerPointerOpsERSt6vectorINS_8fuzzerop12OpDescriptorESaIS2_EE
00000000009ac440 T _ZN4llvm28describeFuzzerControlFlowOpsERSt6vectorINS_8fuzzerop12OpDescriptorESaIS2_EE
00000000009ac600 T _ZN4llvm26describeFuzzerAggregateOpsERSt6vectorINS_8fuzzerop12OpDescriptorESaIS2_EE
00000000009ac940 T _ZN4llvm23describeFuzzerVectorOpsERSt6vectorINS_8fuzzerop12OpDescriptorESaIS2_EE
00000000009ace00 T _ZN4llvm22describeFuzzerFloatOpsERSt6vectorINS_8fuzzerop12OpDescriptorESaIS2_EE
00000000009aedd0 T _ZN4llvm20describeFuzzerIntOpsERSt6vectorINS_8fuzzerop12OpDescriptorESaIS2_EE
00000000009b11c0 T _ZN4llvm15RandomIRBuilder11findPointerERNS_10BasicBlockENS_8ArrayRefIPNS_11InstructionEEENS3_IPNS_5ValueEEENS_8fuzzerop10SourcePredE
00000000009b1470 T _ZN4llvm15RandomIRBuilder9newSourceERNS_10BasicBlockENS_8ArrayRefIPNS_11InstructionEEENS3_IPNS_5ValueEEENS_8fuzzerop10SourcePredE
00000000009b1890 T _ZN4llvm15RandomIRBuilder18findOrCreateSourceERNS_10BasicBlockENS_8ArrayRefIPNS_11InstructionEEENS3_IPNS_5ValueEEENS_8fuzzerop10SourcePredE
00000000009b1b80 T _ZN4llvm15RandomIRBuilder18findOrCreateSourceERNS_10BasicBlockENS_8ArrayRefIPNS_11InstructionEEE
00000000009b1e20 w _ZNSt24uniform_int_distributionIiEclISt23mersenne_twister_engineImLm32ELm624ELm397ELm31ELm2567483615ELm11ELm4294967295ELm7ELm2636928640ELm15ELm4022730752ELm18ELm1812433253EEEEiRT_RKNS0_10param_typeE
00000000009b1f20 T _ZN4llvm15RandomIRBuilder7newSinkERNS_10BasicBlockENS_8ArrayRefIPNS_11InstructionEEEPNS_5ValueE
00000000009b21c0 T _ZN4llvm15RandomIRBuilder13connectToSinkERNS_10BasicBlockENS_8ArrayRefIPNS_11InstructionEEEPNS_5ValueE
00000000009b29a0 T _ZN4llvm15getLazyIRModuleESt10unique_ptrINS_12MemoryBufferESt14default_deleteIS1_EERNS_12SMDiagnosticERNS_11LLVMContextEb
00000000009b3fb0 T _ZN4llvm19getLazyIRFileModuleENS_9StringRefERNS_12SMDiagnosticERNS_11LLVMContextEb
00000000009b4860 T _ZN4llvm7parseIRENS_15MemoryBufferRefERNS_12SMDiagnosticERNS_11LLVMContextEbNS_9StringRefE
00000000009b5e00 T LLVMParseIRInContext
00000000009b6160 T _ZN4llvm11parseIRFileENS_9StringRefERNS_12SMDiagnosticERNS_11LLVMContextEbS0_
00000000009b9b20 w _ZNSt8_Rb_treeIjSt4pairIKjN4llvm9BitVectorEESt10_Select1stIS4_ESt4lessIjESaIS4_EE8_M_eraseEPSt13_Rb_tree_nodeIS4_E
00000000009b9b70 w _ZNSt8_Rb_treeIjSt4pairIKjN4llvm9BitVectorEESt10_Select1stIS4_ESt4lessIjESaIS4_EE22_M_emplace_hint_uniqueIJRKSt21piecewise_construct_tSt5tupleIJRS1_EESF_IJEEEEESt17_Rb_tree_iteratorIS4_ESt23_Rb_tree_const_iteratorIS4_EDpOT_
00000000009b9e70 w _ZNSt8_Rb_treeIPKN4llvm19TargetRegisterClassESt4pairIKS3_jESt10_Select1stIS6_ESt4lessIS3_ESaIS6_EE16_M_insert_uniqueIS6_EES4_ISt17_Rb_tree_iteratorIS6_EbEOT_
00000000009b9f90 w _ZNSt8_Rb_treeIjSt4pairIKjjESt10_Select1stIS2_ESt4lessIjESaIS2_EE17_M_emplace_uniqueIJS0_IjjEEEES0_ISt17_Rb_tree_iteratorIS2_EbEDpOT_
00000000009ba0a0 w _ZNSt8_Rb_treeIPKN4llvm19TargetRegisterClassESt4pairIKS3_jESt10_Select1stIS6_ESt4lessIS3_ESaIS6_EE8_M_eraseEPSt13_Rb_tree_nodeIS6_E
00000000009ba0f0 w _ZNSt8_Rb_treeIPKN4llvm19TargetRegisterClassESt4pairIKS3_jESt10_Select1stIS6_ESt4lessIS3_ESaIS6_EE5eraseERS5_
00000000009ba270 w _ZNSt8_Rb_treeIPN4llvm12MachineInstrESt4pairIKS2_PKNS0_5SUnitEESt10_Select1stIS8_ESt4lessIS2_ESaIS8_EE8_M_eraseEPSt13_Rb_tree_nodeIS8_E
00000000009ba2c0 w _ZNSt8_Rb_treeIPN4llvm12MachineInstrESt4pairIKS2_PKNS0_5SUnitEESt10_Select1stIS8_ESt4lessIS2_ESaIS8_EE22_M_emplace_hint_uniqueIJRKSt21piecewise_construct_tSt5tupleIJOS2_EESJ_IJEEEEESt17_Rb_tree_iteratorIS8_ESt23_Rb_tree_const_iteratorIS8_EDpOT_
00000000009ba590 w _ZNSt8_Rb_treeIjSt4pairIKjjESt10_Select1stIS2_ESt4lessIjESaIS2_EE8_M_eraseEPSt13_Rb_tree_nodeIS2_E
00000000009ba5e0 w _ZNSt6vectorIPKN4llvm4SDepESaIS3_EE17_M_realloc_insertIJS3_EEEvN9__gnu_cxx17__normal_iteratorIPS3_S5_EEDpOT_
00000000009ba740 w _ZNSt8_Rb_treeIPKN4llvm19TargetRegisterClassESt4pairIKS3_jESt10_Select1stIS6_ESt4lessIS3_ESaIS6_EE29_M_get_insert_hint_unique_posESt23_Rb_tree_const_iteratorIS6_ERS5_
00000000009be0a0 T _ZN4llvm18ComputeLinearIndexEPNS_4TypeEPKjS3_j
00000000009be1d0 T _ZN4llvm15ComputeValueVTsERKNS_14TargetLoweringERKNS_10DataLayoutEPNS_4TypeERNS_15SmallVectorImplINS_3EVTEEEPSA_PNS8_ImEEm
00000000009bed30 T _ZN4llvm15ComputeValueVTsERKNS_14TargetLoweringERKNS_10DataLayoutEPNS_4TypeERNS_15SmallVectorImplINS_3EVTEEEPNS8_ImEEm
00000000009bed50 T _ZN4llvm16computeValueLLTsERKNS_10DataLayoutERNS_4TypeERNS_15SmallVectorImplINS_3LLTEEEPNS5_ImEEm
00000000009bf2d0 T _ZN4llvm15ExtractTypeInfoEPNS_5ValueE
00000000009bf350 T _ZN4llvm25hasInlineAsmMemConstraintERSt6vectorINS_9InlineAsm14ConstraintInfoESaIS2_EERKNS_14TargetLoweringE
00000000009bf430 T _ZN4llvm15getFCmpCondCodeENS_7CmpInst9PredicateE
00000000009bf440 T _ZN4llvm21getFCmpCodeWithoutNaNENS_3ISD8CondCodeE
00000000009bf4d0 T _ZN4llvm15getICmpCondCodeENS_7CmpInst9PredicateE
00000000009bf4f0 T _ZN4llvm24attributesPermitTailCallEPKNS_8FunctionEPKNS_11InstructionEPKNS_10ReturnInstERKNS_18TargetLoweringBaseEPb
00000000009c0100 T _ZN4llvm31returnTypeIsEligibleForTailCallEPKNS_8FunctionEPKNS_11InstructionEPKNS_10ReturnInstERKNS_18TargetLoweringBaseE
00000000009c0140 T _ZN4llvm20isInTailCallPositionENS_17ImmutableCallSiteERKNS_13TargetMachineE
00000000009c0b30 T _ZN4llvm20getEHScopeMembershipERKNS_15MachineFunctionE
00000000009c3da0 T _ZN4llvm26initializeAtomicExpandPassERNS_12PassRegistryE
00000000009c3eb0 T _ZN4llvm22createAtomicExpandPassEv
00000000009c3f10 T _ZN4llvm24expandAtomicRMWToCmpXchgEPNS_13AtomicRMWInstENS_12function_refIFvRNS_9IRBuilderINS_14ConstantFolderENS_24IRBuilderDefaultInserterEEEPNS_5ValueES9_S9_NS_14AtomicOrderingERS9_SB_EEE
00000000009cfe70 T _ZN4llvm12BasicTTIImplC1EPKNS_13TargetMachineERKNS_8FunctionE
00000000009d0aa0 T _ZN4llvm30initializeBranchFolderPassPassERNS_12PassRegistryE
00000000009d1b00 w _ZN4llvm15SmallVectorImplINS_14MachineOperandEEaSERKS2_
00000000009d7190 w _ZNSt8_Rb_treeIjjSt9_IdentityIjESt4lessIjESaIjEE5eraseERKj
00000000009da4c0 T _ZN4llvm30initializeBranchRelaxationPassERNS_12PassRegistryE
00000000009dbed0 T _ZN4llvm28initializeBreakFalseDepsPassERNS_12PassRegistryE
00000000009dbf80 w _ZN4llvm15callDefaultCtorINS_14BreakFalseDepsEEEPNS_4PassEv
00000000009dc170 T _ZN4llvm20createBreakFalseDepsEv
00000000009dc370 T _ZN4llvm14BreakFalseDeps24pickBestRegisterForUndefEPNS_12MachineInstrEjj
00000000009dc580 T _ZN4llvm14BreakFalseDeps21shouldBreakDependenceEPNS_12MachineInstrEjj
00000000009dc5b0 T _ZN4llvm14BreakFalseDeps17processUndefReadsEPNS_17MachineBasicBlockE
00000000009dc850 w _ZNSt6vectorISt4pairIPN4llvm12MachineInstrEjESaIS4_EE17_M_realloc_insertIJS4_EEEvN9__gnu_cxx17__normal_iteratorIPS4_S6_EEDpOT_
00000000009dc9d0 T _ZN4llvm14BreakFalseDeps11processDefsEPNS_12MachineInstrE
00000000009dcbc0 T _ZN4llvm14BreakFalseDeps17processBasicBlockEPNS_17MachineBasicBlockE
00000000009dcc70 T _ZN4llvm14BreakFalseDeps20runOnMachineFunctionERNS_15MachineFunctionE
00000000009dd250 T _ZN4llvm17linkAllBuiltinGCsEv
00000000009dd360 T _ZN4llvm14VirtRegAuxInfo16weightCalcHelperERNS_12LiveIntervalEPNS_9SlotIndexES4_
00000000009df1b0 T _ZN4llvm14VirtRegAuxInfo27calculateSpillWeightAndHintERNS_12LiveIntervalE
00000000009df1e0 T _ZN4llvm29calculateSpillWeightsAndHintsERNS_13LiveIntervalsERNS_15MachineFunctionEPNS_10VirtRegMapERKNS_15MachineLoopInfoERKNS_25MachineBlockFrequencyInfoEPFffjjE
00000000009df490 T _ZN4llvm14VirtRegAuxInfo12futureWeightERNS_12LiveIntervalENS_9SlotIndexES3_
00000000009df4e0 T _ZN4llvm7CCStateC2EjbRNS_15MachineFunctionERNS_15SmallVectorImplINS_11CCValAssignEEERNS_11LLVMContextE
00000000009df640 T _ZN4llvm7CCState11HandleByValEjNS_3MVTES1_NS_11CCValAssign7LocInfoEiiNS_3ISD10ArgFlagsTyE
00000000009df900 T _ZN4llvm7CCState13MarkAllocatedEj
00000000009dfa40 T _ZNK4llvm7CCState20IsShadowAllocatedRegEj
00000000009dfc20 T _ZN4llvm7CCState22AnalyzeFormalArgumentsERKNS_15SmallVectorImplINS_3ISD8InputArgEEEPFbjNS_3MVTES7_NS_11CCValAssign7LocInfoENS2_10ArgFlagsTyERS0_E
00000000009dfd00 T _ZN4llvm7CCState11CheckReturnERKNS_15SmallVectorImplINS_3ISD9OutputArgEEEPFbjNS_3MVTES7_NS_11CCValAssign7LocInfoENS2_10ArgFlagsTyERS0_E
00000000009dfda0 T _ZN4llvm7CCState13AnalyzeReturnERKNS_15SmallVectorImplINS_3ISD9OutputArgEEEPFbjNS_3MVTES7_NS_11CCValAssign7LocInfoENS2_10ArgFlagsTyERS0_E
00000000009dfe80 T _ZN4llvm7CCState19AnalyzeCallOperandsERKNS_15SmallVectorImplINS_3ISD9OutputArgEEEPFbjNS_3MVTES7_NS_11CCValAssign7LocInfoENS2_10ArgFlagsTyERS0_E
00000000009dff10 T _ZN4llvm7CCState19AnalyzeCallOperandsERNS_15SmallVectorImplINS_3MVTEEERNS1_INS_3ISD10ArgFlagsTyEEEPFbjS2_S2_NS_11CCValAssign7LocInfoES6_RS0_E
00000000009dffa0 T _ZN4llvm7CCState17AnalyzeCallResultERKNS_15SmallVectorImplINS_3ISD8InputArgEEEPFbjNS_3MVTES7_NS_11CCValAssign7LocInfoENS2_10ArgFlagsTyERS0_E
00000000009e0030 T _ZN4llvm7CCState17AnalyzeCallResultENS_3MVTEPFbjS1_S1_NS_11CCValAssign7LocInfoENS_3ISD10ArgFlagsTyERS0_E
00000000009e0060 T _ZN4llvm7CCState27getRemainingRegParmsForTypeERNS_15SmallVectorImplItEENS_3MVTEPFbjS4_S4_NS_11CCValAssign7LocInfoENS_3ISD10ArgFlagsTyERS0_E
00000000009e0250 T _ZN4llvm7CCState33analyzeMustTailForwardedRegistersERNS_15SmallVectorImplINS_17ForwardedRegisterEEENS_8ArrayRefINS_3MVTEEEPFbjS6_S6_NS_11CCValAssign7LocInfoENS_3ISD10ArgFlagsTyERS0_E
00000000009e04a0 T _ZN4llvm7CCState17resultsCompatibleEjjRNS_15MachineFunctionERNS_11LLVMContextERKNS_15SmallVectorImplINS_3ISD8InputArgEEEPFbjNS_3MVTESB_NS_11CCValAssign7LocInfoENS6_10ArgFlagsTyERS0_ESH_
00000000009e0880 T _ZN4llvm28initializeCFGuardLongjmpPassERNS_12PassRegistryE
00000000009e0ac0 T _ZN4llvm24createCFGuardLongjmpPassEv
00000000009e0c50 w _ZNSt6vectorIPN4llvm8MCSymbolESaIS2_EE17_M_realloc_insertIJRKS2_EEEvN9__gnu_cxx17__normal_iteratorIPS2_S4_EEDpOT_
00000000009e1380 T _ZN4llvm30initializeCFIInstrInserterPassERNS_12PassRegistryE
00000000009e15d0 T _ZN4llvm22createCFIInstrInserterEv
00000000009e3ea0 T _ZN4llvm17initializeCodeGenERNS_12PassRegistryE
00000000009e41a0 T LLVMInitializeCodeGen
00000000009e9d80 T _ZN4llvm28initializeCodeGenPreparePassERNS_12PassRegistryE
00000000009ec7b0 w _ZNSt8_Rb_treeIN4llvm11AssertingVHINS0_5ValueEEES3_St9_IdentityIS3_ESt4lessIS3_ESaIS3_EE8_M_eraseEPSt13_Rb_tree_nodeIS3_E
00000000009ece90 w _ZN4llvm23SmallVectorTemplateBaseINS_14WeakTrackingVHELb0EE4growEm
00000000009ef9d0 w _ZN4llvm23SmallVectorTemplateBaseISt4pairINS_11AssertingVHINS_17GetElementPtrInstEEElELb0EE4growEm
00000000009efae0 w _ZN4llvm15SmallVectorImplISt4pairINS_11AssertingVHINS_17GetElementPtrInstEEElEEaSEOS6_
00000000009efc40 w _ZN4llvm23SmallVectorTemplateBaseISt4pairIPNS_7PHINodeES3_ELb0EE4growEm
00000000009efd60 w _ZNSt8_Rb_treeISt4pairIPN4llvm7PHINodeES3_ES4_St9_IdentityIS4_ESt4lessIS4_ESaIS4_EE8_M_eraseEPSt13_Rb_tree_nodeIS4_E
00000000009efdb0 w _ZN4llvm23SmallVectorTemplateBaseISt4pairIPNS_11InstructionEjELb0EE4growEm
00000000009f2010 w _ZNSt6vectorIPN4llvm17GetElementPtrInstESaIS2_EE17_M_realloc_insertIJRKS2_EEEvN9__gnu_cxx17__normal_iteratorIPS2_S4_EEDpOT_
00000000009f3130 w _ZNSt8_Rb_treeISt4pairIPN4llvm7PHINodeES3_ES4_St9_IdentityIS4_ESt4lessIS4_ESaIS4_EE16_M_insert_uniqueIRKS4_EES0_ISt17_Rb_tree_iteratorIS4_EbEOT_
00000000009f3bc0 w _ZNSt8_Rb_treeIN4llvm11AssertingVHINS0_5ValueEEES3_St9_IdentityIS3_ESt4lessIS3_ESaIS3_EE16_M_insert_uniqueIRKS3_EESt4pairISt17_Rb_tree_iteratorIS3_EbEOT_
00000000009f3d20 w _ZNSt6vectorIPN4llvm11InstructionESaIS2_EE17_M_realloc_insertIJRKS2_EEEvN9__gnu_cxx17__normal_iteratorIPS2_S4_EEDpOT_
00000000009f46d0 T _ZN4llvm24createCodeGenPreparePassEv
0000000000a08e20 w _ZN4llvm15SmallVectorImplISt4pairINS_11AssertingVHINS_17GetElementPtrInstEEElEEaSERKS6_
0000000000a08f50 w _ZNSt6vectorISt4pairIN4llvm11AssertingVHINS1_5ValueEEENS1_11SmallVectorIS0_INS2_INS1_17GetElementPtrInstEEElELj32EEEESaISA_EE17_M_realloc_insertIJSA_EEEvN9__gnu_cxx17__normal_iteratorIPSA_SC_EEDpOT_
0000000000a14a40 w _ZNSt8_Rb_treeIjSt4pairIKjPN4llvm14MachineOperandEESt10_Select1stIS5_ESt4lessIjESaIS5_EE8_M_eraseEPSt13_Rb_tree_nodeIS5_E
0000000000a14c50 w _ZNSt8_Rb_treeIjSt4pairIKjPN4llvm14MachineOperandEESt10_Select1stIS5_ESt4lessIjESaIS5_EE5eraseERS1_
0000000000a16d90 T _ZN4llvm40initializeDeadMachineInstructionElimPassERNS_12PassRegistryE
0000000000a18370 T _ZN4llvm29initializeDetectDeadLanesPassERNS_12PassRegistryE
0000000000a184a0 w _ZNSt5dequeIjSaIjEE16_M_push_back_auxIJRKjEEEvDpOT_
0000000000a19d30 T _ZN4llvm13DFAPacketizer19canReserveResourcesEPKNS_11MCInstrDescE
0000000000a19dc0 T _ZN4llvm13DFAPacketizer19canReserveResourcesERNS_12MachineInstrE
0000000000a19dd0 T _ZN4llvm20DefaultVLIWSchedulerC2ERNS_15MachineFunctionERNS_15MachineLoopInfoEPNS_9AAResultsE
0000000000a19e30 T _ZN4llvm20DefaultVLIWScheduler14postprocessDAGEv
0000000000a19e70 T _ZN4llvm20DefaultVLIWScheduler8scheduleEv
0000000000a19ea0 T _ZN4llvm18VLIWPacketizerListC1ERNS_15MachineFunctionERNS_15MachineLoopInfoEPNS_9AAResultsE
0000000000a19f90 T _ZNK4llvm18VLIWPacketizerList5aliasERKNS_17MachineMemOperandES3_b
0000000000a1a1a0 T _ZNK4llvm18VLIWPacketizerList5aliasERKNS_12MachineInstrES3_b
0000000000a1a350 w _ZNSt5dequeIPN4llvm8internal14NfaTranscriber11PathSegmentESaIS4_EE8_M_eraseESt15_Deque_iteratorIS4_RS4_PS4_ESA_
0000000000a1aa70 w _ZNSt8_Rb_treeIPN4llvm12MachineInstrESt4pairIKS2_PNS0_5SUnitEESt10_Select1stIS7_ESt4lessIS2_ESaIS7_EE8_M_eraseEPSt13_Rb_tree_nodeIS7_E
0000000000a1aac0 T _ZN4llvm18VLIWPacketizerListD1Ev
0000000000a1ac90 T _ZN4llvm18VLIWPacketizerListD0Ev
0000000000a1acb0 w _ZNSt5dequeIPN4llvm8internal14NfaTranscriber11PathSegmentESaIS4_EE16_M_push_back_auxIJS4_EEEvDpOT_
0000000000a1aea0 w _ZN4llvm15SmallVectorImplImEaSEOS1_
0000000000a1afd0 T _ZN4llvm13DFAPacketizer16getUsedResourcesEj
0000000000a1b880 T _ZN4llvm18VLIWPacketizerList11addMutationESt10unique_ptrINS_19ScheduleDAGMutationESt14default_deleteIS2_EE
0000000000a1b910 w _ZNSt8_Rb_treeIPN4llvm12MachineInstrESt4pairIKS2_PNS0_5SUnitEESt10_Select1stIS7_ESt4lessIS2_ESaIS7_EE29_M_get_insert_hint_unique_posESt23_Rb_tree_const_iteratorIS7_ERS4_
0000000000a1bcc0 T _ZN4llvm18VLIWPacketizerList9endPacketEPNS_17MachineBasicBlockENS_26MachineInstrBundleIteratorINS_12MachineInstrELb0EEE
0000000000a1c480 T _ZN4llvm13DFAPacketizer16reserveResourcesEPKNS_11MCInstrDescE
0000000000a1c560 T _ZN4llvm13DFAPacketizer16reserveResourcesERNS_12MachineInstrE
0000000000a1c5f0 T _ZN4llvm18VLIWPacketizerList12PacketizeMIsEPNS_17MachineBasicBlockENS_26MachineInstrBundleIteratorINS_12MachineInstrELb0EEES5_
0000000000a1dcb0 T _ZN4llvm28initializeDwarfEHPreparePassERNS_12PassRegistryE
0000000000a1dd60 T _ZN4llvm17createDwarfEHPassEv
0000000000a20390 T _ZN4llvm30initializeEarlyIfConverterPassERNS_12PassRegistryE
0000000000a20440 T _ZN4llvm31initializeEarlyIfPredicatorPassERNS_12PassRegistryE
0000000000a20e70 w _ZNSt6vectorISt4pairIPN4llvm15DomTreeNodeBaseINS1_17MachineBasicBlockEEEN9__gnu_cxx17__normal_iteratorIPS5_S_IS5_SaIS5_EEEEESaISC_EE17_M_realloc_insertIJSC_EEEvNS7_IPSC_SE_EEDpOT_
0000000000a21030 w _ZN4llvm10post_orderIPNS_20MachineDominatorTreeEEENS_14iterator_rangeINS_11po_iteratorIT_NS_11SmallPtrSetINS_11GraphTraitsIS5_E7NodeRefELj8EEELb0ES8_EEEERKS5_
0000000000a21530 w _ZSt9__find_ifIN9__gnu_cxx17__normal_iteratorIPPN4llvm17MachineBasicBlockESt6vectorIS4_SaIS4_EEEENS0_5__ops16_Iter_equals_valIKS4_EEET_SE_SE_T0_St26random_access_iterator_tag
0000000000a239d0 T _ZNK4llvm11EdgeBundles16getAnalysisUsageERNS_13AnalysisUsageE
0000000000a23ba0 w _ZN4llvm15callDefaultCtorINS_11EdgeBundlesEEEPNS_4PassEv
0000000000a23d80 T _ZN4llvm25initializeEdgeBundlesPassERNS_12PassRegistryE
0000000000a23e30 T _ZN4llvm10WriteGraphINS_11EdgeBundlesEEERNS_11raw_ostreamES3_RKT_bRKNS_5TwineE
0000000000a24430 w _ZN4llvm23SmallVectorTemplateBaseINS_11SmallVectorIjLj8EEELb0EE4growEm
0000000000a246b0 w _ZN4llvm10WriteGraphINS_11EdgeBundlesEEENSt7__cxx1112basic_stringIcSt11char_traitsIcESaIcEEERKT_RKNS_5TwineEbSD_S7_
0000000000a24ef0 T _ZNK4llvm11EdgeBundles4viewEv
0000000000a24fd0 T _ZN4llvm11EdgeBundles20runOnMachineFunctionERNS_15MachineFunctionE
0000000000a25a60 T _ZNK4llvm18ExecutionDomainFix10regIndicesEj
0000000000a25a80 T _ZN4llvm18ExecutionDomainFix5allocEi
0000000000a25c00 T _ZN4llvm18ExecutionDomainFix8collapseEPNS_11DomainValueEj
0000000000a25cf0 T _ZN4llvm18ExecutionDomainFix7releaseEPNS_11DomainValueE
0000000000a25de0 T _ZN4llvm18ExecutionDomainFix7resolveERPNS_11DomainValueE
0000000000a25e50 T _ZN4llvm18ExecutionDomainFix10setLiveRegEiPNS_11DomainValueE
0000000000a25ea0 T _ZN4llvm18ExecutionDomainFix4killEi
0000000000a25ee0 T _ZN4llvm18ExecutionDomainFix5forceEij
0000000000a25fb0 T _ZN4llvm18ExecutionDomainFix5mergeEPNS_11DomainValueES2_
0000000000a260e0 T _ZN4llvm18ExecutionDomainFix11processDefsEPNS_12MachineInstrEb
0000000000a261a0 T _ZN4llvm18ExecutionDomainFix14visitHardInstrEPNS_12MachineInstrEj
0000000000a262d0 T _ZN4llvm18ExecutionDomainFix14visitSoftInstrEPNS_12MachineInstrEj
0000000000a26950 T _ZN4llvm18ExecutionDomainFix10visitInstrEPNS_12MachineInstrE
0000000000a269e0 w _ZNSt6vectorIPN4llvm11DomainValueESaIS2_EEaSERKS4_
0000000000a26b30 T _ZN4llvm18ExecutionDomainFix15leaveBasicBlockERKNS_13LoopTraversal16TraversedMBBInfoE
0000000000a26bc0 w _ZNSt6vectorIPN4llvm11DomainValueESaIS2_EE14_M_fill_assignEmRKS2_
0000000000a26e30 T _ZN4llvm18ExecutionDomainFix15enterBasicBlockERKNS_13LoopTraversal16TraversedMBBInfoE
0000000000a26ff0 T _ZN4llvm18ExecutionDomainFix17processBasicBlockERKNS_13LoopTraversal16TraversedMBBInfoE
0000000000a270a0 w _ZNSt6vectorIN4llvm11SmallVectorIiLj1EEESaIS2_EE17_M_default_appendEm
0000000000a27310 w _ZN4llvm23SmallVectorTemplateBaseISt6vectorIPNS_11DomainValueESaIS3_EELb0EE4growEm
0000000000a27ea0 T _ZN4llvm18ExecutionDomainFix20runOnMachineFunctionERNS_15MachineFunctionE
0000000000a2bfa0 T _ZN4llvm30initializeExpandMemCmpPassPassERNS_12PassRegistryE
0000000000a2c0a0 T _ZN4llvm22createExpandMemCmpPassEv
0000000000a30fc0 T _ZN4llvm26initializeExpandPostRAPassERNS_12PassRegistryE
0000000000a31a40 T _ZN4llvm30initializeExpandReductionsPassERNS_12PassRegistryE
0000000000a31b40 T _ZN4llvm26createExpandReductionsPassEv
0000000000a31b90 T _ZN4llvm20ExpandReductionsPass3runERNS_8FunctionERNS_15AnalysisManagerIS1_JEEE
0000000000a32840 T _ZN4llvm9FaultMapsC1ERNS_10AsmPrinterE
0000000000a32870 T _ZN4llvm9FaultMaps16emitFunctionInfoEPKNS_8MCSymbolERKSt6vectorINS0_9FaultInfoESaIS5_EE
0000000000a32930 T _ZN4llvm9FaultMaps26serializeToFaultMapSectionEv
0000000000a32a70 T _ZN4llvm9FaultMaps17faultTypeToStringENS0_9FaultKindE
0000000000a32aa0 T _ZN4llvmlsERNS_11raw_ostreamERKNS_14FaultMapParser25FunctionFaultInfoAccessorE
0000000000a32c50 T _ZN4llvmlsERNS_11raw_ostreamERKNS_14FaultMapParser20FunctionInfoAccessorE
0000000000a32e30 T _ZN4llvmlsERNS_11raw_ostreamERKNS_14FaultMapParserE
0000000000a33050 w _ZNSt8_Rb_treeIPKN4llvm8MCSymbolESt4pairIKS3_St6vectorINS0_9FaultMaps9FaultInfoESaIS8_EEESt10_Select1stISB_ENS7_18MCSymbolComparatorESaISB_EE24_M_get_insert_unique_posERS5_
0000000000a332c0 w _ZNSt8_Rb_treeIPKN4llvm8MCSymbolESt4pairIKS3_St6vectorINS0_9FaultMaps9FaultInfoESaIS8_EEESt10_Select1stISB_ENS7_18MCSymbolComparatorESaISB_EE29_M_get_insert_hint_unique_posESt23_Rb_tree_const_iteratorISB_ERS5_
0000000000a336d0 T _ZN4llvm9FaultMaps16recordFaultingOpENS0_9FaultKindEPKNS_8MCSymbolES4_
0000000000a33f70 T _ZN4llvm28initializeFEntryInserterPassERNS_12PassRegistryE
0000000000a345c0 T _ZN4llvm26initializeFinalizeISelPassERNS_12PassRegistryE
0000000000a34840 T _ZN4llvm27initializeFuncletLayoutPassERNS_12PassRegistryE
0000000000a351b0 T _ZN4llvm26initializeGCModuleInfoPassERNS_12PassRegistryE
0000000000a35260 T _ZN4llvm14GCFunctionInfoC2ERKNS_8FunctionERNS_10GCStrategyE
0000000000a35290 T _ZN4llvm14GCFunctionInfoD2Ev
0000000000a35620 T _ZN4llvm12GCModuleInfoC1Ev
0000000000a356b0 w _ZN4llvm15callDefaultCtorINS_12GCModuleInfoEEEPNS_4PassEv
0000000000a356e0 T _ZN4llvm12GCModuleInfo5clearEv
0000000000a359d0 T _ZN4llvm19createGCInfoPrinterERNS_11raw_ostreamE
0000000000a35a10 w _ZN4llvm23SmallVectorTemplateBaseISt10unique_ptrINS_10GCStrategyESt14default_deleteIS2_EELb0EE4growEm
0000000000a35c90 w _ZNSt6vectorISt10unique_ptrIN4llvm14GCFunctionInfoESt14default_deleteIS2_EESaIS5_EE17_M_realloc_insertIJS5_EEEvN9__gnu_cxx17__normal_iteratorIPS5_S7_EEDpOT_
0000000000a35f10 T _ZN4llvm12GCModuleInfo13getGCStrategyENS_9StringRefE
0000000000a36670 T _ZN4llvm12GCModuleInfo15getFunctionInfoERKNS_8FunctionE
0000000000a37430 T _ZN4llvm17GCMetadataPrinterD1Ev
0000000000a37440 T _ZN4llvm17GCMetadataPrinterD0Ev
0000000000a37460 w _ZN4llvm8RegistryINS_17GCMetadataPrinterEE8add_nodeEPNS2_4nodeE
0000000000a37490 w _ZN4llvm8RegistryINS_17GCMetadataPrinterEE5beginEv
0000000000a374a0 T _ZN4llvm17GCMetadataPrinterC1Ev
0000000000a38050 T _ZN4llvm29initializeLowerIntrinsicsPassERNS_12PassRegistryE
0000000000a38150 T _ZN4llvm20createGCLoweringPassEv
0000000000a381a0 T _ZN4llvm35initializeGCMachineCodeAnalysisPassERNS_12PassRegistryE
0000000000a38250 w _ZNSt6vectorIN4llvm7GCPointESaIS1_EE17_M_realloc_insertIJRPNS0_8MCSymbolERKNS0_8DebugLocEEEEvN9__gnu_cxx17__normal_iteratorIPS1_S3_EEDpOT_
0000000000a38a60 w _ZN4llvm8RegistryINS_10GCStrategyEE8add_nodeEPNS2_4nodeE
0000000000a38a90 w _ZN4llvm8RegistryINS_10GCStrategyEE5beginEv
0000000000a38aa0 T _ZN4llvm10GCStrategyC1Ev
0000000000a3d990 T _ZN4llvm25initializeGlobalMergePassERNS_12PassRegistryE
0000000000a3dad0 T _ZN4llvm21createGlobalMergePassEPKNS_13TargetMachineEjbb
0000000000a3db80 w _ZNSt6vectorImSaImEE17_M_default_appendEm
0000000000a3f890 w _ZNSt3_V28__rotateIPPN4llvm14GlobalVariableEEET_S5_S5_S5_St26random_access_iterator_tag
0000000000a49b10 T _ZN4llvm27initializeHardwareLoopsPassERNS_12PassRegistryE
0000000000a49c40 T _ZN4llvm23createHardwareLoopsPassEv
0000000000a4fca0 T _ZN4llvm25initializeIfConverterPassERNS_12PassRegistryE
0000000000a500a0 T _ZN4llvm17createIfConverterESt8functionIFbRKNS_15MachineFunctionEEE
0000000000a50fb0 w _ZNSt8_Rb_treeIttSt9_IdentityItESt4lessItESaItEE8_M_eraseEPSt13_Rb_tree_nodeItE
0000000000a51000 w _ZNSt8_Rb_treeIttSt9_IdentityItESt4lessItESaItEE16_M_insert_uniqueIRKtEESt4pairISt17_Rb_tree_iteratorItEbEOT_
0000000000a55d20 T _ZN4llvm32initializeImplicitNullChecksPassERNS_12PassRegistryE
0000000000a59400 T _ZN4llvm34initializeIndirectBrExpandPassPassERNS_12PassRegistryE
0000000000a59510 T _ZN4llvm26createIndirectBrExpandPassEv
0000000000a595e0 T _ZN4llvm7Spiller6anchorEv
0000000000a59b20 T _ZN4llvm7SpillerD2Ev
0000000000a59b30 T _ZN4llvm7SpillerD0Ev
0000000000a59b60 T _ZN4llvm19createInlineSpillerERNS_19MachineFunctionPassERNS_15MachineFunctionERNS_10VirtRegMapE
0000000000a5a480 w _ZN4llvm23SmallVectorTemplateBaseISt4pairIPNS_12LiveIntervalEPNS_6VNInfoEELb0EE4growEm
0000000000a5bb30 w _ZSt9__find_ifIPjN9__gnu_cxx5__ops16_Iter_equals_valIKjEEET_S6_S6_T0_St26random_access_iterator_tag
0000000000a5bbf0 w _ZNSt6vectorISt4pairIS0_IiPN4llvm6VNInfoEENS1_11SmallPtrSetIPNS1_12MachineInstrELj16EEEESaIS9_EE17_M_realloc_insertIJS9_EEEvN9__gnu_cxx17__normal_iteratorIPS9_SB_EEDpOT_
0000000000a69120 w _ZN4llvm15SmallVectorImplINS_15IntervalMapImpl4Path5EntryEEaSEOS4_
0000000000a69950 w _ZN4llvm11IntervalMapINS_9SlotIndexEPNS_12LiveIntervalELj8ENS_15IntervalMapInfoIS1_EEE14const_iterator12pathFillFindES1_
0000000000a69b70 w _ZN4llvm11IntervalMapINS_9SlotIndexEPNS_12LiveIntervalELj8ENS_15IntervalMapInfoIS1_EEE14const_iterator13treeAdvanceToES1_
0000000000a6ac20 T _ZN4llvm31initializeInterleavedAccessPassERNS_12PassRegistryE
0000000000a6ad30 T _ZN4llvm27createInterleavedAccessPassEv
0000000000a6eda0 T _ZN4llvm36initializeInterleavedLoadCombinePassERNS_12PassRegistryE
0000000000a6eea0 T _ZN4llvm32createInterleavedLoadCombinePassEv
0000000000a6eef0 w _ZNSt8_Rb_treeIN4llvm11AssertingVHINS0_9MemoryPhiEEES3_St9_IdentityIS3_ESt4lessIS3_ESaIS3_EE8_M_eraseEPSt13_Rb_tree_nodeIS3_E
0000000000a6ef40 w _ZNSt8_Rb_treeIPN4llvm8LoadInstES2_St9_IdentityIS2_ESt4lessIS2_ESaIS2_EE8_M_eraseEPSt13_Rb_tree_nodeIS2_E
0000000000a6ef90 w _ZNSt8_Rb_treeIPN4llvm11InstructionES2_St9_IdentityIS2_ESt4lessIS2_ESaIS2_EE8_M_eraseEPSt13_Rb_tree_nodeIS2_E
0000000000a6f2b0 w _ZNSt8_Rb_treeIPN4llvm11InstructionES2_St9_IdentityIS2_ESt4lessIS2_ESaIS2_EE16_M_insert_uniqueIS2_EESt4pairISt17_Rb_tree_iteratorIS2_EbEOT_
0000000000a73260 w _ZN4llvm15SmallVectorImplINS_30DiagnosticInfoOptimizationBase8ArgumentEEaSERKS3_
0000000000a7b870 T _ZN4llvm17IntrinsicLowering15LowerToByteSwapEPNS_8CallInstE
0000000000a7ce20 T _ZN4llvm17IntrinsicLowering18LowerIntrinsicCallEPNS_8CallInstE
0000000000a7e900 T _ZN4llvm20LatencyPriorityQueue6removeEPNS_5SUnitE
0000000000a7ee70 T _ZNK4llvm12latency_sortclEPKNS_5SUnitES3_
0000000000a7efb0 T _ZN4llvm20LatencyPriorityQueue3popEv
0000000000a7f070 T _ZN4llvm20LatencyPriorityQueue24getSingleUnscheduledPredEPNS_5SUnitE
0000000000a7f0d0 T _ZN4llvm20LatencyPriorityQueue32AdjustPriorityOfUnscheduledPredsEPNS_5SUnitE
0000000000a7f130 T _ZN4llvm20LatencyPriorityQueue13scheduledNodeEPNS_5SUnitE
0000000000a7f2d0 T _ZN4llvm20LatencyPriorityQueue4pushEPNS_5SUnitE
0000000000a7f390 T _ZN4llvm33LazyMachineBlockFrequencyInfoPass13releaseMemoryEv
0000000000a7f3f0 T _ZN4llvm33LazyMachineBlockFrequencyInfoPass20runOnMachineFunctionERNS_15MachineFunctionE
0000000000a7f4b0 T _ZNK4llvm33LazyMachineBlockFrequencyInfoPass16getAnalysisUsageERNS_13AnalysisUsageE
0000000000a7f600 T _ZN4llvm47initializeLazyMachineBlockFrequencyInfoPassPassERNS_12PassRegistryE
0000000000a7f6b0 T _ZN4llvm33LazyMachineBlockFrequencyInfoPassC1Ev
0000000000a7f820 w _ZN4llvm15callDefaultCtorINS_33LazyMachineBlockFrequencyInfoPassEEEPNS_4PassEv
0000000000a7f9b0 w _ZN4llvm15SmallVectorImplIPNS_17MachineBasicBlockEEaSEOS3_
0000000000a875e0 T _ZNK4llvm33LazyMachineBlockFrequencyInfoPass23calculateIfNotAvailableEv
0000000000a87a50 T _ZNK4llvm33LazyMachineBlockFrequencyInfoPass5printERNS_11raw_ostreamEPKNS_6ModuleE
0000000000a87a80 T _ZN4llvm13LexicalScopes5resetEv
0000000000a87c30 T _ZN4llvm13LexicalScopes18constructScopeNestEPNS_12LexicalScopeE
0000000000a87d50 w _ZN4llvm23SmallVectorTemplateBaseISt4pairIPKNS_12MachineInstrES4_ELb0EE4growEm
0000000000a87f20 T _ZN4llvm13LexicalScopes23assignInstructionRangesERNS_15SmallVectorImplISt4pairIPKNS_12MachineInstrES5_EEERNS_8DenseMapIS5_PNS_12LexicalScopeENS_12DenseMapInfoIS5_EENS_6detail12DenseMapPairIS5_SB_EEEE
0000000000a88690 w _ZNSt10_HashtableISt4pairIPKN4llvm12DILocalScopeEPKNS1_10DILocationEES0_IKS8_NS1_12LexicalScopeEESaISB_ENSt8__detail10_Select1stESt8equal_toIS8_ENS1_9pair_hashIS4_S7_EENSD_18_Mod_range_hashingENSD_20_Default_ranged_hashENSD_20_Prime_rehash_policyENSD_17_Hashtable_traitsILb1ELb0ELb1EEEE4findERS9_
0000000000a88710 T _ZN4llvm13LexicalScopes16findLexicalScopeEPKNS_10DILocationE
0000000000a88800 w _ZNSt10_HashtableISt4pairIPKN4llvm12DILocalScopeEPKNS1_10DILocationEES0_IKS8_NS1_12LexicalScopeEESaISB_ENSt8__detail10_Select1stESt8equal_toIS8_ENS1_9pair_hashIS4_S7_EENSD_18_Mod_range_hashingENSD_20_Default_ranged_hashENSD_20_Prime_rehash_policyENSD_17_Hashtable_traitsILb1ELb0ELb1EEEE10_M_emplaceIJRKSt21piecewise_construct_tSt5tupleIJRS8_EEST_IJRPSA_RS4_RS7_ObEEEEES0_INSD_14_Node_iteratorISB_Lb0ELb1EEEbESt17integral_constantIbLb1EEDpOT_
0000000000a88b60 w _ZNSt10_HashtableIPKN4llvm12DILocalScopeESt4pairIKS3_NS0_12LexicalScopeEESaIS7_ENSt8__detail10_Select1stESt8equal_toIS3_ESt4hashIS3_ENS9_18_Mod_range_hashingENS9_20_Default_ranged_hashENS9_20_Prime_rehash_policyENS9_17_Hashtable_traitsILb0ELb0ELb1EEEE21_M_insert_unique_nodeEmmPNS9_10_Hash_nodeIS7_Lb0EEEm
0000000000a88d10 w _ZNSt10_HashtableIPKN4llvm12DILocalScopeESt4pairIKS3_NS0_12LexicalScopeEESaIS7_ENSt8__detail10_Select1stESt8equal_toIS3_ESt4hashIS3_ENS9_18_Mod_range_hashingENS9_20_Default_ranged_hashENS9_20_Prime_rehash_policyENS9_17_Hashtable_traitsILb0ELb0ELb1EEEE10_M_emplaceIJRKSt21piecewise_construct_tSt5tupleIJRS3_EESP_IJRPS6_SQ_ODnObEEEEES4_INS9_14_Node_iteratorIS7_Lb0ELb0EEEbESt17integral_constantIbLb1EEDpOT_
0000000000a88e90 T _ZN4llvm13LexicalScopes24getOrCreateAbstractScopeEPKNS_12DILocalScopeE
0000000000a89030 T _ZN4llvm13LexicalScopes23getOrCreateRegularScopeEPKNS_12DILocalScopeE
0000000000a89190 T _ZN4llvm13LexicalScopes23getOrCreateLexicalScopeEPKNS_12DILocalScopeEPKNS_10DILocationE
0000000000a89240 T _ZN4llvm13LexicalScopes23getOrCreateInlinedScopeEPKNS_12DILocalScopeEPKNS_10DILocationE
0000000000a893a0 T _ZN4llvm13LexicalScopes20extractLexicalScopesERNS_15SmallVectorImplISt4pairIPKNS_12MachineInstrES5_EEERNS_8DenseMapIS5_PNS_12LexicalScopeENS_12DenseMapInfoIS5_EENS_6detail12DenseMapPairIS5_SB_EEEE
0000000000a8a160 T _ZN4llvm13LexicalScopes10initializeERKNS_15MachineFunctionE
0000000000a8a270 T _ZN4llvm13LexicalScopes21getMachineBasicBlocksEPKNS_10DILocationERNS_15SmallPtrSetImplIPKNS_17MachineBasicBlockEEE
0000000000a8a520 T _ZN4llvm13LexicalScopes9dominatesEPKNS_10DILocationEPNS_17MachineBasicBlockE
0000000000a8c4b0 T _ZN4llvm29initializeLiveDebugValuesPassERNS_12PassRegistryE
0000000000a8cbb0 w _ZN4llvm12hash_combineIJPKNS_15DILocalVariableEjPKNS_10DILocationEEEENS_9hash_codeEDpRKT_
0000000000a8d5b0 w _ZNSt8_Rb_treeIN4llvm12DIExpression12FragmentInfoES2_St9_IdentityIS2_ESt4lessIS2_ESaIS2_EE8_M_eraseEPSt13_Rb_tree_nodeIS2_E
0000000000a8e480 w _ZNSt8_Rb_treeIN4llvm12DIExpression12FragmentInfoES2_St9_IdentityIS2_ESt4lessIS2_ESaIS2_EE16_M_insert_uniqueIRKS2_EESt4pairISt17_Rb_tree_iteratorIS2_EbEOT_
0000000000a8e890 w _ZNSt7__cxx114listIN4llvm22SparseBitVectorElementILj128EEESaIS3_EE6insertISt20_List_const_iteratorIS3_EvEESt14_List_iteratorIS3_ES8_T_SB_
0000000000a8ea30 w _ZSt13__adjust_heapIN9__gnu_cxx17__normal_iteratorIPjSt6vectorIjSaIjEEEEljNS0_5__ops15_Iter_comp_iterISt7greaterIjEEEEvT_T0_SD_T1_T2_
0000000000a8eb60 w _ZNSt8_Rb_treeIN4llvm12DIExpression12FragmentInfoES2_St9_IdentityIS2_ESt4lessIS2_ESaIS2_EE7_M_copyINS8_11_Alloc_nodeEEEPSt13_Rb_tree_nodeIS2_EPKSC_PSt18_Rb_tree_node_baseRT_
0000000000a8ec60 w _ZN4llvm15SmallVectorImplINS_12DIExpression12FragmentInfoEEaSEOS3_
0000000000a98120 w _ZN4llvm11IntervalMapINS_9SlotIndexE16DbgValueLocationLj4ENS_15IntervalMapInfoIS1_EEE10deleteNodeENS_15IntervalMapImpl7NodeRefEj
0000000000a987f0 T _ZN4llvm32initializeLiveDebugVariablesPassERNS_12PassRegistryE
0000000000a98a30 w _ZNSt8_Rb_treeIN4llvm9SlotIndexES1_St9_IdentityIS1_ESt4lessIS1_ESaIS1_EE8_M_eraseEPSt13_Rb_tree_nodeIS1_E
0000000000a99270 w _ZN4llvm11IntervalMapINS_9SlotIndexE16DbgValueLocationLj4ENS_15IntervalMapInfoIS1_EEE10branchRootEj
0000000000a994c0 w _ZN4llvm11IntervalMapINS_9SlotIndexE16DbgValueLocationLj4ENS_15IntervalMapInfoIS1_EEE8iterator16canCoalesceRightES1_S2_
0000000000a995b0 w _ZN4llvm11IntervalMapINS_9SlotIndexE16DbgValueLocationLj4ENS_15IntervalMapInfoIS1_EEE8iterator15canCoalesceLeftES1_S2_
0000000000a996b0 w _ZN4llvm23SmallVectorTemplateBaseISt4pairINS_9SlotIndexE16DbgValueLocationELb0EE4growEm
0000000000a99c90 w _ZN4llvm15IntervalMapImpl8LeafNodeINS_9SlotIndexE16DbgValueLocationLj9ENS_15IntervalMapInfoIS2_EEE10insertFromERjjS2_S2_S3_
0000000000a99e60 w _ZN4llvm11IntervalMapINS_9SlotIndexE16DbgValueLocationLj4ENS_15IntervalMapInfoIS1_EEE14const_iterator12pathFillFindES1_
0000000000a9a080 w _ZN4llvm11IntervalMapINS_9SlotIndexE16DbgValueLocationLj4ENS_15IntervalMapInfoIS1_EEE14const_iterator8treeFindES1_
0000000000a9a180 w _ZN4llvm11IntervalMapINS_9SlotIndexE16DbgValueLocationLj4ENS_15IntervalMapInfoIS1_EEE14const_iterator13treeAdvanceToES1_
0000000000a9a4c0 w _ZN4llvm11IntervalMapINS_9SlotIndexE16DbgValueLocationLj4ENS_15IntervalMapInfoIS1_EEE8iterator9eraseNodeEj
0000000000a9a8c0 w _ZN4llvm11IntervalMapINS_9SlotIndexE16DbgValueLocationLj4ENS_15IntervalMapInfoIS1_EEE8iterator9treeEraseEb
0000000000a9aad0 w _ZN4llvm11IntervalMapINS_9SlotIndexE16DbgValueLocationLj4ENS_15IntervalMapInfoIS1_EEE8iterator8setValueES2_
0000000000a9aed0 w _ZN4llvm11IntervalMapINS_9SlotIndexE16DbgValueLocationLj4ENS_15IntervalMapInfoIS1_EEE8iterator8setStartES1_
0000000000a9b140 w _ZN4llvm15IntervalMapImpl18adjustSiblingSizesINS0_8LeafNodeINS_9SlotIndexE16DbgValueLocationLj9ENS_15IntervalMapInfoIS3_EEEEEEvPPT_jPjPKj
0000000000a9b570 w _ZNSt8_Rb_treeIN4llvm9SlotIndexES1_St9_IdentityIS1_ESt4lessIS1_ESaIS1_EE24_M_get_insert_unique_posERKS1_
0000000000a9b650 w _ZNSt8_Rb_treeIN4llvm9SlotIndexES1_St9_IdentityIS1_ESt4lessIS1_ESaIS1_EE16_M_insert_uniqueIRKS1_EESt4pairISt17_Rb_tree_iteratorIS1_EbEOT_
0000000000a9b730 w _ZNSt6vectorISt4pairIN4llvm14MachineOperandES0_IbjEESaIS4_EE17_M_realloc_insertIJS4_EEEvN9__gnu_cxx17__normal_iteratorIPS4_S6_EEDpOT_
0000000000a9e400 w _ZN4llvm15IntervalMapImpl18adjustSiblingSizesINS0_10BranchNodeINS_9SlotIndexE16DbgValueLocationLj12ENS_15IntervalMapInfoIS3_EEEEEEvPPT_jPjPKj
0000000000a9f230 w _ZN4llvm11IntervalMapINS_9SlotIndexE16DbgValueLocationLj4ENS_15IntervalMapInfoIS1_EEE8iterator8overflowINS_15IntervalMapImpl10BranchNodeIS1_S2_Lj12ES4_EEEEbj
0000000000a9f7c0 w _ZN4llvm11IntervalMapINS_9SlotIndexE16DbgValueLocationLj4ENS_15IntervalMapInfoIS1_EEE8iterator10insertNodeEjNS_15IntervalMapImpl7NodeRefES1_
0000000000a9feb0 w _ZN4llvm11IntervalMapINS_9SlotIndexE16DbgValueLocationLj4ENS_15IntervalMapInfoIS1_EEE8iterator8overflowINS_15IntervalMapImpl8LeafNodeIS1_S2_Lj9ES4_EEEEbj
0000000000aa0420 w _ZN4llvm11IntervalMapINS_9SlotIndexE16DbgValueLocationLj4ENS_15IntervalMapInfoIS1_EEE8iterator10treeInsertES1_S1_S2_
0000000000aa07b0 w _ZN4llvm11IntervalMapINS_9SlotIndexE16DbgValueLocationLj4ENS_15IntervalMapInfoIS1_EEE8iterator6insertES1_S1_S2_
0000000000aa70c0 T _ZN4llvm13LiveIntervalsD1Ev
0000000000aa72e0 T _ZN4llvm13LiveIntervalsD0Ev
0000000000aa7300 T _ZNK4llvm13LiveIntervals16getAnalysisUsageERNS_13AnalysisUsageE
0000000000aa74a0 T _ZN4llvm27initializeLiveIntervalsPassERNS_12PassRegistryE
0000000000aa7550 T _ZN4llvm13LiveIntervalsC1Ev
0000000000aa77a0 w _ZN4llvm15callDefaultCtorINS_13LiveIntervalsEEEPNS_4PassEv
0000000000aa77d0 T _ZNK4llvm13LiveIntervals11printInstrsERNS_11raw_ostreamE
0000000000aa7850 T _ZN4llvm13LiveIntervals14createIntervalEj
0000000000aa78c0 T _ZN4llvm13LiveIntervals19computeRegUnitRangeERNS_9LiveRangeEj
0000000000aa7b00 T _ZN4llvm13LiveIntervals21computeLiveInRegUnitsEv
0000000000aa7e00 T _ZN4llvm13LiveIntervals17computeDeadValuesERNS_12LiveIntervalEPNS_15SmallVectorImplIPNS_12MachineInstrEEE
0000000000aa8060 T _ZN4llvm13LiveIntervals22computeVirtRegIntervalERNS_12LiveIntervalE
0000000000aa80f0 T _ZNK4llvm13LiveIntervals5printERNS_11raw_ostreamEPKNS_6ModuleE
0000000000aa8400 T _ZN4llvm13LiveIntervals15extendToIndicesERNS_9LiveRangeENS_8ArrayRefINS_9SlotIndexEEES5_
0000000000aa8490 T _ZNK4llvm13LiveIntervals18intervalIsInOneMBBERKNS_12LiveIntervalE
0000000000aa86a0 T _ZNK4llvm13LiveIntervals10hasPHIKillERKNS_12LiveIntervalEPKNS_6VNInfoE
0000000000aa88c0 T _ZN4llvm13LiveIntervals14getSpillWeightEbbPKNS_25MachineBlockFrequencyInfoEPKNS_17MachineBasicBlockE
0000000000aa8980 T _ZN4llvm13LiveIntervals14getSpillWeightEbbPKNS_25MachineBlockFrequencyInfoERKNS_12MachineInstrE
0000000000aa89a0 T _ZN4llvm13LiveIntervals24checkRegMaskInterferenceERNS_12LiveIntervalERNS_9BitVectorE
0000000000aa9670 T _ZN4llvm13LiveIntervals18removePhysRegDefAtEjNS_9SlotIndexE
0000000000aa9780 T _ZN4llvm13LiveIntervals15removeVRegDefAtERNS_12LiveIntervalENS_9SlotIndexE
0000000000aa98a0 T _ZN4llvm13LiveIntervals23splitSeparateComponentsERNS_12LiveIntervalERNS_15SmallVectorImplIPS1_EE
0000000000aa9b60 T _ZN4llvm13LiveIntervals31constructMainRangeFromSubrangesERNS_12LiveIntervalE
0000000000aa9bc0 T _ZN4llvm13LiveIntervals12addKillFlagsEPKNS_10VirtRegMapE
0000000000aaa5b0 T _ZN4llvm13LiveIntervals15computeVirtRegsEv
0000000000aaa800 w _ZN4llvm15SmallVectorImplINS_9LiveRange7SegmentEE4swapERS3_
0000000000aaa9f0 w _ZN4llvm23SmallVectorTemplateBaseISt4pairIjjELb0EE4growEm
0000000000aaab90 w _ZN4llvm23SmallVectorTemplateBaseISt4pairINS_9SlotIndexEPNS_6VNInfoEELb0EE4growEm
0000000000aaaca0 T _ZN4llvm13LiveIntervals20extendSegmentsToUsesERNS_9LiveRangeERNS_11SmallVectorISt4pairINS_9SlotIndexEPNS_6VNInfoEELj16EEEjNS_11LaneBitmaskE
0000000000aab6f0 T _ZN4llvm13LiveIntervals15computeRegMasksEv
0000000000aabde0 T _ZN4llvm13LiveIntervals20runOnMachineFunctionERNS_15MachineFunctionE
0000000000aac0a0 T _ZN4llvm13LiveIntervals19repairOldRegInRangeENS_26MachineInstrBundleIteratorINS_12MachineInstrELb0EEES3_NS_9SlotIndexERNS_9LiveRangeEjNS_11LaneBitmaskE
0000000000aac9b0 T _ZN4llvm13LiveIntervals22repairIntervalsInRangeEPNS_17MachineBasicBlockENS_26MachineInstrBundleIteratorINS_12MachineInstrELb0EEES5_NS_8ArrayRefIjEE
0000000000aad1f0 T _ZN4llvm13LiveIntervals22addSegmentToEndOfBlockEjRNS_12MachineInstrE
0000000000aaecc0 T _ZN4llvm13LiveIntervals20handleMoveIntoBundleERNS_12MachineInstrES2_b
0000000000aaefe0 T _ZN4llvm13LiveIntervals10handleMoveERNS_12MachineInstrEb
0000000000aaf200 T _ZN4llvm13LiveIntervals13releaseMemoryEv
0000000000aaf490 T _ZN4llvm13LiveIntervals12shrinkToUsesERNS_12LiveInterval8SubRangeEj
0000000000aafa70 T _ZN4llvm13LiveIntervals12shrinkToUsesEPNS_12LiveIntervalEPNS_15SmallVectorImplIPNS_12MachineInstrEEE
0000000000aaff60 T _ZN4llvm13LiveIntervals10pruneValueERNS_9LiveRangeENS_9SlotIndexEPNS_15SmallVectorImplIS3_EE
0000000000ab0cd0 w _ZNSt14_Function_base13_Base_managerIZN4llvm13PrintLaneMaskENS1_11LaneBitmaskEEUlRNS1_11raw_ostreamEE_E10_M_managerERSt9_Any_dataRKS7_St18_Manager_operation
0000000000ab0d00 w _ZNSt17_Function_handlerIFvRN4llvm11raw_ostreamEEZNS0_13PrintLaneMaskENS0_11LaneBitmaskEEUlS2_E_E9_M_invokeERKSt9_Any_dataS2_
0000000000ab0d70 T _ZN4llvm9LiveRange4findENS_9SlotIndexE
0000000000ab0e10 T _ZNK4llvm9LiveRange12overlapsFromERKS0_PKNS0_7SegmentE
0000000000ab1040 T _ZNK4llvm9LiveRange8overlapsERKS0_RKNS_13CoalescerPairERKNS_11SlotIndexesE
0000000000ab11d0 T _ZNK4llvm9LiveRange8overlapsENS_9SlotIndexES1_
0000000000ab1290 T _ZNK4llvm9LiveRange6coversERKS0_
0000000000ab13c0 T _ZN4llvm9LiveRange20markValNoForDeletionEPNS_6VNInfoE
0000000000ab1420 T _ZN4llvm9LiveRange14RenumberValuesEv
0000000000ab1620 T _ZN4llvm9LiveRange6appendENS0_7SegmentE
0000000000ab1680 T _ZN4llvm9LiveRange13removeSegmentENS_9SlotIndexES1_b
0000000000ab18c0 T _ZN4llvm9LiveRange11removeValNoEPNS_6VNInfoE
0000000000ab1dc0 T _ZN4llvm9LiveRange20MergeValueNumberIntoEPNS_6VNInfoES2_
0000000000ab1ef0 T _ZNK4llvm9LiveRange15isLiveAtIndexesENS_8ArrayRefINS_9SlotIndexEEE
0000000000ab1fc0 T _ZNK4llvm12LiveInterval7getSizeEv
0000000000ab2020 T _ZN4llvmlsERNS_11raw_ostreamERKNS_9LiveRange7SegmentE
0000000000ab2160 T _ZNK4llvm9LiveRange5printERNS_11raw_ostreamE
0000000000ab23c0 T _ZNK4llvm12LiveInterval8SubRange5printERNS_11raw_ostreamE
0000000000ab24e0 T _ZNK4llvm12LiveInterval5printERNS_11raw_ostreamE
0000000000ab2620 T _ZN4llvm16LiveRangeUpdater11mergeSpillsEv
0000000000ab2700 T _ZN4llvm16LiveRangeUpdater5flushEv
0000000000ab2b30 T _ZN4llvm24ConnectedVNInfoEqClasses8ClassifyERKNS_9LiveRangeE
0000000000ab2e70 T _ZNK4llvm12LiveInterval21computeSubRangeUndefsERNS_15SmallVectorImplINS_9SlotIndexEEENS_11LaneBitmaskERKNS_19MachineRegisterInfoERKNS_11SlotIndexesE
0000000000ab3190 T _ZN4llvm12LiveInterval12freeSubRangeEPNS0_8SubRangeE
0000000000ab3210 T _ZN4llvm12LiveInterval20removeEmptySubRangesEv
0000000000ab3290 T _ZN4llvm12LiveInterval14clearSubRangesEv
0000000000ab32e0 T _ZN4llvm9LiveRange15flushSegmentSetEv
0000000000ab3410 T _ZN4llvm9LiveRange13extendInBlockENS_9SlotIndexES1_
0000000000ab3990 T _ZN4llvm24ConnectedVNInfoEqClasses10DistributeERNS_12LiveIntervalEPPS1_RNS_19MachineRegisterInfoE
0000000000ab4b30 T _ZN4llvm12LiveInterval15refineSubRangesERNS_20BumpPtrAllocatorImplINS_15MallocAllocatorELm4096ELm4096EEENS_11LaneBitmaskESt8functionIFvRNS0_8SubRangeEEERKNS_11SlotIndexesERKNS_18TargetRegisterInfoEj
0000000000ab5790 w _ZSt9__find_ifIPKN4llvm9SlotIndexEN9__gnu_cxx5__ops10_Iter_predIZNKS0_9LiveRange9isUndefInENS0_8ArrayRefIS1_EES1_S1_EUlS1_E_EEET_SC_SC_T0_St26random_access_iterator_tag
0000000000ab59c0 T _ZN4llvm9LiveRange13extendInBlockENS_8ArrayRefINS_9SlotIndexEEES2_S2_
0000000000ab61b0 w _ZNSt8_Rb_treeIN4llvm9LiveRange7SegmentES2_St9_IdentityIS2_ESt4lessIS2_ESaIS2_EE24_M_get_insert_unique_posERKS2_
0000000000ab62f0 w _ZNSt8_Rb_treeIN4llvm9LiveRange7SegmentES2_St9_IdentityIS2_ESt4lessIS2_ESaIS2_EE29_M_get_insert_hint_unique_posESt23_Rb_tree_const_iteratorIS2_ERKS2_
0000000000ab6560 w _ZNSt8_Rb_treeIN4llvm9LiveRange7SegmentES2_St9_IdentityIS2_ESt4lessIS2_ESaIS2_EE17_M_insert_unique_IRKS2_NS8_11_Alloc_nodeEEESt17_Rb_tree_iteratorIS2_ESt23_Rb_tree_const_iteratorIS2_EOT_RT0_
0000000000ab6660 T _ZN4llvm9LiveRange15addSegmentToSetENS0_7SegmentE
0000000000ab6e60 T _ZN4llvm9LiveRange10addSegmentENS0_7SegmentE
0000000000ab7540 T _ZN4llvm16LiveRangeUpdater3addENS_9LiveRange7SegmentE
0000000000ab7ab0 T _ZN4llvm9LiveRange4joinERS0_PKiS3_RNS_15SmallVectorImplIPNS_6VNInfoEEE
0000000000ab7e10 T _ZN4llvm9LiveRange22MergeSegmentsInAsValueERKS0_PNS_6VNInfoE
0000000000ab7f00 T _ZN4llvm9LiveRange19MergeValueInAsValueERKS0_PKNS_6VNInfoEPS3_
0000000000ab8680 T _ZN4llvm9LiveRange13createDeadDefENS_9SlotIndexERNS_20BumpPtrAllocatorImplINS_15MallocAllocatorELm4096ELm4096EEE
0000000000ab86e0 T _ZN4llvm9LiveRange13createDeadDefEPNS_6VNInfoE
0000000000ab8740 w _ZN4llvm11IntervalMapINS_9SlotIndexEPNS_12LiveIntervalELj8ENS_15IntervalMapInfoIS1_EEE10deleteNodeENS_15IntervalMapImpl7NodeRefEj
0000000000ab8770 T _ZNK4llvm17LiveIntervalUnion5printERNS_11raw_ostreamEPKNS_18TargetRegisterInfoE
0000000000ab8b60 T _ZNK4llvm17LiveIntervalUnion5Query18isSeenInterferenceEPNS_12LiveIntervalE
0000000000ab8c30 T _ZN4llvm17LiveIntervalUnion5Array5clearEv
0000000000ab9170 T _ZN4llvm17LiveIntervalUnion5Array4initERNS_18RecyclingAllocatorINS_20BumpPtrAllocatorImplINS_15MallocAllocatorELm4096ELm4096EEEcLm192ELm64EEEj
0000000000ab9280 w _ZN4llvm15IntervalMapImpl8LeafNodeINS_9SlotIndexEPNS_12LiveIntervalELj8ENS_15IntervalMapInfoIS2_EEE10insertFromERjjS2_S2_S4_
0000000000ab9410 w _ZN4llvm11IntervalMapINS_9SlotIndexEPNS_12LiveIntervalELj8ENS_15IntervalMapInfoIS1_EEE10branchRootEj
0000000000ab9730 w _ZN4llvm11IntervalMapINS_9SlotIndexEPNS_12LiveIntervalELj8ENS_15IntervalMapInfoIS1_EEE14const_iterator8treeFindES1_
0000000000ab9840 T _ZN4llvm17LiveIntervalUnion5Query23collectInterferingVRegsEj
0000000000ab9cf0 w _ZN4llvm11IntervalMapINS_9SlotIndexEPNS_12LiveIntervalELj8ENS_15IntervalMapInfoIS1_EEE8iterator9eraseNodeEj
0000000000aba1f0 w _ZN4llvm11IntervalMapINS_9SlotIndexEPNS_12LiveIntervalELj8ENS_15IntervalMapInfoIS1_EEE8iterator9treeEraseEb
0000000000aba420 T _ZN4llvm17LiveIntervalUnion7extractERNS_12LiveIntervalERKNS_9LiveRangeE
0000000000aba800 w _ZN4llvm15IntervalMapImpl18adjustSiblingSizesINS0_8LeafNodeINS_9SlotIndexEPNS_12LiveIntervalELj8ENS_15IntervalMapInfoIS3_EEEEEEvPPT_jPjPKj
0000000000abac50 w _ZN4llvm15IntervalMapImpl18adjustSiblingSizesINS0_10BranchNodeINS_9SlotIndexEPNS_12LiveIntervalELj12ENS_15IntervalMapInfoIS3_EEEEEEvPPT_jPjPKj
0000000000abba80 w _ZN4llvm11IntervalMapINS_9SlotIndexEPNS_12LiveIntervalELj8ENS_15IntervalMapInfoIS1_EEE8iterator8overflowINS_15IntervalMapImpl10BranchNodeIS1_S3_Lj12ES5_EEEEbj
0000000000abc010 w _ZN4llvm11IntervalMapINS_9SlotIndexEPNS_12LiveIntervalELj8ENS_15IntervalMapInfoIS1_EEE8iterator10insertNodeEjNS_15IntervalMapImpl7NodeRefES1_
0000000000abc8c0 w _ZN4llvm11IntervalMapINS_9SlotIndexEPNS_12LiveIntervalELj8ENS_15IntervalMapInfoIS1_EEE8iterator8overflowINS_15IntervalMapImpl8LeafNodeIS1_S3_Lj8ES5_EEEEbj
0000000000abce50 w _ZN4llvm11IntervalMapINS_9SlotIndexEPNS_12LiveIntervalELj8ENS_15IntervalMapInfoIS1_EEE8iterator10treeInsertES1_S1_S3_
0000000000abd190 w _ZN4llvm11IntervalMapINS_9SlotIndexEPNS_12LiveIntervalELj8ENS_15IntervalMapInfoIS1_EEE8iterator6insertES1_S1_S3_
0000000000abd3d0 T _ZN4llvm17LiveIntervalUnion5unifyERNS_12LiveIntervalERKNS_9LiveRangeE
0000000000abd7f0 w _ZNSt17_Function_handlerIFbRKN4llvm14MachineOperandEEZNS0_19phys_regs_and_masksERKNS0_12MachineInstrEEUlS3_E_E9_M_invokeERKSt9_Any_dataS3_
0000000000abd820 w _ZNSt14_Function_base13_Base_managerIZN4llvm19phys_regs_and_masksERKNS1_12MachineInstrEEUlRKNS1_14MachineOperandEE_E10_M_managerERSt9_Any_dataRKSA_St18_Manager_operation
0000000000abd850 T _ZNK4llvm12LivePhysRegs5printERNS_11raw_ostreamE
0000000000abda90 T _ZNK4llvm12LivePhysRegs9availableERKNS_19MachineRegisterInfoEt
0000000000abdcd0 T _ZN4llvm12LivePhysRegs15addBlockLiveInsERKNS_17MachineBasicBlockE
0000000000abdf50 T _ZN4llvm12LivePhysRegs12addPristinesERKNS_15MachineFunctionE
0000000000abe790 T _ZN4llvm12LivePhysRegs22addLiveOutsNoPristinesERKNS_17MachineBasicBlockE
0000000000abe980 T _ZN4llvm12LivePhysRegs11addLiveOutsERKNS_17MachineBasicBlockE
0000000000abe9b0 T _ZN4llvm12LivePhysRegs10addLiveInsERKNS_17MachineBasicBlockE
0000000000abe9e0 w _ZN4llvm10make_rangeINS_20filter_iterator_implINS_21ConstMIBundleOperandsESt8functionIFbRKNS_14MachineOperandEEESt20forward_iterator_tagEEEENS_14iterator_rangeIT_EESC_SC_
0000000000abeb10 w _ZN4llvm17make_filter_rangeINS_14iterator_rangeINS_21ConstMIBundleOperandsEEESt8functionIFbRKNS_14MachineOperandEEEEENS1_INS_20filter_iterator_implIDTcl5begincl7declvalIRT_EEEET0_NS_6detail15fwd_or_bidi_tagISD_E4typeEEEEEOSB_SE_
0000000000abf150 T _ZN4llvm12LivePhysRegs7addUsesERKNS_12MachineInstrE
0000000000abf730 w _ZN4llvm23SmallVectorTemplateBaseISt4pairItPKNS_14MachineOperandEELb0EE4growEm
0000000000abf840 T _ZN4llvm12LivePhysRegs16removeRegsInMaskERKNS_14MachineOperandEPNS_15SmallVectorImplISt4pairItPS2_EEE
0000000000abf940 T _ZN4llvm12LivePhysRegs10removeDefsERKNS_12MachineInstrE
0000000000ac0040 T _ZN4llvm12LivePhysRegs12stepBackwardERKNS_12MachineInstrE
0000000000ac0070 T _ZN4llvm14computeLiveInsERNS_12LivePhysRegsERKNS_17MachineBasicBlockE
0000000000ac0210 T _ZN4llvm22recomputeLivenessFlagsERNS_17MachineBasicBlockE
0000000000ac06c0 T _ZN4llvm12LivePhysRegs11stepForwardERKNS_12MachineInstrERNS_15SmallVectorImplISt4pairItPKNS_14MachineOperandEEEE
0000000000ac0c10 T _ZN4llvm10addLiveInsERNS_17MachineBasicBlockERKNS_12LivePhysRegsE
0000000000ac0de0 T _ZN4llvm20computeAndAddLiveInsERNS_12LivePhysRegsERNS_17MachineBasicBlockE
0000000000ac0e70 T _ZN4llvm13LiveRangeCalc17updateFromLiveInsEv
0000000000ac1000 T _ZN4llvm13LiveRangeCalc14createDeadDefsERNS_9LiveRangeEj
0000000000ac13e0 w _ZN4llvm23SmallVectorTemplateBaseISt4pairIPNS_6VNInfoEPNS_15DomTreeNodeBaseINS_17MachineBasicBlockEEEELb0EE4growEm
0000000000ac1500 T _ZN4llvm13LiveRangeCalc15resetLiveOutMapEv
0000000000ac1a90 T _ZN4llvm13LiveRangeCalc5resetEPKNS_15MachineFunctionEPNS_11SlotIndexesEPNS_20MachineDominatorTreeEPNS_20BumpPtrAllocatorImplINS_15MallocAllocatorELm4096ELm4096EEE
0000000000ac1ac0 T _ZN4llvm13LiveRangeCalc9updateSSAEv
0000000000ac2860 T _ZN4llvm13LiveRangeCalc15calculateValuesEv
0000000000ac28d0 T _ZN4llvm13LiveRangeCalc18isJointlyDominatedEPKNS_17MachineBasicBlockENS_8ArrayRefINS_9SlotIndexEEERKNS_11SlotIndexesE
0000000000ac3370 T _ZN4llvm13LiveRangeCalc12isDefOnEntryERNS_9LiveRangeENS_8ArrayRefINS_9SlotIndexEEERNS_17MachineBasicBlockERNS_9BitVectorES9_
0000000000ac45c0 T _ZN4llvm13LiveRangeCalc16findReachingDefsERNS_9LiveRangeERNS_17MachineBasicBlockENS_9SlotIndexEjNS_8ArrayRefIS5_EE
0000000000ac5850 T _ZN4llvm13LiveRangeCalc6extendERNS_9LiveRangeENS_9SlotIndexEjNS_8ArrayRefIS3_EE
0000000000ac5a20 T _ZN4llvm13LiveRangeCalc12extendToUsesERNS_9LiveRangeEjNS_11LaneBitmaskEPNS_12LiveIntervalE
0000000000ac5e40 T _ZN4llvm13LiveRangeCalc31constructMainRangeFromSubrangesERNS_12LiveIntervalE
0000000000ac5ef0 T _ZN4llvm13LiveRangeCalc9calculateERNS_12LiveIntervalEb
0000000000ac6990 T _ZN4llvm13LiveRangeEdit8Delegate6anchorEv
0000000000ac6aa0 T _ZN4llvm13LiveRangeEdit26MRI_NoteNewVirtualRegisterEj
0000000000ac6b00 T _ZN4llvm13LiveRangeEdit23createEmptyIntervalFromEjb
0000000000ac6fb0 T _ZN4llvm13LiveRangeEdit10createFromEj
0000000000ac71c0 T _ZN4llvm13LiveRangeEdit21checkRematerializableEPNS_6VNInfoEPKNS_12MachineInstrEPNS_9AAResultsE
0000000000ac7340 T _ZN4llvm13LiveRangeEdit14scanRemattableEPNS_9AAResultsE
0000000000ac75d0 T _ZN4llvm13LiveRangeEdit19anyRematerializableEPNS_9AAResultsE
0000000000ac7600 T _ZNK4llvm13LiveRangeEdit18allUsesAvailableAtEPKNS_12MachineInstrENS_9SlotIndexES4_
0000000000ac7930 T _ZN4llvm13LiveRangeEdit24calculateRegClassAndHintERNS_15MachineFunctionERKNS_15MachineLoopInfoERKNS_25MachineBlockFrequencyInfoE
0000000000ac7bb0 T _ZNK4llvm13LiveRangeEdit9useIsKillERKNS_12LiveIntervalERKNS_14MachineOperandE
0000000000ac7e30 T _ZN4llvm13LiveRangeEdit18canRematerializeAtERNS0_5RematEPNS_6VNInfoENS_9SlotIndexEb
0000000000ac8140 T _ZN4llvm13LiveRangeEdit10foldAsLoadEPNS_12LiveIntervalERNS_15SmallVectorImplIPNS_12MachineInstrEEE
0000000000ac87b0 T _ZN4llvm13LiveRangeEdit15rematerializeAtERNS_17MachineBasicBlockENS_26MachineInstrBundleIteratorINS_12MachineInstrELb0EEEjRKNS0_5RematERKNS_18TargetRegisterInfoEb
0000000000ac9520 T _ZN4llvm13LiveRangeEdit12eraseVirtRegEj
0000000000ac9640 T _ZN4llvm13LiveRangeEdit16eliminateDeadDefEPNS_12MachineInstrERNS_9SetVectorIPNS_12LiveIntervalENS_11SmallVectorIS5_Lj8EEENS_11SmallPtrSetIS5_Lj8EEEEEPNS_9AAResultsE
0000000000aca910 T _ZN4llvm13LiveRangeEdit17eliminateDeadDefsERNS_15SmallVectorImplIPNS_12MachineInstrEEENS_8ArrayRefIjEEPNS_9AAResultsE
0000000000acb6d0 T _ZN4llvm29initializeLiveRangeShrinkPassERNS_12PassRegistryE
0000000000acf3b0 T _ZNK4llvm13LiveRegMatrix16getAnalysisUsageERNS_13AnalysisUsageE
0000000000acf400 T _ZN4llvm13LiveRegMatrix20runOnMachineFunctionERNS_15MachineFunctionE
0000000000acf650 T _ZN4llvm13LiveRegMatrix13releaseMemoryEv
0000000000acff10 T _ZN4llvm27initializeLiveRegMatrixPassERNS_12PassRegistryE
0000000000acffc0 T _ZN4llvm13LiveRegMatrixC1Ev
0000000000ad01d0 w _ZN4llvm15callDefaultCtorINS_13LiveRegMatrixEEEPNS_4PassEv
0000000000ad0200 T _ZN4llvm13LiveRegMatrix6assignERNS_12LiveIntervalEj
0000000000ad0370 T _ZN4llvm13LiveRegMatrix8unassignERNS_12LiveIntervalE
0000000000ad0500 T _ZNK4llvm13LiveRegMatrix13isPhysRegUsedEj
0000000000ad0580 T _ZN4llvm13LiveRegMatrix24checkRegMaskInterferenceERNS_12LiveIntervalEj
0000000000ad0620 T _ZN4llvm13LiveRegMatrix24checkRegUnitInterferenceERNS_12LiveIntervalEj
0000000000ad0920 T _ZN4llvm13LiveRegMatrix5queryERKNS_9LiveRangeEj
0000000000ad09b0 T _ZN4llvm13LiveRegMatrix17checkInterferenceERNS_12LiveIntervalEj
0000000000ad0b70 T _ZN4llvm13LiveRegMatrix17checkInterferenceENS_9SlotIndexES1_j
0000000000ad0ea0 T _ZN4llvm12LiveRegUnits22removeRegsNotPreservedEPKj
0000000000ad0f40 T _ZN4llvm12LiveRegUnits13addRegsInMaskEPKj
0000000000ad0fd0 T _ZN4llvm12LiveRegUnits12addPristinesERKNS_15MachineFunctionE
0000000000ad1750 T _ZN4llvm12LiveRegUnits11addLiveOutsERKNS_17MachineBasicBlockE
0000000000ad1850 T _ZN4llvm12LiveRegUnits10addLiveInsERKNS_17MachineBasicBlockE
0000000000ad1890 T _ZN4llvm12LiveRegUnits10accumulateERKNS_12MachineInstrE
0000000000ad1e40 T _ZN4llvm12LiveRegUnits12stepBackwardERKNS_12MachineInstrE
0000000000ad2a50 T _ZNK4llvm10LiveStacks16getAnalysisUsageERNS_13AnalysisUsageE
0000000000ad2ac0 T _ZN4llvm10LiveStacks20runOnMachineFunctionERNS_15MachineFunctionE
0000000000ad2b00 T _ZNK4llvm10LiveStacks5printERNS_11raw_ostreamEPKNS_6ModuleE
0000000000ad2d30 T _ZN4llvm24initializeLiveStacksPassERNS_12PassRegistryE
0000000000ad2de0 w _ZN4llvm15callDefaultCtorINS_10LiveStacksEEEPNS_4PassEv
0000000000ad3060 w _ZNSt8_Rb_treeIiSt4pairIKiPKN4llvm19TargetRegisterClassEESt10_Select1stIS6_ESt4lessIiESaIS6_EE8_M_eraseEPSt13_Rb_tree_nodeIS6_E
0000000000ad30b0 w _ZNSt8_Rb_treeIiSt4pairIKiPKN4llvm19TargetRegisterClassEESt10_Select1stIS6_ESt4lessIiESaIS6_EE22_M_emplace_hint_uniqueIJRKSt21piecewise_construct_tSt5tupleIJRS1_EESH_IJEEEEESt17_Rb_tree_iteratorIS6_ESt23_Rb_tree_const_iteratorIS6_EDpOT_
0000000000ad33b0 w _ZNSt10_HashtableIiSt4pairIKiN4llvm12LiveIntervalEESaIS4_ENSt8__detail10_Select1stESt8equal_toIiESt4hashIiENS6_18_Mod_range_hashingENS6_20_Default_ranged_hashENS6_20_Prime_rehash_policyENS6_17_Hashtable_traitsILb0ELb0ELb1EEEE5clearEv
0000000000ad3490 T _ZN4llvm10LiveStacks13releaseMemoryEv
0000000000ad3840 w _ZNSt10_HashtableIiSt4pairIKiN4llvm12LiveIntervalEESaIS4_ENSt8__detail10_Select1stESt8equal_toIiESt4hashIiENS6_18_Mod_range_hashingENS6_20_Default_ranged_hashENS6_20_Prime_rehash_policyENS6_17_Hashtable_traitsILb0ELb0ELb1EEEE10_M_emplaceIJRKSt21piecewise_construct_tSt5tupleIJRiEESM_IJOjOfEEEEES0_INS6_14_Node_iteratorIS4_Lb0ELb0EEEbESt17integral_constantIbLb1EEDpOT_
0000000000ad3b40 T _ZN4llvm10LiveStacks19getOrCreateIntervalEiPKNS_19TargetRegisterClassE
0000000000ad3f30 T _ZNK4llvm13LiveVariables16getAnalysisUsageERNS_13AnalysisUsageE
0000000000ad4390 T _ZN4llvm27initializeLiveVariablesPassERNS_12PassRegistryE
0000000000ad4440 w _ZN4llvm15callDefaultCtorINS_13LiveVariablesEEEPNS_4PassEv
0000000000ad46b0 T _ZNK4llvm13LiveVariables7VarInfo8findKillEPKNS_17MachineBasicBlockE
0000000000ad4710 T _ZN4llvm13LiveVariables20FindLastRefOrPartRefEj
0000000000ad5bc0 T _ZN4llvm13LiveVariables17UpdatePhysRegDefsERNS_12MachineInstrERNS_15SmallVectorImplIjEE
0000000000ad5c70 T _ZN4llvm13LiveVariables15analyzePHINodesERKNS_15MachineFunctionE
0000000000ad5dd0 T _ZN4llvm13LiveVariables7VarInfo8isLiveInERKNS_17MachineBasicBlockEjRNS_19MachineRegisterInfoE
0000000000ad64b0 w _ZNSt6vectorIPN4llvm12MachineInstrESaIS2_EE14_M_fill_assignEmRKS2_
0000000000ad6720 w _ZNSt6vectorIN4llvm11SmallVectorIjLj4EEESaIS2_EE17_M_default_appendEm
0000000000ad6980 w _ZNSt6vectorIPN4llvm17MachineBasicBlockESaIS2_EE15_M_range_insertISt16reverse_iteratorIN9__gnu_cxx17__normal_iteratorIPS2_S4_EEEEEvSA_T_SC_St20forward_iterator_tag
0000000000ad6f10 T _ZN4llvm13LiveVariables23MarkVirtRegAliveInBlockERNS0_7VarInfoEPNS_17MachineBasicBlockES4_RSt6vectorIS4_SaIS4_EE
0000000000ad7240 T _ZN4llvm13LiveVariables23MarkVirtRegAliveInBlockERNS0_7VarInfoEPNS_17MachineBasicBlockES4_
0000000000ad7300 T _ZN4llvm13LiveVariables18FindLastPartialDefEjRNS_8SmallSetIjLj4ESt4lessIjEEE
0000000000ad7d10 T _ZN4llvm13LiveVariables16HandlePhysRegUseEjRNS_12MachineInstrE
0000000000ad8370 T _ZN4llvm13LiveVariables17HandlePhysRegKillEjPNS_12MachineInstrE
0000000000ad9810 T _ZN4llvm13LiveVariables13HandleRegMaskERKNS_14MachineOperandE
0000000000ad9950 T _ZN4llvm13LiveVariables16HandlePhysRegDefEjPNS_12MachineInstrERNS_15SmallVectorImplIjEE
0000000000ad9f60 w _ZN4llvm23SmallVectorTemplateBaseINS_13LiveVariables7VarInfoELb0EE4growEm
0000000000ada160 T _ZN4llvm13LiveVariables10getVarInfoEj
0000000000ada3c0 T _ZN4llvm13LiveVariables16HandleVirtRegUseEjPNS_17MachineBasicBlockERNS_12MachineInstrE
0000000000ada5d0 T _ZN4llvm13LiveVariables16HandleVirtRegDefEjRNS_12MachineInstrE
0000000000ada650 T _ZN4llvm13LiveVariables10runOnInstrERNS_12MachineInstrERNS_15SmallVectorImplIjEE
0000000000adaaf0 T _ZN4llvm13LiveVariables22replaceKillInstructionEjRNS_12MachineInstrES2_
0000000000adab40 T _ZN4llvm13LiveVariables28removeVirtualRegistersKilledERNS_12MachineInstrE
0000000000adacd0 T _ZN4llvm13LiveVariables9isLiveOutEjRKNS_17MachineBasicBlockE
0000000000adb170 T _ZN4llvm13LiveVariables10runOnBlockEPNS_17MachineBasicBlockEj
0000000000adbe90 T _ZN4llvm13LiveVariables11addNewBlockEPNS_17MachineBasicBlockES2_S2_
0000000000add700 T _ZN4llvm13LiveVariables20runOnMachineFunctionERNS_15MachineFunctionE
0000000000ade5f0 T _ZN4llvm17LLVMTargetMachine22getTargetTransformInfoERKNS_8FunctionE
0000000000adfce0 T _ZN4llvm17LLVMTargetMachine17addPassesToEmitMCERNS_6legacy15PassManagerBaseERPNS_9MCContextERNS_17raw_pwrite_streamEb
0000000000ae3100 T _ZN4llvm17LLVMTargetMachine11initAsmInfoEv
0000000000ae3480 T _ZN4llvm17LLVMTargetMachineC1ERKNS_6TargetENS_9StringRefERKNS_6TripleES4_S4_RKNS_13TargetOptionsENS_5Reloc5ModelENS_9CodeModel5ModelENS_10CodeGenOpt5LevelE
0000000000ae34e0 T _ZN4llvm17LLVMTargetMachine13addAsmPrinterERNS_6legacy15PassManagerBaseERNS_17raw_pwrite_streamEPS4_NS_15CodeGenFileTypeERNS_9MCContextE
0000000000ae3dc0 T _ZN4llvm17LLVMTargetMachine19addPassesToEmitFileERNS_6legacy15PassManagerBaseERNS_17raw_pwrite_streamEPS4_NS_15CodeGenFileTypeEbPNS_28MachineModuleInfoWrapperPassE
0000000000aed5d0 T _ZN4llvm32initializeLocalStackSlotPassPassERNS_12PassRegistryE
0000000000aed830 w _ZNSt8_Rb_treeIiiSt9_IdentityIiESt4lessIiESaIiEE8_M_eraseEPSt13_Rb_tree_nodeIiE
0000000000aed880 w _ZNSt8_Rb_treeIiiSt9_IdentityIiESt4lessIiESaIiEE16_M_insert_uniqueIRKiEESt4pairISt17_Rb_tree_iteratorIiEbEOT_
0000000000af0ea0 T _ZN4llvm13LoopTraversal11isBlockDoneEPNS_17MachineBasicBlockE
0000000000af0ef0 T _ZN4llvm13LoopTraversal8traverseERNS_15MachineFunctionE
0000000000af2300 T _ZN4llvm13getLLTForTypeERNS_4TypeERKNS_10DataLayoutE
0000000000af2520 T _ZN4llvm12getMVTForLLTENS_3LLTE
0000000000af2790 T _ZN4llvm12getLLTForMVTENS_3MVTE
0000000000af3240 T _ZN4llvm25initializeLowerEmuTLSPassERNS_12PassRegistryE
0000000000af3340 T _ZN4llvm21createLowerEmuTLSPassEv
0000000000af37d0 T _ZN4llvm17MachineBasicBlockC1ERNS_15MachineFunctionEPKNS_10BasicBlockE
0000000000af38c0 T _ZNK4llvm17MachineBasicBlock9getSymbolEv
0000000000af3a10 T _ZN4llvm17printMBBReferenceERKNS_17MachineBasicBlockE
0000000000af3a40 T _ZN4llvm21ilist_callback_traitsINS_17MachineBasicBlockEE18removeNodeFromListEPS1_
0000000000af3a60 T _ZN4llvm12ilist_traitsINS_12MachineInstrEE13addNodeToListEPS1_
0000000000af3aa0 T _ZN4llvm12ilist_traitsINS_12MachineInstrEE18removeNodeFromListEPS1_
0000000000af3af0 T _ZN4llvm12ilist_traitsINS_12MachineInstrEE21transferNodesFromListERS2_NS_14ilist_iteratorINS_12ilist_detail12node_optionsIS1_Lb1ELb1EvEELb0ELb0EEES8_
0000000000af3b20 T _ZN4llvm12ilist_traitsINS_12MachineInstrEE10deleteNodeEPS1_
0000000000af3b30 T _ZN4llvm17MachineBasicBlockD1Ev
0000000000af3bf0 T _ZN4llvm17MachineBasicBlock14getFirstNonPHIEv
0000000000af3c20 T _ZN4llvm17MachineBasicBlock17SkipPHIsAndLabelsENS_26MachineInstrBundleIteratorINS_12MachineInstrELb0EEE
0000000000af3d00 T _ZN4llvm17MachineBasicBlock22SkipPHIsLabelsAndDebugENS_26MachineInstrBundleIteratorINS_12MachineInstrELb0EEE
0000000000af3de0 T _ZN4llvm17MachineBasicBlock18getFirstTerminatorEv
0000000000af3f40 T _ZN4llvm17MachineBasicBlock23getFirstInstrTerminatorEv
0000000000af4020 T _ZN4llvm17MachineBasicBlock21getFirstNonDebugInstrEv
0000000000af4070 T _ZN4llvm17MachineBasicBlock20getLastNonDebugInstrEv
0000000000af40c0 T _ZNK4llvm17MachineBasicBlock17hasEHPadSuccessorEv
0000000000af4110 T _ZNK4llvm17MachineBasicBlock18isLegalToHoistIntoEv
0000000000af41b0 T _ZNK4llvm17MachineBasicBlock7getNameEv
0000000000af41e0 T _ZNK4llvm17MachineBasicBlock11getFullNameB5cxx11Ev
0000000000af4450 T _ZNK4llvm17MachineBasicBlock14printAsOperandERNS_11raw_ostreamEb
0000000000af44d0 T _ZN4llvm17MachineBasicBlock12removeLiveInEtNS_11LaneBitmaskE
0000000000af45f0 T _ZN4llvm17MachineBasicBlock12removeLiveInEN9__gnu_cxx17__normal_iteratorIPKNS0_16RegisterMaskPairESt6vectorIS3_SaIS3_EEEE
0000000000af4630 T _ZNK4llvm17MachineBasicBlock8isLiveInEtNS_11LaneBitmaskE
0000000000af4710 T _ZN4llvm17MachineBasicBlock17sortUniqueLiveInsEv
0000000000af4860 T _ZN4llvm17MachineBasicBlock10moveBeforeEPS0_
0000000000af48a0 T _ZN4llvm17MachineBasicBlock9moveAfterEPS0_
0000000000af48f0 T _ZNK4llvm17MachineBasicBlock17validateSuccProbsEv
0000000000af4900 T _ZN4llvm17MachineBasicBlock14addPredecessorEPS0_
0000000000af4a30 T _ZN4llvm17MachineBasicBlock17removePredecessorEPS0_
0000000000af4b50 T _ZNK4llvm17MachineBasicBlock17isLayoutSuccessorEPKS0_
0000000000af4b60 T _ZNK4llvm17MachineBasicBlock20canSplitCriticalEdgeEPKS0_
0000000000af4c90 T _ZN4llvm17MachineBasicBlock5eraseENS_14ilist_iteratorINS_12ilist_detail12node_optionsINS_12MachineInstrELb1ELb1EvEELb0ELb0EEE
0000000000af4d40 T _ZN4llvm17MachineBasicBlock12remove_instrEPNS_12MachineInstrE
0000000000af4de0 T _ZN4llvm17MachineBasicBlock6insertENS_14ilist_iteratorINS_12ilist_detail12node_optionsINS_12MachineInstrELb1ELb1EvEELb0ELb0EEEPS4_
0000000000af4e50 T _ZN4llvm17MachineBasicBlock16removeFromParentEv
0000000000af4e90 T _ZN4llvm17MachineBasicBlock15eraseFromParentEv
0000000000af4ee0 T _ZN4llvm17MachineBasicBlock18replacePhiUsesWithEPS0_S1_
0000000000af4f70 T _ZN4llvm17MachineBasicBlock12findDebugLocENS_14ilist_iteratorINS_12ilist_detail12node_optionsINS_12MachineInstrELb1ELb1EvEELb0ELb0EEE
0000000000af4fe0 T _ZN4llvm17MachineBasicBlock16findPrevDebugLocENS_14ilist_iteratorINS_12ilist_detail12node_optionsINS_12MachineInstrELb1ELb1EvEELb0ELb0EEE
0000000000af5060 T _ZN4llvm17MachineBasicBlock18findBranchDebugLocEv
0000000000af5270 T _ZNK4llvm17MachineBasicBlock22getProbabilityIteratorEN9__gnu_cxx17__normal_iteratorIPKPS0_St6vectorIS3_SaIS3_EEEE
0000000000af5290 T _ZNK4llvm17MachineBasicBlock18getSuccProbabilityEN9__gnu_cxx17__normal_iteratorIPKPS0_St6vectorIS3_SaIS3_EEEE
0000000000af5390 T _ZN4llvm17MachineBasicBlock22getProbabilityIteratorEN9__gnu_cxx17__normal_iteratorIPPS0_St6vectorIS3_SaIS3_EEEE
0000000000af53b0 T _ZN4llvm17MachineBasicBlock18setSuccProbabilityEN9__gnu_cxx17__normal_iteratorIPPS0_St6vectorIS3_SaIS3_EEEENS_17BranchProbabilityE
0000000000af53e0 T _ZNK4llvm17MachineBasicBlock19getBeginClobberMaskEPKNS_18TargetRegisterInfoE
0000000000af5410 T _ZNK4llvm17MachineBasicBlock17getEndClobberMaskEPKNS_18TargetRegisterInfoE
0000000000af54e0 T _ZN4llvm17MachineBasicBlock12clearLiveInsEv
0000000000af5500 T _ZNK4llvm17MachineBasicBlock12livein_beginEv
0000000000af5510 T _ZNK4llvm17MachineBasicBlock23computeRegisterLivenessEPKNS_18TargetRegisterInfoEjNS_26MachineInstrBundleIteratorIKNS_12MachineInstrELb0EEEj
0000000000af59a0 T _ZN4llvm17MachineBasicBlock15removeSuccessorEN9__gnu_cxx17__normal_iteratorIPPS0_St6vectorIS3_SaIS3_EEEEb
0000000000af5a40 T _ZN4llvm17MachineBasicBlock15removeSuccessorEPS0_b
0000000000af5b30 T _ZN4llvm17MachineBasicBlock16replaceSuccessorEPS0_S1_
0000000000af5c50 T _ZN4llvm17MachineBasicBlock22ReplaceUsesOfBlockWithEPS0_S1_
0000000000af5d20 T _ZN4llvm17MachineBasicBlock20CorrectExtraCFGEdgesEPS0_S1_b
0000000000af5f80 T _ZN4llvm21ilist_callback_traitsINS_17MachineBasicBlockEE13addNodeToListEPS1_
0000000000af6030 T _ZN4llvm17MachineBasicBlock23addSuccessorWithoutProbEPS0_
0000000000af6090 T _ZN4llvm17MachineBasicBlock12addSuccessorEPS0_NS_17BranchProbabilityE
0000000000af62e0 T _ZN4llvm17MachineBasicBlock14splitSuccessorEPS0_S1_b
0000000000af6410 T _ZN4llvm17MachineBasicBlock13copySuccessorEPS0_N9__gnu_cxx17__normal_iteratorIPS1_St6vectorIS1_SaIS1_EEEE
0000000000af6460 T _ZN4llvm17MachineBasicBlock18transferSuccessorsEPS0_
0000000000af6500 T _ZN4llvm17MachineBasicBlock31transferSuccessorsAndUpdatePHIsEPS0_
0000000000af65d0 T _ZN4llvm17MachineBasicBlock9addLiveInENS_10MCRegisterEPKNS_19TargetRegisterClassE
0000000000af6860 T _ZNK4llvm17MachineBasicBlock5printERNS_11raw_ostreamERNS_17ModuleSlotTrackerEPKNS_11SlotIndexesEb
0000000000af7cf0 T _ZNK4llvm17MachineBasicBlock5printERNS_11raw_ostreamEPKNS_11SlotIndexesEb
0000000000af7e50 T _ZN4llvmlsERNS_11raw_ostreamERKNS_17MachineBasicBlockE
0000000000af7e80 w _ZSt9__find_ifIN9__gnu_cxx17__normal_iteratorIPKPN4llvm17MachineBasicBlockESt6vectorIS4_SaIS4_EEEENS0_5__ops16_Iter_equals_valIKPKS3_EEET_SH_SH_T0_St26random_access_iterator_tag
0000000000af7f40 T _ZNK4llvm17MachineBasicBlock11isSuccessorEPKS0_
0000000000af7f80 T _ZN4llvm17MachineBasicBlock14getFallThroughEv
0000000000af8200 T _ZN4llvm17MachineBasicBlock14canFallThroughEv
0000000000af8220 T _ZN4llvm17MachineBasicBlock16updateTerminatorEv
0000000000af8660 T _ZNK4llvm17MachineBasicBlock13isPredecessorEPKS0_
0000000000af8690 w _ZSt16__insertion_sortIPSt4pairIN4llvm9SlotIndexEPNS1_17MachineBasicBlockEEN9__gnu_cxx5__ops15_Iter_comp_iterINS1_10less_firstEEEEvT_SC_T0_
0000000000af8790 w _ZSt13__adjust_heapIPSt4pairIN4llvm9SlotIndexEPNS1_17MachineBasicBlockEElS5_N9__gnu_cxx5__ops15_Iter_comp_iterINS1_10less_firstEEEEvT_T0_SD_T1_T2_
0000000000af8980 w _ZSt13__heap_selectIPSt4pairIN4llvm9SlotIndexEPNS1_17MachineBasicBlockEEN9__gnu_cxx5__ops15_Iter_comp_iterINS1_10less_firstEEEEvT_SC_SC_T0_
0000000000af8a90 w _ZSt16__introsort_loopIPSt4pairIN4llvm9SlotIndexEPNS1_17MachineBasicBlockEElN9__gnu_cxx5__ops15_Iter_comp_iterINS1_10less_firstEEEEvT_SC_T0_T1_
0000000000af9410 T _ZN4llvm17MachineBasicBlock17SplitCriticalEdgeEPS0_RNS_4PassE
0000000000afb7f0 T _ZN4llvm25MachineBlockFrequencyInfo13releaseMemoryEv
0000000000afb820 w _ZNSt17_Function_handlerIFvRKN4llvm9GVDAGTypeEENS0_2cl3optIS1_Lb0ENS5_6parserIS1_EEE8CallbackMUlS3_E_EE9_M_invokeERKSt9_Any_dataS3_
0000000000afb830 w _ZNSt14_Function_base13_Base_managerIN4llvm2cl3optINS1_9GVDAGTypeELb0ENS2_6parserIS4_EEE8CallbackMUlRKS4_E_EE10_M_managerERSt9_Any_dataRKSC_St18_Manager_operation
0000000000afba40 T _ZNK4llvm25MachineBlockFrequencyInfo16getAnalysisUsageERNS_13AnalysisUsageE
0000000000afbdf0 T _ZN4llvm25MachineBlockFrequencyInfoD1Ev
0000000000afbe50 T _ZN4llvm25MachineBlockFrequencyInfoD0Ev
0000000000afc410 T _ZN4llvm39initializeMachineBlockFrequencyInfoPassERNS_12PassRegistryE
0000000000afc4c0 T _ZN4llvm25MachineBlockFrequencyInfoC1Ev
0000000000afc630 w _ZN4llvm15callDefaultCtorINS_25MachineBlockFrequencyInfoEEEPNS_4PassEv
0000000000afc660 T _ZNK4llvm25MachineBlockFrequencyInfo12getBlockFreqEPKNS_17MachineBasicBlockE
0000000000afc720 T _ZNK4llvm25MachineBlockFrequencyInfo20getBlockProfileCountEPKNS_17MachineBasicBlockE
0000000000afc7f0 T _ZNK4llvm25MachineBlockFrequencyInfo23getProfileCountFromFreqEm
0000000000afc810 T _ZN4llvm25MachineBlockFrequencyInfo15isIrrLoopHeaderEPKNS_17MachineBasicBlockE
0000000000afc8d0 T _ZNK4llvm25MachineBlockFrequencyInfo11getFunctionEv
0000000000afc8f0 T _ZNK4llvm25MachineBlockFrequencyInfo7getMBPIEv
0000000000afc910 T _ZNK4llvm25MachineBlockFrequencyInfo14printBlockFreqERNS_11raw_ostreamENS_14BlockFrequencyE
0000000000afc940 T _ZNK4llvm25MachineBlockFrequencyInfo14printBlockFreqERNS_11raw_ostreamEPKNS_17MachineBasicBlockE
0000000000afca00 T _ZNK4llvm25MachineBlockFrequencyInfo12getEntryFreqEv
0000000000afca20 w _ZN4llvm2cl6valuesIJNS0_15OptionEnumValueES2_S2_S2_EEENS0_11ValuesClassEDpT_
0000000000afcb80 w _ZN4llvm10bfi_detail12getBlockNameINS_17MachineBasicBlockEEENSt7__cxx1112basic_stringIcSt11char_traitsIcESaIcEEEPKT_
0000000000afcdc0 w _ZNK4llvm22BlockFrequencyInfoImplINS_17MachineBasicBlockEE5printERNS_11raw_ostreamE
0000000000afd3f0 w _ZNSt6vectorIN4llvm26BlockFrequencyInfoImplBase11WorkingDataESaIS2_EE17_M_realloc_insertIJRmEEEvN9__gnu_cxx17__normal_iteratorIPS2_S4_EEDpOT_
0000000000afd590 w _ZNSt6vectorIN4llvm26BlockFrequencyInfoImplBase13FrequencyDataESaIS2_EE17_M_default_appendEm
0000000000afd730 w _ZN4llvm22BlockFrequencyInfoImplINS_17MachineBasicBlockEE25propagateMassToSuccessorsEPNS_26BlockFrequencyInfoImplBase8LoopDataERKNS3_9BlockNodeE
0000000000afd950 w _ZN4llvm22BlockFrequencyInfoImplINS_17MachineBasicBlockEE26tryToComputeMassInFunctionEv
0000000000afdbb0 w _ZNSt5dequeISt4pairIPKN4llvm11MachineLoopEPNS1_26BlockFrequencyInfoImplBase8LoopDataEESaIS8_EE17_M_reallocate_mapEmb
0000000000afdd30 w _ZN4llvm22BlockFrequencyInfoImplINS_17MachineBasicBlockEE15initializeLoopsEv
0000000000b004e0 w _ZN4llvm10WriteGraphIPNS_25MachineBlockFrequencyInfoEEERNS_11raw_ostreamES4_RKT_bRKNS_5TwineE
0000000000b00ac0 w _ZN4llvm22BlockFrequencyInfoImplINS_17MachineBasicBlockEE17computeMassInLoopERNS_26BlockFrequencyInfoImplBase8LoopDataE
0000000000b01770 w _ZNSt6vectorISt4pairIPKN4llvm17MachineBasicBlockEN9__gnu_cxx17__normal_iteratorIPKPS2_S_IS7_SaIS7_EEEEESaISD_EE17_M_realloc_insertIJSD_EEEvNS6_IPSD_SF_EEDpOT_
0000000000b01930 w _ZNSt6vectorIPKN4llvm17MachineBasicBlockESaIS3_EE17_M_realloc_insertIJRKS3_EEEvN9__gnu_cxx17__normal_iteratorIPS3_S5_EEDpOT_
0000000000b01a90 w _ZN4llvm22BlockFrequencyInfoImplINS_17MachineBasicBlockEE14initializeRPOTEv
0000000000b03430 w _ZN4llvm10bfi_detail16IrreducibleGraph8addEdgesINS0_15BlockEdgesAdderINS_17MachineBasicBlockEEEEEvRKNS_26BlockFrequencyInfoImplBase9BlockNodeEPKNS6_8LoopDataET_
0000000000b037a0 w _ZN4llvm10bfi_detail16IrreducibleGraph10initializeINS0_15BlockEdgesAdderINS_17MachineBasicBlockEEEEEvPKNS_26BlockFrequencyInfoImplBase8LoopDataET_
0000000000b04210 w _ZN4llvm22BlockFrequencyInfoImplINS_17MachineBasicBlockEE22computeIrreducibleMassEPNS_26BlockFrequencyInfoImplBase8LoopDataESt14_List_iteratorIS4_E
0000000000b04430 w _ZN4llvm22BlockFrequencyInfoImplINS_17MachineBasicBlockEE9calculateERKNS_15MachineFunctionERKNS_28MachineBranchProbabilityInfoERKNS_15MachineLoopInfoE
0000000000b04720 w _ZN4llvm10WriteGraphIPNS_25MachineBlockFrequencyInfoEEENSt7__cxx1112basic_stringIcSt11char_traitsIcESaIcEEERKT_RKNS_5TwineEbSE_S8_
0000000000b04f60 T _ZNK4llvm25MachineBlockFrequencyInfo4viewERKNS_5TwineEb
0000000000b05030 T _ZN4llvm25MachineBlockFrequencyInfo9calculateERKNS_15MachineFunctionERKNS_28MachineBranchProbabilityInfoERKNS_15MachineLoopInfoE
0000000000b052a0 T _ZN4llvm25MachineBlockFrequencyInfoC2ERNS_15MachineFunctionERNS_28MachineBranchProbabilityInfoERNS_15MachineLoopInfoE
0000000000b05430 T _ZN4llvm25MachineBlockFrequencyInfo20runOnMachineFunctionERNS_15MachineFunctionE
0000000000b08830 T _ZN4llvm35initializeMachineBlockPlacementPassERNS_12PassRegistryE
0000000000b08b90 T _ZN4llvm40initializeMachineBlockPlacementStatsPassERNS_12PassRegistryE
0000000000b09070 w _ZNSt3_V28__rotateIPPN4llvm17MachineBasicBlockEEET_S5_S5_S5_St26random_access_iterator_tag
0000000000b0b1a0 w _ZNSt3_V28__rotateIPSt5tupleIJN4llvm17BranchProbabilityEPNS2_17MachineBasicBlockEEEEET_S8_S8_S8_St26random_access_iterator_tag
0000000000b0b300 w _ZSt17__rotate_adaptiveIPSt5tupleIJN4llvm17BranchProbabilityEPNS1_17MachineBasicBlockEEES6_lET_S7_S7_S7_T1_S8_T0_S8_
0000000000b14e30 T _ZN4llvm28MachineBranchProbabilityInfo6anchorEv
0000000000b14f30 T _ZN4llvm42initializeMachineBranchProbabilityInfoPassERNS_12PassRegistryE
0000000000b14fe0 T _ZN4llvm28MachineBranchProbabilityInfoC1Ev
0000000000b15030 w _ZN4llvm15callDefaultCtorINS_28MachineBranchProbabilityInfoEEEPNS_4PassEv
0000000000b15060 T _ZNK4llvm28MachineBranchProbabilityInfo18getEdgeProbabilityEPKNS_17MachineBasicBlockEN9__gnu_cxx17__normal_iteratorIPKPS1_St6vectorIS6_SaIS6_EEEE
0000000000b15070 T _ZNK4llvm28MachineBranchProbabilityInfo18getEdgeProbabilityEPKNS_17MachineBasicBlockES3_
0000000000b15150 T _ZNK4llvm28MachineBranchProbabilityInfo9isEdgeHotEPKNS_17MachineBasicBlockES3_
0000000000b151d0 T _ZNK4llvm28MachineBranchProbabilityInfo10getHotSuccEPNS_17MachineBasicBlockE
0000000000b152a0 T _ZNK4llvm28MachineBranchProbabilityInfo20printEdgeProbabilityERNS_11raw_ostreamEPKNS_17MachineBasicBlockES5_
0000000000b15d00 T _ZN4llvm29initializeMachineCombinerPassERNS_12PassRegistryE
0000000000b18ac0 T _ZN4llvm36initializeMachineCopyPropagationPassERNS_12PassRegistryE
0000000000b1b920 w _ZNSt8_Rb_treeINSt7__cxx1112basic_stringIcSt11char_traitsIcESaIcEEESt4pairIKS5_jESt10_Select1stIS8_ESt4lessIS5_ESaIS8_EE24_M_get_insert_unique_posERS7_
